(lp0
(lp1
cnumpy.core.multiarray
_reconstruct
p2
(cnumpy
ndarray
p3
(I0
tp4
S'b'
p5
tp6
Rp7
(I1
(I1
tp8
cnumpy
dtype
p9
(S'f8'
p10
I0
I1
tp11
Rp12
(I3
S'<'
p13
NNNI-1
I-1
I0
tp14
bI00
S'\x00\x00\x00\x00\x00\xc4\x90@'
p15
tp16
bag2
(g3
(I0
tp17
g5
tp18
Rp19
(I1
(I1
tp20
g12
I00
S'JH\xd1h\xc1\xc0\x90@'
p21
tp22
bag2
(g3
(I0
tp23
g5
tp24
Rp25
(I1
(I1
tp26
g12
I00
S'\xdb=\x8d1\x1dr\x90@'
p27
tp28
bag2
(g3
(I0
tp29
g5
tp30
Rp31
(I1
(I1
tp32
g12
I00
S'%\x030t|\x8f\x8f@'
p33
tp34
bag2
(g3
(I0
tp35
g5
tp36
Rp37
(I1
(I1
tp38
g12
I00
S'\xe9\xbc>\xff\xa6\x9b\x8d@'
p39
tp40
bag2
(g3
(I0
tp41
g5
tp42
Rp43
(I1
(I1
tp44
g12
I00
S'\x1e\xbf\xa6\xa3\x178\x8b@'
p45
tp46
bag2
(g3
(I0
tp47
g5
tp48
Rp49
(I1
(I1
tp50
g12
I00
S'\xd3\xce\xbdj\x9f\x97\x88@'
p51
tp52
bag2
(g3
(I0
tp53
g5
tp54
Rp55
(I1
(I1
tp56
g12
I00
S'Se\xf2\x02\x9a\xe6\x85@'
p57
tp58
bag2
(g3
(I0
tp59
g5
tp60
Rp61
(I1
(I1
tp62
g12
I00
S'}\xfd9D\tG\x83@'
p63
tp64
bag2
(g3
(I0
tp65
g5
tp66
Rp67
(I1
(I1
tp68
g12
I00
S'\xba\x13\x8dU&\xd0\x80@'
p69
tp70
bag2
(g3
(I0
tp71
g5
tp72
Rp73
(I1
(I1
tp74
g12
I00
S'R\xa1\xaf\\g\x1f}@'
p75
tp76
bag2
(g3
(I0
tp77
g5
tp78
Rp79
(I1
(I1
tp80
g12
I00
S'VS\x0f\x18\xfd\x17y@'
p81
tp82
bag2
(g3
(I0
tp83
g5
tp84
Rp85
(I1
(I1
tp86
g12
I00
S'\x97X\x8dQ\xe4\x8bu@'
p87
tp88
bag2
(g3
(I0
tp89
g5
tp90
Rp91
(I1
(I1
tp92
g12
I00
S'\x9a}\xec\xdf\xd8ur@'
p93
tp94
bag2
(g3
(I0
tp95
g5
tp96
Rp97
(I1
(I1
tp98
g12
I00
S'.x\xebA\xd2\x98o@'
p99
tp100
bag2
(g3
(I0
tp101
g5
tp102
Rp103
(I1
(I1
tp104
g12
I00
S'<\x95\xdb\xe7?\x08k@'
p105
tp106
bag2
(g3
(I0
tp107
g5
tp108
Rp109
(I1
(I1
tp110
g12
I00
S'p]\xcc\x06\x03"g@'
p111
tp112
bag2
(g3
(I0
tp113
g5
tp114
Rp115
(I1
(I1
tp116
g12
I00
S'\xf2&}\xc7\xf8\xcec@'
p117
tp118
bag2
(g3
(I0
tp119
g5
tp120
Rp121
(I1
(I1
tp122
g12
I00
S'\x96\xe8\xd3\x02\xe4\xf9`@'
p123
tp124
bag2
(g3
(I0
tp125
g5
tp126
Rp127
(I1
(I1
tp128
g12
I00
S'<\xcb\x9fi\xd6\x1f]@'
p129
tp130
bag2
(g3
(I0
tp131
g5
tp132
Rp133
(I1
(I1
tp134
g12
I00
S'\x00\x00\x00\x00\x00\x00\x00\x00'
p135
tp136
bag2
(g3
(I0
tp137
g5
tp138
Rp139
(I1
(I1
tp140
g12
I00
S'K_\x13\x05\x00\xeb\xe8\xbf'
p141
tp142
bag2
(g3
(I0
tp143
g5
tp144
Rp145
(I1
(I1
tp146
g12
I00
S'\x9b\x91\x01\xa6E\xd8\x1b@'
p147
tp148
bag2
(g3
(I0
tp149
g5
tp150
Rp151
(I1
(I1
tp152
g12
I00
S'fm\x811J\x939@'
p153
tp154
bag2
(g3
(I0
tp155
g5
tp156
Rp157
(I1
(I1
tp158
g12
I00
S'\x8bx\xc6\xd3\x9c\xe9J@'
p159
tp160
bag2
(g3
(I0
tp161
g5
tp162
Rp163
(I1
(I1
tp164
g12
I00
S'\xc5^\xb41\x89>V@'
p165
tp166
bag2
(g3
(I0
tp167
g5
tp168
Rp169
(I1
(I1
tp170
g12
I00
S'P\x0fr,\xa1\x00`@'
p171
tp172
bag2
(g3
(I0
tp173
g5
tp174
Rp175
(I1
(I1
tp176
g12
I00
S'|\x12\xd4^4\te@'
p177
tp178
bag2
(g3
(I0
tp179
g5
tp180
Rp181
(I1
(I1
tp182
g12
I00
S'\xae@\xaeM\xec\xf6i@'
p183
tp184
bag2
(g3
(I0
tp185
g5
tp186
Rp187
(I1
(I1
tp188
g12
I00
S'u!\xb1\xf8)\x9cn@'
p189
tp190
bag2
(g3
(I0
tp191
g5
tp192
Rp193
(I1
(I1
tp194
g12
I00
S'\xe5Z\xce\x10\xbanq@'
p195
tp196
bag2
(g3
(I0
tp197
g5
tp198
Rp199
(I1
(I1
tp200
g12
I00
S'\xf4\x83\xbb;\xdeVs@'
p201
tp202
bag2
(g3
(I0
tp203
g5
tp204
Rp205
(I1
(I1
tp206
g12
I00
S'C\xc4bI8\x05u@'
p207
tp208
bag2
(g3
(I0
tp209
g5
tp210
Rp211
(I1
(I1
tp212
g12
I00
S'\x10\xce\xd8-\xfc{v@'
p213
tp214
bag2
(g3
(I0
tp215
g5
tp216
Rp217
(I1
(I1
tp218
g12
I00
S'dzL\xc8q\xbfw@'
p219
tp220
bag2
(g3
(I0
tp221
g5
tp222
Rp223
(I1
(I1
tp224
g12
I00
S'c]\xe3\x1a\xe8\xd4x@'
p225
tp226
bag2
(g3
(I0
tp227
g5
tp228
Rp229
(I1
(I1
tp230
g12
I00
S'\x86\\\x04[\xfb\xc1y@'
p231
tp232
bag2
(g3
(I0
tp233
g5
tp234
Rp235
(I1
(I1
tp236
g12
I00
S'\xd5VDD\x1e\x8cz@'
p237
tp238
bag2
(g3
(I0
tp239
g5
tp240
Rp241
(I1
(I1
tp242
g12
I00
S'\xe0\xc0\xd8\x1dV8{@'
p243
tp244
bag2
(g3
(I0
tp245
g5
tp246
Rp247
(I1
(I1
tp248
g12
I00
S'oY\x8c\x84\x1a\xcb{@'
p249
tp250
bag2
(g3
(I0
tp251
g5
tp252
Rp253
(I1
(I1
tp254
g12
I00
S'\x00\x00\x00\x00\x00@\x7f@'
p255
tp256
bag2
(g3
(I0
tp257
g5
tp258
Rp259
(I1
(I1
tp260
g12
I00
S'e E\xa3\x053\x7f@'
p261
tp262
bag2
(g3
(I0
tp263
g5
tp264
Rp265
(I1
(I1
tp266
g12
I00
S'\xdd\x0b\xf5l\x89h\x7f@'
p267
tp268
bag2
(g3
(I0
tp269
g5
tp270
Rp271
(I1
(I1
tp272
g12
I00
S'\\(`\x9d\n\xf6\x7f@'
p273
tp274
bag2
(g3
(I0
tp275
g5
tp276
Rp277
(I1
(I1
tp278
g12
I00
S'\xb6<\x9b\xb6^i\x80@'
p279
tp280
bag2
(g3
(I0
tp281
g5
tp282
Rp283
(I1
(I1
tp284
g12
I00
S'\xdf\xb0\x8a/}\xf4\x80@'
p285
tp286
bag2
(g3
(I0
tp287
g5
tp288
Rp289
(I1
(I1
tp290
g12
I00
S'Y,\xa6\x843\x90\x81@'
p291
tp292
bag2
(g3
(I0
tp293
g5
tp294
Rp295
(I1
(I1
tp296
g12
I00
S'Z\x1c\x123\x9e1\x82@'
p297
tp298
bag2
(g3
(I0
tp299
g5
tp300
Rp301
(I1
(I1
tp302
g12
I00
S'\xcb\xc5\xa2\x17<\xd0\x82@'
p303
tp304
bag2
(g3
(I0
tp305
g5
tp306
Rp307
(I1
(I1
tp308
g12
I00
S'\xed\xd3M\xf8 f\x83@'
p309
tp310
bag2
(g3
(I0
tp311
g5
tp312
Rp313
(I1
(I1
tp314
g12
I00
S'/\x8bB\x8b\xb0\xef\x83@'
p315
tp316
bag2
(g3
(I0
tp317
g5
tp318
Rp319
(I1
(I1
tp320
g12
I00
S"8\x1c\x00\xfa'k\x84@"
p321
tp322
bag2
(g3
(I0
tp323
g5
tp324
Rp325
(I1
(I1
tp326
g12
I00
S'h\xe2|\xd6\x1e\xd8\x84@'
p327
tp328
bag2
(g3
(I0
tp329
g5
tp330
Rp331
(I1
(I1
tp332
g12
I00
S'\xec\xd4\x8f\xdd\x147\x85@'
p333
tp334
bag2
(g3
(I0
tp335
g5
tp336
Rp337
(I1
(I1
tp338
g12
I00
S'\x05^\xdco\x15\x89\x85@'
p339
tp340
bag2
(g3
(I0
tp341
g5
tp342
Rp343
(I1
(I1
tp344
g12
I00
S'\xcdnPZr\xcf\x85@'
p345
tp346
bag2
(g3
(I0
tp347
g5
tp348
Rp349
(I1
(I1
tp350
g12
I00
S")6'\xb1\x93\x0b\x86@"
p351
tp352
bag2
(g3
(I0
tp353
g5
tp354
Rp355
(I1
(I1
tp356
g12
I00
S'\xfa\x88\\\xe1\xd8>\x86@'
p357
tp358
bag2
(g3
(I0
tp359
g5
tp360
Rp361
(I1
(I1
tp362
g12
I00
S'\x97LF\xcc\x86j\x86@'
p363
tp364
bag2
(g3
(I0
tp365
g5
tp366
Rp367
(I1
(I1
tp368
g12
I00
S'\xfd/\xba!\xbf\x8f\x86@'
p369
tp370
bag2
(g3
(I0
tp371
g5
tp372
Rp373
(I1
(I1
tp374
g12
I00
S'\x00\x00\x00\x00\x00p\x87@'
p375
tp376
bag2
(g3
(I0
tp377
g5
tp378
Rp379
(I1
(I1
tp380
g12
I00
S'}\x90\xa2\xd1\x82i\x87@'
p381
tp382
bag2
(g3
(I0
tp383
g5
tp384
Rp385
(I1
(I1
tp386
g12
I00
S'I\xe361\x89Z\x87@'
p387
tp388
bag2
(g3
(I0
tp389
g5
tp390
Rp391
(I1
(I1
tp392
g12
I00
S'\xa1d\xa0\x97\xfaC\x87@'
p393
tp394
bag2
(g3
(I0
tp395
g5
tp396
Rp397
(I1
(I1
tp398
g12
I00
S"\xa6\xa9\xdf\xf0\xf6'\x87@"
p399
tp400
bag2
(g3
(I0
tp401
g5
tp402
Rp403
(I1
(I1
tp404
g12
I00
S'\xfd<\xc1\x94\xdc\x08\x87@'
p405
tp406
bag2
(g3
(I0
tp407
g5
tp408
Rp409
(I1
(I1
tp410
g12
I00
S'\xf8 \xff\x0c\xc7\xe8\x86@'
p411
tp412
bag2
(g3
(I0
tp413
g5
tp414
Rp415
(I1
(I1
tp416
g12
I00
S'y\xe5v\xe9Y\xc9\x86@'
p417
tp418
bag2
(g3
(I0
tp419
g5
tp420
Rp421
(I1
(I1
tp422
g12
I00
S'\xf8\x9c\xcc\xd2\xb7\xab\x86@'
p423
tp424
bag2
(g3
(I0
tp425
g5
tp426
Rp427
(I1
(I1
tp428
g12
I00
S'\xb9\xab){\x90\x90\x86@'
p429
tp430
bag2
(g3
(I0
tp431
g5
tp432
Rp433
(I1
(I1
tp434
g12
I00
S'\x06\x87Z\xee7x\x86@'
p435
tp436
bag2
(g3
(I0
tp437
g5
tp438
Rp439
(I1
(I1
tp440
g12
I00
S'\x86\xa4Za\xbfb\x86@'
p441
tp442
bag2
(g3
(I0
tp443
g5
tp444
Rp445
(I1
(I1
tp446
g12
I00
S'_\xd6-k\x0bP\x86@'
p447
tp448
bag2
(g3
(I0
tp449
g5
tp450
Rp451
(I1
(I1
tp452
g12
I00
S'\xdap6\xf7\xe5?\x86@'
p453
tp454
bag2
(g3
(I0
tp455
g5
tp456
Rp457
(I1
(I1
tp458
g12
I00
S'\x96+.\xa9\x0b2\x86@'
p459
tp460
bag2
(g3
(I0
tp461
g5
tp462
Rp463
(I1
(I1
tp464
g12
I00
S'zY\xdc&5&\x86@'
p465
tp466
bag2
(g3
(I0
tp467
g5
tp468
Rp469
(I1
(I1
tp470
g12
I00
S'S\x10=\n\x1d\x1c\x86@'
p471
tp472
bag2
(g3
(I0
tp473
g5
tp474
Rp475
(I1
(I1
tp476
g12
I00
S'\xa1\xc3\x03M\x83\x13\x86@'
p477
tp478
bag2
(g3
(I0
tp479
g5
tp480
Rp481
(I1
(I1
tp482
g12
I00
S'Ap\xbd\xea.\x0c\x86@'
p483
tp484
bag2
(g3
(I0
tp485
g5
tp486
Rp487
(I1
(I1
tp488
g12
I00
S'\xe7\x18\xcdT\xee\x05\x86@'
p489
tp490
baI700
aa(lp491
g2
(g3
(I0
tp492
g5
tp493
Rp494
(I1
(I1
tp495
g12
I00
S'\x00\x00\x00\x00\x00\xf4u@'
p496
tp497
bag2
(g3
(I0
tp498
g5
tp499
Rp500
(I1
(I1
tp501
g12
I00
S'Y E\xa3\x05\xe7u@'
p502
tp503
bag2
(g3
(I0
tp504
g5
tp505
Rp506
(I1
(I1
tp507
g12
I00
S'\xdb~q?\t\x98u@'
p508
tp509
bag2
(g3
(I0
tp510
g5
tp511
Rp512
(I1
(I1
tp513
g12
I00
S"?\xf1'\x98H\xfdt@"
p514
tp515
bag2
(g3
(I0
tp516
g5
tp517
Rp518
(I1
(I1
tp519
g12
I00
S'L\x82\x9c\x8c\xad"t@'
p520
tp521
bag2
(g3
(I0
tp522
g5
tp523
Rp524
(I1
(I1
tp525
g12
I00
S'\xae&<\rv\x1cs@'
p526
tp527
bag2
(g3
(I0
tp528
g5
tp529
Rp530
(I1
(I1
tp531
g12
I00
S'\x98\x8f3\xda\xa1\xffq@'
p532
tp533
bag2
(g3
(I0
tp534
g5
tp535
Rp536
(I1
(I1
tp537
g12
I00
S'\x7fe\xd7b0\xdep@'
p538
tp539
bag2
(g3
(I0
tp540
g5
tp541
Rp542
(I1
(I1
tp543
g12
I00
S'\xc6\xf0\x07Cu\x8bo@'
p544
tp545
bag2
(g3
(I0
tp546
g5
tp547
Rp548
(I1
(I1
tp549
g12
I00
S'\x11\xe1\xc4\xf9\xc7~m@'
p550
tp551
bag2
(g3
(I0
tp552
g5
tp553
Rp554
(I1
(I1
tp555
g12
I00
S'\xba\xa3\x15\xaf\xea\xa0k@'
p556
tp557
bag2
(g3
(I0
tp558
g5
tp559
Rp560
(I1
(I1
tp561
g12
I00
S':~\xb2\x1en\xf6i@'
p562
tp563
bag2
(g3
(I0
tp564
g5
tp565
Rp566
(I1
(I1
tp567
g12
I00
S':\x90\xbd\xa3\x99\x7fh@'
p568
tp569
bag2
(g3
(I0
tp570
g5
tp571
Rp572
(I1
(I1
tp573
g12
I00
S'r\x12\xee\xa5\xe99g@'
p574
tp575
bag2
(g3
(I0
tp576
g5
tp577
Rp578
(I1
(I1
tp579
g12
I00
S'\x8e\x7f\xd2\x11>!f@'
p580
tp581
bag2
(g3
(I0
tp582
g5
tp583
Rp584
(I1
(I1
tp585
g12
I00
S'\xcb\x95 \xfc\xb70e@'
p586
tp587
bag2
(g3
(I0
tp588
g5
tp589
Rp590
(I1
(I1
tp591
g12
I00
S'\xf8\xca\x1a\x87Pcd@'
p592
tp593
bag2
(g3
(I0
tp594
g5
tp595
Rp596
(I1
(I1
tp597
g12
I00
S'\x0f\xd5\xa4J7\xb4c@'
p598
tp599
bag2
(g3
(I0
tp600
g5
tp601
Rp602
(I1
(I1
tp603
g12
I00
S'2\x85Z\xbf\x06\x1fc@'
p604
tp605
bag2
(g3
(I0
tp606
g5
tp607
Rp608
(I1
(I1
tp609
g12
I00
S'T\xd1\xa0q\xdb\x9fb@'
p610
tp611
bag2
(g3
(I0
tp612
g5
tp613
Rp614
(I1
(I1
tp615
g12
I00
S'\x00\x00\x00\x00\x00@_@'
p616
tp617
bag2
(g3
(I0
tp618
g5
tp619
Rp620
(I1
(I1
tp621
g12
I00
S'd\x9b\xec\xc9\xe5\x0e_@'
p622
tp623
bag2
(g3
(I0
tp624
g5
tp625
Rp626
(I1
(I1
tp627
g12
I00
S'\xffc\xa1;\xd8\x97`@'
p628
tp629
bag2
(g3
(I0
tp630
g5
tp631
Rp632
(I1
(I1
tp633
g12
I00
S'\\\x9d\xbf;y"c@'
p634
tp635
bag2
(g3
(I0
tp636
g5
tp637
Rp638
(I1
(I1
tp639
g12
I00
S'\xdb\xa4\x1aH\x11\xfcf@'
p640
tp641
bag2
(g3
(I0
tp642
g5
tp643
Rp644
(I1
(I1
tp645
g12
I00
S'\x8f\xad\xa7!l\xc5k@'
p646
tp647
bag2
(g3
(I0
tp648
g5
tp649
Rp650
(I1
(I1
tp651
g12
I00
S'R\xc7\xe9\xef\xc9\x8ap@'
p652
tp653
bag2
(g3
(I0
tp654
g5
tp655
Rp656
(I1
(I1
tp657
g12
I00
S'\x0c\x990\xe8\xcbGs@'
p658
tp659
bag2
(g3
(I0
tp660
g5
tp661
Rp662
(I1
(I1
tp663
g12
I00
S'"I\xab\x0c\xba\xf5u@'
p664
tp665
bag2
(g3
(I0
tp666
g5
tp667
Rp668
(I1
(I1
tp669
g12
I00
S'Z\xecs\xdc\xbb{x@'
p670
tp671
bag2
(g3
(I0
tp672
g5
tp673
Rp674
(I1
(I1
tp675
g12
I00
S'%\xf8\x17:\xe4\xcaz@'
p676
tp677
bag2
(g3
(I0
tp678
g5
tp679
Rp680
(I1
(I1
tp681
g12
I00
S'\x98\xa3\x95\x9d(\xdc|@'
p682
tp683
bag2
(g3
(I0
tp684
g5
tp685
Rp686
(I1
(I1
tp687
g12
I00
S"6'\xe2\xd09\xae~@"
p688
tp689
bag2
(g3
(I0
tp690
g5
tp691
Rp692
(I1
(I1
tp693
g12
I00
S'3`\xd3\xd9\xcb!\x80@'
p694
tp695
bag2
(g3
(I0
tp696
g5
tp697
Rp698
(I1
(I1
tp699
g12
I00
S'H\x89<c\x82\xd0\x80@'
p700
tp701
bag2
(g3
(I0
tp702
g5
tp703
Rp704
(I1
(I1
tp705
g12
I00
S'\x8b(\xc1\xa1/f\x81@'
p706
tp707
bag2
(g3
(I0
tp708
g5
tp709
Rp710
(I1
(I1
tp711
g12
I00
S'\x05*-\xb0\xea\xe5\x81@'
p712
tp713
bag2
(g3
(I0
tp714
g5
tp715
Rp716
(I1
(I1
tp717
g12
I00
S'\xdb\xe4\xee\xce\xb1R\x82@'
p718
tp719
bag2
(g3
(I0
tp720
g5
tp721
Rp722
(I1
(I1
tp723
g12
I00
S'\xb51~rE\xaf\x82@'
p724
tp725
bag2
(g3
(I0
tp726
g5
tp727
Rp728
(I1
(I1
tp729
g12
I00
S'\xa2s\xc8\xfa\x16\xfe\x82@'
p730
tp731
bag2
(g3
(I0
tp732
g5
tp733
Rp734
(I1
(I1
tp735
g12
I00
S'\x00\x00\x00\x00\x00\xd8\x84@'
p736
tp737
bag2
(g3
(I0
tp738
g5
tp739
Rp740
(I1
(I1
tp741
g12
I00
S'^\x90\xa2\xd1\x82\xd1\x84@'
p742
tp743
bag2
(g3
(I0
tp744
g5
tp745
Rp746
(I1
(I1
tp747
g12
I00
S'\n\xc5w\xaf{\x8f\x84@'
p748
tp749
bag2
(g3
(I0
tp750
g5
tp751
Rp752
(I1
(I1
tp753
g12
I00
S'(X\x8c\x15\xc7\x06\x84@'
p754
tp755
bag2
(g3
(I0
tp756
g5
tp757
Rp758
(I1
(I1
tp759
g12
I00
S'\x80\x115\xac\x7fA\x83@'
p760
tp761
bag2
(g3
(I0
tp762
g5
tp763
Rp764
(I1
(I1
tp765
g12
I00
S'._GR(R\x82@'
p766
tp767
bag2
(g3
(I0
tp768
g5
tp769
Rp770
(I1
(I1
tp771
g12
I00
S'@\x0cT\xfcUL\x81@'
p772
tp773
bag2
(g3
(I0
tp774
g5
tp775
Rp776
(I1
(I1
tp777
g12
I00
S'v\x8a\x01\x8c\xff@\x80@'
p778
tp779
bag2
(g3
(I0
tp780
g5
tp781
Rp782
(I1
(I1
tp783
g12
I00
S'\x93\xab\xca3%z~@'
p784
tp785
bag2
(g3
(I0
tp786
g5
tp787
Rp788
(I1
(I1
tp789
g12
I00
S'\x84\x9epB\xa9\x92|@'
p790
tp791
bag2
(g3
(I0
tp792
g5
tp793
Rp794
(I1
(I1
tp795
g12
I00
S'\x89\x8bvj\xd6\xd5z@'
p796
tp797
bag2
(g3
(I0
tp798
g5
tp799
Rp800
(I1
(I1
tp801
g12
I00
S'\x8d\xaa*<HHy@'
p802
tp803
bag2
(g3
(I0
tp804
g5
tp805
Rp806
(I1
(I1
tp807
g12
I00
S'\xf6\xca\xa2V\x84\xeaw@'
p808
tp809
bag2
(g3
(I0
tp810
g5
tp811
Rp812
(I1
(I1
tp813
g12
I00
S'\xfb\x9cl\xb7a\xbav@'
p814
tp815
bag2
(g3
(I0
tp816
g5
tp817
Rp818
(I1
(I1
tp819
g12
I00
S'\xa48\xfd\xa7&\xb4u@'
p820
tp821
bag2
(g3
(I0
tp822
g5
tp823
Rp824
(I1
(I1
tp825
g12
I00
S'h\xdfOd[\xd3t@'
p826
tp827
bag2
(g3
(I0
tp828
g5
tp829
Rp830
(I1
(I1
tp831
g12
I00
S'\x9c\xbe\x8bVZ\x13t@'
p832
tp833
bag2
(g3
(I0
tp834
g5
tp835
Rp836
(I1
(I1
tp837
g12
I00
S'R\xea*\xfa\xaaos@'
p838
tp839
bag2
(g3
(I0
tp840
g5
tp841
Rp842
(I1
(I1
tp843
g12
I00
S'D\xf0\xfd\xe54\xe4r@'
p844
tp845
bag2
(g3
(I0
tp846
g5
tp847
Rp848
(I1
(I1
tp849
g12
I00
S'\xcc\xa7{\xf8Vmr@'
p850
tp851
bag2
(g3
(I0
tp852
g5
tp853
Rp854
(I1
(I1
tp855
g12
I00
S'\x00\x00\x00\x00\x00@o@'
p856
tp857
bag2
(g3
(I0
tp858
g5
tp859
Rp860
(I1
(I1
tp861
g12
I00
S'/B\x8aF\x0b&o@'
p862
tp863
bag2
(g3
(I0
tp864
g5
tp865
Rp866
(I1
(I1
tp867
g12
I00
S'\xc1\x89\x87}\xff\xedo@'
p868
tp869
bag2
(g3
(I0
tp870
g5
tp871
Rp872
(I1
(I1
tp873
g12
I00
S'\xcc\x01\x1eXc\xecp@'
p874
tp875
bag2
(g3
(I0
tp876
g5
tp877
Rp878
(I1
(I1
tp879
g12
I00
S'\xf2\x8f\x91\x99!cr@'
p880
tp881
bag2
(g3
(I0
tp882
g5
tp883
Rp884
(I1
(I1
tp885
g12
I00
S'\xe0,\xa7\x15\xe26t@'
p886
tp887
bag2
(g3
(I0
tp888
g5
tp889
Rp890
(I1
(I1
tp891
g12
I00
S'`\xc7\xc35c?v@'
p892
tp893
bag2
(g3
(I0
tp894
g5
tp895
Rp896
(I1
(I1
tp897
g12
I00
S'\x13O\x95i\xebXx@'
p898
tp899
bag2
(g3
(I0
tp900
g5
tp901
Rp902
(I1
(I1
tp903
g12
I00
S'\xdf\x8c\xf6\xef\xbcgz@'
p904
tp905
bag2
(g3
(I0
tp906
g5
tp907
Rp908
(I1
(I1
tp909
g12
I00
S'\xc4)N\xa8\xa3X|@'
p910
tp911
bag2
(g3
(I0
tp912
g5
tp913
Rp914
(I1
(I1
tp915
g12
I00
S'9\xe78b\x04 ~@'
p916
tp917
bag2
(g3
(I0
tp918
g5
tp919
Rp920
(I1
(I1
tp921
g12
I00
S'\xeb5\xaeYP\xb8\x7f@'
p922
tp923
bag2
(g3
(I0
tp924
g5
tp925
Rp926
(I1
(I1
tp927
g12
I00
S'B\xf5yy0\x90\x80@'
p928
tp929
bag2
(g3
(I0
tp930
g5
tp931
Rp932
(I1
(I1
tp933
g12
I00
S'\xee\xb3)\n\x00-\x81@'
p934
tp935
bag2
(g3
(I0
tp936
g5
tp937
Rp938
(I1
(I1
tp939
g12
I00
S'h \xed\x95\\\xb4\x81@'
p940
tp941
bag2
(g3
(I0
tp942
g5
tp943
Rp944
(I1
(I1
tp945
g12
I00
S'~t\xb7\xac{(\x82@'
p946
tp947
bag2
(g3
(I0
tp948
g5
tp949
Rp950
(I1
(I1
tp951
g12
I00
S'&\xf8,v\xb4\x8b\x82@'
p952
tp953
bag2
(g3
(I0
tp954
g5
tp955
Rp956
(I1
(I1
tp957
g12
I00
S'vS\xba\xa3M\xe0\x82@'
p958
tp959
bag2
(g3
(I0
tp960
g5
tp961
Rp962
(I1
(I1
tp963
g12
I00
S'\xc9\x86\xa9\xad`(\x83@'
p964
tp965
bag2
(g3
(I0
tp966
g5
tp967
Rp968
(I1
(I1
tp969
g12
I00
S'\xf3\x0fV\x1c\xcce\x83@'
p970
tp971
baI667
aa.