(lp0
(lp1
cnumpy.core.multiarray
_reconstruct
p2
(cnumpy
ndarray
p3
(I0
tp4
S'b'
p5
tp6
Rp7
(I1
(I1
tp8
cnumpy
dtype
p9
(S'f8'
p10
I0
I1
tp11
Rp12
(I3
S'<'
p13
NNNI-1
I-1
I0
tp14
bI00
S'\x00\x00\x00\x00\x00\xc4\x90@'
p15
tp16
bag2
(g3
(I0
tp17
g5
tp18
Rp19
(I1
(I1
tp20
g12
I00
S'\x12+\xa9OA\xc1\x90@'
p21
tp22
bag2
(g3
(I0
tp23
g5
tp24
Rp25
(I1
(I1
tp26
g12
I00
S'f \xd7\r=\xa4\x90@'
p27
tp28
bag2
(g3
(I0
tp29
g5
tp30
Rp31
(I1
(I1
tp32
g12
I00
S'\tc\x8e\xcb\xe1g\x90@'
p33
tp34
bag2
(g3
(I0
tp35
g5
tp36
Rp37
(I1
(I1
tp38
g12
I00
S'\xeb\xd7l8\x82\x10\x90@'
p39
tp40
bag2
(g3
(I0
tp41
g5
tp42
Rp43
(I1
(I1
tp44
g12
I00
S'\x9e\\\x06\x84lL\x8f@'
p45
tp46
bag2
(g3
(I0
tp47
g5
tp48
Rp49
(I1
(I1
tp50
g12
I00
S'j.\x9e\x8dCc\x8e@'
p51
tp52
bag2
(g3
(I0
tp53
g5
tp54
Rp55
(I1
(I1
tp56
g12
I00
S',\x95Z"\xa1t\x8d@'
p57
tp58
bag2
(g3
(I0
tp59
g5
tp60
Rp61
(I1
(I1
tp62
g12
I00
S'\ro\xb5\xe4\x1e\x8c\x8c@'
p63
tp64
bag2
(g3
(I0
tp65
g5
tp66
Rp67
(I1
(I1
tp68
g12
I00
S'\x04iR&\xb0\xb1\x8b@'
p69
tp70
bag2
(g3
(I0
tp71
g5
tp72
Rp73
(I1
(I1
tp74
g12
I00
S'v\xd4\xf6|\x10\xea\x8a@'
p75
tp76
bag2
(g3
(I0
tp77
g5
tp78
Rp79
(I1
(I1
tp80
g12
I00
S'I6Y\x0bo7\x8a@'
p81
tp82
bag2
(g3
(I0
tp83
g5
tp84
Rp85
(I1
(I1
tp86
g12
I00
S'\xc5?\xb5\x8a!\x9a\x89@'
p87
tp88
bag2
(g3
(I0
tp89
g5
tp90
Rp91
(I1
(I1
tp92
g12
I00
S'\x12_\x83\x85C\x11\x89@'
p93
tp94
bag2
(g3
(I0
tp95
g5
tp96
Rp97
(I1
(I1
tp98
g12
I00
S'\x01\x1cMw6\x9b\x88@'
p99
tp100
bag2
(g3
(I0
tp101
g5
tp102
Rp103
(I1
(I1
tp104
g12
I00
S'd\xa5\xcf$\x016\x88@'
p105
tp106
bag2
(g3
(I0
tp107
g5
tp108
Rp109
(I1
(I1
tp110
g12
I00
S'X\xde\xf0\x8d\x91\xdf\x87@'
p111
tp112
bag2
(g3
(I0
tp113
g5
tp114
Rp115
(I1
(I1
tp116
g12
I00
S'\r\xbcP\xf8\xe6\x95\x87@'
p117
tp118
bag2
(g3
(I0
tp119
g5
tp120
Rp121
(I1
(I1
tp122
g12
I00
S'\x8c\xe1\xc1\xee)W\x87@'
p123
tp124
bag2
(g3
(I0
tp125
g5
tp126
Rp127
(I1
(I1
tp128
g12
I00
S'\xc1cN\x82\xb7!\x87@'
p129
tp130
baI700
aa(lp131
g2
(g3
(I0
tp132
g5
tp133
Rp134
(I1
(I1
tp135
g12
I00
S'\x00\x00\x00\x00\x00\xf4u@'
p136
tp137
bag2
(g3
(I0
tp138
g5
tp139
Rp140
(I1
(I1
tp141
g12
I00
S"?\xfb'\xee\xd4\xe3u@"
p142
tp143
bag2
(g3
(I0
tp144
g5
tp145
Rp146
(I1
(I1
tp147
g12
I00
S"x\x1a?@\xb2'v@"
p148
tp149
bag2
(g3
(I0
tp150
g5
tp151
Rp152
(I1
(I1
tp153
g12
I00
S'\xba\xc9\x10+\xa8\xdav@'
p154
tp155
bag2
(g3
(I0
tp156
g5
tp157
Rp158
(I1
(I1
tp159
g12
I00
S'0\xdd*\x91\x91\xf1w@'
p160
tp161
bag2
(g3
(I0
tp162
g5
tp163
Rp164
(I1
(I1
tp165
g12
I00
S'(D\x95\x8d\x13Qy@'
p166
tp167
bag2
(g3
(I0
tp168
g5
tp169
Rp170
(I1
(I1
tp171
g12
I00
S'\xff\xe6\x03~n\xdaz@'
p172
tp173
bag2
(g3
(I0
tp174
g5
tp175
Rp176
(I1
(I1
tp177
g12
I00
S'\x18\xef!\x1b%r|@'
p178
tp179
bag2
(g3
(I0
tp180
g5
tp181
Rp182
(I1
(I1
tp183
g12
I00
S'\xd0\x8e\xd9\x1b\xc0\x02~@'
p184
tp185
bag2
(g3
(I0
tp186
g5
tp187
Rp188
(I1
(I1
tp189
g12
I00
S'\xf4\x94\xa6,M}\x7f@'
p190
tp191
bag2
(g3
(I0
tp192
g5
tp193
Rp194
(I1
(I1
tp195
g12
I00
S'5\xbeO8Xl\x80@'
p196
tp197
bag2
(g3
(I0
tp198
g5
tp199
Rp200
(I1
(I1
tp201
g12
I00
S'\xc6\x89f\x96<\x08\x81@'
p202
tp203
bag2
(g3
(I0
tp204
g5
tp205
Rp206
(I1
(I1
tp207
g12
I00
S'v\x18\xab{\xd0\x91\x81@'
p208
tp209
bag2
(g3
(I0
tp210
g5
tp211
Rp212
(I1
(I1
tp213
g12
I00
S'o\xa5\xc6\xa4\xb5\t\x82@'
p214
tp215
bag2
(g3
(I0
tp216
g5
tp217
Rp218
(I1
(I1
tp219
g12
I00
S'\xa1l\x1f\xf6=q\x82@'
p220
tp221
bag2
(g3
(I0
tp222
g5
tp223
Rp224
(I1
(I1
tp225
g12
I00
S'\xc0$\xee \x14\xca\x82@'
p226
tp227
bag2
(g3
(I0
tp228
g5
tp229
Rp230
(I1
(I1
tp231
g12
I00
S'\xdd\xb0Y\xe2\xfe\x15\x83@'
p232
tp233
bag2
(g3
(I0
tp234
g5
tp235
Rp236
(I1
(I1
tp237
g12
I00
S'\x98w\x81\xfc\xb9V\x83@'
p238
tp239
bag2
(g3
(I0
tp240
g5
tp241
Rp242
(I1
(I1
tp243
g12
I00
S'5\x83\x92\xa4\xdf\x8d\x83@'
p244
tp245
bag2
(g3
(I0
tp246
g5
tp247
Rp248
(I1
(I1
tp249
g12
I00
S']\nX\x9b\xdd\xbc\x83@'
p250
tp251
baI667
aa.