(lp0
(lp1
cnumpy.core.multiarray
_reconstruct
p2
(cnumpy
ndarray
p3
(I0
tp4
S'b'
p5
tp6
Rp7
(I1
(I1
tp8
cnumpy
dtype
p9
(S'f8'
p10
I0
I1
tp11
Rp12
(I3
S'<'
p13
NNNI-1
I-1
I0
tp14
bI00
S'\x00\x00\x00\x00\x00\xc4\x90@'
p15
tp16
bag2
(g3
(I0
tp17
g5
tp18
Rp19
(I1
(I1
tp20
g12
I00
S'\x00\x00\x00\x00\x00\xc4\x90@'
p21
tp22
bag2
(g3
(I0
tp23
g5
tp24
Rp25
(I1
(I1
tp26
g12
I00
S'\x00\x00\x00\x00\x00\xc4\x90@'
p27
tp28
bag2
(g3
(I0
tp29
g5
tp30
Rp31
(I1
(I1
tp32
g12
I00
S'\x93\xa3Z\xfe\xff\xc3\x90@'
p33
tp34
bag2
(g3
(I0
tp35
g5
tp36
Rp37
(I1
(I1
tp38
g12
I00
S'\xabR/\xf1\xff\xc3\x90@'
p39
tp40
bag2
(g3
(I0
tp41
g5
tp42
Rp43
(I1
(I1
tp44
g12
I00
S'\xa6\xfcA\xed\xfc\xc3\x90@'
p45
tp46
bag2
(g3
(I0
tp47
g5
tp48
Rp49
(I1
(I1
tp50
g12
I00
S'<z\\D\xe7\xc3\x90@'
p51
tp52
bag2
(g3
(I0
tp53
g5
tp54
Rp55
(I1
(I1
tp56
g12
I00
S'\xd0I\x97f\x8d\xc3\x90@'
p57
tp58
bag2
(g3
(I0
tp59
g5
tp60
Rp61
(I1
(I1
tp62
g12
I00
S'h\xcd1\xce\xa7\xc2\x90@'
p63
tp64
bag2
(g3
(I0
tp65
g5
tp66
Rp67
(I1
(I1
tp68
g12
I00
S'\x8a*\t^\xb9\xc0\x90@'
p69
tp70
bag2
(g3
(I0
tp71
g5
tp72
Rp73
(I1
(I1
tp74
g12
I00
S'T\xb7\xf5A\xb3\xbd\x90@'
p75
tp76
bag2
(g3
(I0
tp77
g5
tp78
Rp79
(I1
(I1
tp80
g12
I00
S'l\xaapW\x95\xb9\x90@'
p81
tp82
bag2
(g3
(I0
tp83
g5
tp84
Rp85
(I1
(I1
tp86
g12
I00
S'\xb3\x8e\xcb\x06u\xb4\x90@'
p87
tp88
bag2
(g3
(I0
tp89
g5
tp90
Rp91
(I1
(I1
tp92
g12
I00
S'\xf3\xd9\xf6\xfb\x12\xae\x90@'
p93
tp94
bag2
(g3
(I0
tp95
g5
tp96
Rp97
(I1
(I1
tp98
g12
I00
S'\x80\xba\x90}c\xa7\x90@'
p99
tp100
bag2
(g3
(I0
tp101
g5
tp102
Rp103
(I1
(I1
tp104
g12
I00
S'\x01\xbdS\x07"\xa0\x90@'
p105
tp106
bag2
(g3
(I0
tp107
g5
tp108
Rp109
(I1
(I1
tp110
g12
I00
S'\x81\xd8\x93\xa5\xde\x98\x90@'
p111
tp112
bag2
(g3
(I0
tp113
g5
tp114
Rp115
(I1
(I1
tp116
g12
I00
S'\xa4Mu\x9b>\x91\x90@'
p117
tp118
bag2
(g3
(I0
tp119
g5
tp120
Rp121
(I1
(I1
tp122
g12
I00
S'\x1a\xc7\xc6\x17\x18\x8b\x90@'
p123
tp124
bag2
(g3
(I0
tp125
g5
tp126
Rp127
(I1
(I1
tp128
g12
I00
S'\x08\xd6=\x8d\xe4\x85\x90@'
p129
tp130
bag2
(g3
(I0
tp131
g5
tp132
Rp133
(I1
(I1
tp134
g12
I00
S'\x85\x17\xfd\xccv\x7f\x90@'
p135
tp136
bag2
(g3
(I0
tp137
g5
tp138
Rp139
(I1
(I1
tp140
g12
I00
S'\x1cajA\x16z\x90@'
p141
tp142
bag2
(g3
(I0
tp143
g5
tp144
Rp145
(I1
(I1
tp146
g12
I00
S'\x19\xb1\xde`Qv\x90@'
p147
tp148
bag2
(g3
(I0
tp149
g5
tp150
Rp151
(I1
(I1
tp152
g12
I00
S"\x8e'Bg/t\x90@"
p153
tp154
bag2
(g3
(I0
tp155
g5
tp156
Rp157
(I1
(I1
tp158
g12
I00
S'&\xaf=\xa5\xdfp\x90@'
p159
tp160
bag2
(g3
(I0
tp161
g5
tp162
Rp163
(I1
(I1
tp164
g12
I00
S'\xd7\xd5\xe7\xd4Zl\x90@'
p165
tp166
bag2
(g3
(I0
tp167
g5
tp168
Rp169
(I1
(I1
tp170
g12
I00
S'\x1c\\\x99\xfd\x9af\x90@'
p171
tp172
bag2
(g3
(I0
tp173
g5
tp174
Rp175
(I1
(I1
tp176
g12
I00
S'qM\xbc\xc2\xb9_\x90@'
p177
tp178
bag2
(g3
(I0
tp179
g5
tp180
Rp181
(I1
(I1
tp182
g12
I00
S'x\xf6vq\x91X\x90@'
p183
tp184
bag2
(g3
(I0
tp185
g5
tp186
Rp187
(I1
(I1
tp188
g12
I00
S'`\xc0d>WQ\x90@'
p189
tp190
bag2
(g3
(I0
tp191
g5
tp192
Rp193
(I1
(I1
tp194
g12
I00
S'\x07A?\x97\xd0I\x90@'
p195
tp196
bag2
(g3
(I0
tp197
g5
tp198
Rp199
(I1
(I1
tp200
g12
I00
S'h\xe3+\x90\x19B\x90@'
p201
tp202
bag2
(g3
(I0
tp203
g5
tp204
Rp205
(I1
(I1
tp206
g12
I00
S'N\x0eJ\xdc\x8b:\x90@'
p207
tp208
bag2
(g3
(I0
tp209
g5
tp210
Rp211
(I1
(I1
tp212
g12
I00
S'Ii4\xb0\xd22\x90@'
p213
tp214
bag2
(g3
(I0
tp215
g5
tp216
Rp217
(I1
(I1
tp218
g12
I00
S'\xaf\xbf\xb94\xa9,\x90@'
p219
tp220
bag2
(g3
(I0
tp221
g5
tp222
Rp223
(I1
(I1
tp224
g12
I00
S'\xdd\xf0$P"\'\x90@'
p225
tp226
bag2
(g3
(I0
tp227
g5
tp228
Rp229
(I1
(I1
tp230
g12
I00
S'\xad\xa6M\xdb\xcc"\x90@'
p231
tp232
bag2
(g3
(I0
tp233
g5
tp234
Rp235
(I1
(I1
tp236
g12
I00
S'\xb0\x88+\xf9\xfd\x1f\x90@'
p237
tp238
bag2
(g3
(I0
tp239
g5
tp240
Rp241
(I1
(I1
tp242
g12
I00
S'\xba\xbc\xce\x16\x07\x1c\x90@'
p243
tp244
bag2
(g3
(I0
tp245
g5
tp246
Rp247
(I1
(I1
tp248
g12
I00
S'E$@\x95D\x19\x90@'
p249
tp250
bag2
(g3
(I0
tp251
g5
tp252
Rp253
(I1
(I1
tp254
g12
I00
S'\xc6\xec\xd8~\x08\x18\x90@'
p255
tp256
bag2
(g3
(I0
tp257
g5
tp258
Rp259
(I1
(I1
tp260
g12
I00
S'\xe0\x15"\xa6\xa6\x15\x90@'
p261
tp262
bag2
(g3
(I0
tp263
g5
tp264
Rp265
(I1
(I1
tp266
g12
I00
S'\xe1\xacl\xe4|\x14\x90@'
p267
tp268
bag2
(g3
(I0
tp269
g5
tp270
Rp271
(I1
(I1
tp272
g12
I00
S'.\xa2\xb3\xb3y\x12\x90@'
p273
tp274
bag2
(g3
(I0
tp275
g5
tp276
Rp277
(I1
(I1
tp278
g12
I00
S'P\x80\x8a\x05\xaf\x11\x90@'
p279
tp280
bag2
(g3
(I0
tp281
g5
tp282
Rp283
(I1
(I1
tp284
g12
I00
S'J`\xa0\xb1\x08\x10\x90@'
p285
tp286
bag2
(g3
(I0
tp287
g5
tp288
Rp289
(I1
(I1
tp290
g12
I00
S'\xd4\xc0\x06\xa8\x9b\x0f\x90@'
p291
tp292
bag2
(g3
(I0
tp293
g5
tp294
Rp295
(I1
(I1
tp296
g12
I00
S'j\x9f\x97\xbb\t\x0e\x90@'
p297
tp298
bag2
(g3
(I0
tp299
g5
tp300
Rp301
(I1
(I1
tp302
g12
I00
S"pF\x14'\xf8\r\x90@"
p303
tp304
bag2
(g3
(I0
tp305
g5
tp306
Rp307
(I1
(I1
tp308
g12
I00
S'-\xe4>i\xc2\x0c\x90@'
p309
tp310
bag2
(g3
(I0
tp311
g5
tp312
Rp313
(I1
(I1
tp314
g12
I00
S'\\G\xcep\x0b\r\x90@'
p315
tp316
bag2
(g3
(I0
tp317
g5
tp318
Rp319
(I1
(I1
tp320
g12
I00
S'3o\xda\x910\x0c\x90@'
p321
tp322
bag2
(g3
(I0
tp323
g5
tp324
Rp325
(I1
(I1
tp326
g12
I00
S'|\x8e\x9d#\x90\x0c\x90@'
p327
tp328
bag2
(g3
(I0
tp329
g5
tp330
Rp331
(I1
(I1
tp332
g12
I00
S't\xab\x14<\x0f\x0c\x90@'
p333
tp334
bag2
(g3
(I0
tp335
g5
tp336
Rp337
(I1
(I1
tp338
g12
I00
S'\xe4\xbd\xbc,f\n\x90@'
p339
tp340
bag2
(g3
(I0
tp341
g5
tp342
Rp343
(I1
(I1
tp344
g12
I00
S'\xdc\xec\xa5h\xf8\t\x90@'
p345
tp346
bag2
(g3
(I0
tp347
g5
tp348
Rp349
(I1
(I1
tp350
g12
I00
S'\xe0pd\x92\t\x0b\x90@'
p351
tp352
bag2
(g3
(I0
tp353
g5
tp354
Rp355
(I1
(I1
tp356
g12
I00
S'!\xda\x92\x1a\x9e\r\x90@'
p357
tp358
bag2
(g3
(I0
tp359
g5
tp360
Rp361
(I1
(I1
tp362
g12
I00
S'\xab\x85\xfe\x92\x05\x0f\x90@'
p363
tp364
bag2
(g3
(I0
tp365
g5
tp366
Rp367
(I1
(I1
tp368
g12
I00
S'Q\t\x13CG\x0f\x90@'
p369
tp370
bag2
(g3
(I0
tp371
g5
tp372
Rp373
(I1
(I1
tp374
g12
I00
S'R\x85\xb0n_\x0e\x90@'
p375
tp376
bag2
(g3
(I0
tp377
g5
tp378
Rp379
(I1
(I1
tp380
g12
I00
S'\x16\xa4xb\x8e\x0c\x90@'
p381
tp382
bag2
(g3
(I0
tp383
g5
tp384
Rp385
(I1
(I1
tp386
g12
I00
S'W\xa493\x8f\t\x90@'
p387
tp388
bag2
(g3
(I0
tp389
g5
tp390
Rp391
(I1
(I1
tp392
g12
I00
S'\xfb\x07\xa8\x19\xa1\x05\x90@'
p393
tp394
bag2
(g3
(I0
tp395
g5
tp396
Rp397
(I1
(I1
tp398
g12
I00
S'e\x9d\xf3\xca\xb7\x00\x90@'
p399
tp400
bag2
(g3
(I0
tp401
g5
tp402
Rp403
(I1
(I1
tp404
g12
I00
S'n\xa9Q\x05\xec\xf6\x8f@'
p405
tp406
bag2
(g3
(I0
tp407
g5
tp408
Rp409
(I1
(I1
tp410
g12
I00
S',\x87\xd9\xc6\x85\xeb\x8f@'
p411
tp412
bag2
(g3
(I0
tp413
g5
tp414
Rp415
(I1
(I1
tp416
g12
I00
S'\xb7\xbc\x10g\\\xdf\x8f@'
p417
tp418
bag2
(g3
(I0
tp419
g5
tp420
Rp421
(I1
(I1
tp422
g12
I00
S'\x03\r\xba\x82\n\xd3\x8f@'
p423
tp424
bag2
(g3
(I0
tp425
g5
tp426
Rp427
(I1
(I1
tp428
g12
I00
S"_\xdc\xea+'\xc6\x8f@"
p429
tp430
bag2
(g3
(I0
tp431
g5
tp432
Rp433
(I1
(I1
tp434
g12
I00
S'.X\x80\\,\xb9\x8f@'
p435
tp436
bag2
(g3
(I0
tp437
g5
tp438
Rp439
(I1
(I1
tp440
g12
I00
S'\xb0g\xd3w\xb2\xab\x8f@'
p441
tp442
bag2
(g3
(I0
tp443
g5
tp444
Rp445
(I1
(I1
tp446
g12
I00
S'\x1a|\xfb\xcf&\x9e\x8f@'
p447
tp448
bag2
(g3
(I0
tp449
g5
tp450
Rp451
(I1
(I1
tp452
g12
I00
S'J\xfce\x7f*\x90\x8f@'
p453
tp454
bag2
(g3
(I0
tp455
g5
tp456
Rp457
(I1
(I1
tp458
g12
I00
S'<KH\x9f\xbc\x81\x8f@'
p459
tp460
bag2
(g3
(I0
tp461
g5
tp462
Rp463
(I1
(I1
tp464
g12
I00
S'L\xa0\x8f\x8b$v\x8f@'
p465
tp466
bag2
(g3
(I0
tp467
g5
tp468
Rp469
(I1
(I1
tp470
g12
I00
S'4\xb7@\xe4\xc6h\x8f@'
p471
tp472
bag2
(g3
(I0
tp473
g5
tp474
Rp475
(I1
(I1
tp476
g12
I00
S'#\x90\x0f\rxZ\x8f@'
p477
tp478
bag2
(g3
(I0
tp479
g5
tp480
Rp481
(I1
(I1
tp482
g12
I00
S'\xeb\xe4|\xf7\xe4K\x8f@'
p483
tp484
bag2
(g3
(I0
tp485
g5
tp486
Rp487
(I1
(I1
tp488
g12
I00
S'\x84\x7f\xce\x108=\x8f@'
p489
tp490
bag2
(g3
(I0
tp491
g5
tp492
Rp493
(I1
(I1
tp494
g12
I00
S'\x94\xbf\xf3\x130.\x8f@'
p495
tp496
bag2
(g3
(I0
tp497
g5
tp498
Rp499
(I1
(I1
tp500
g12
I00
S'\xfa}\xfd\x94\xc9\x1e\x8f@'
p501
tp502
bag2
(g3
(I0
tp503
g5
tp504
Rp505
(I1
(I1
tp506
g12
I00
S'1\x8a\x08Q\x13\x12\x8f@'
p507
tp508
bag2
(g3
(I0
tp509
g5
tp510
Rp511
(I1
(I1
tp512
g12
I00
S"\xcf'\xdaS\xab\x03\x8f@"
p513
tp514
bag2
(g3
(I0
tp515
g5
tp516
Rp517
(I1
(I1
tp518
g12
I00
S')\xda\xf6\x00\xdf\xf7\x8e@'
p519
tp520
bag2
(g3
(I0
tp521
g5
tp522
Rp523
(I1
(I1
tp524
g12
I00
S'q\xbf;\xbcj\xee\x8e@'
p525
tp526
bag2
(g3
(I0
tp527
g5
tp528
Rp529
(I1
(I1
tp530
g12
I00
S'\x8f\xdb\t\xc8\x8d\xe2\x8e@'
p531
tp532
bag2
(g3
(I0
tp533
g5
tp534
Rp535
(I1
(I1
tp536
g12
I00
S'\xe1x1p,\xd9\x8e@'
p537
tp538
bag2
(g3
(I0
tp539
g5
tp540
Rp541
(I1
(I1
tp542
g12
I00
S'\x1cV\x0e\xe9*\xd2\x8e@'
p543
tp544
bag2
(g3
(I0
tp545
g5
tp546
Rp547
(I1
(I1
tp548
g12
I00
S'\x89\xc37\x14\xbd\xc8\x8e@'
p549
tp550
bag2
(g3
(I0
tp551
g5
tp552
Rp553
(I1
(I1
tp554
g12
I00
S'tK\x1ca\xc7\xc1\x8e@'
p555
tp556
bag2
(g3
(I0
tp557
g5
tp558
Rp559
(I1
(I1
tp560
g12
I00
S'\x03k\x01\xcag\xb8\x8e@'
p561
tp562
bag2
(g3
(I0
tp563
g5
tp564
Rp565
(I1
(I1
tp566
g12
I00
S'\x06\x10p\xfda\xb1\x8e@'
p567
tp568
bag2
(g3
(I0
tp569
g5
tp570
Rp571
(I1
(I1
tp572
g12
I00
S'\x9e\x08\x88O\xce\xac\x8e@'
p573
tp574
bag2
(g3
(I0
tp575
g5
tp576
Rp577
(I1
(I1
tp578
g12
I00
S'\x10\xed\xad?\xd2\xa5\x8e@'
p579
tp580
bag2
(g3
(I0
tp581
g5
tp582
Rp583
(I1
(I1
tp584
g12
I00
S'\xd6S\x169N\xa1\x8e@'
p585
tp586
bag2
(g3
(I0
tp587
g5
tp588
Rp589
(I1
(I1
tp590
g12
I00
S']\xdc\x96\xa2q\x9a\x8e@'
p591
tp592
bag2
(g3
(I0
tp593
g5
tp594
Rp595
(I1
(I1
tp596
g12
I00
S'9\xf1\x1e\x7f`\x91\x8e@'
p597
tp598
bag2
(g3
(I0
tp599
g5
tp600
Rp601
(I1
(I1
tp602
g12
I00
S'.\xecW\x18\x12\x8b\x8e@'
p603
tp604
bag2
(g3
(I0
tp605
g5
tp606
Rp607
(I1
(I1
tp608
g12
I00
S"\xb1\xc4L'\x93\x82\x8e@"
p609
tp610
bag2
(g3
(I0
tp611
g5
tp612
Rp613
(I1
(I1
tp614
g12
I00
S';p"\x93\x85|\x8e@'
p615
tp616
bag2
(g3
(I0
tp617
g5
tp618
Rp619
(I1
(I1
tp620
g12
I00
S'7p\xdd\xb0{t\x8e@'
p621
tp622
bag2
(g3
(I0
tp623
g5
tp624
Rp625
(I1
(I1
tp626
g12
I00
S'\xe3V\x82\xeeoj\x8e@'
p627
tp628
bag2
(g3
(I0
tp629
g5
tp630
Rp631
(I1
(I1
tp632
g12
I00
S'\xb8\xdac\x9b\x85^\x8e@'
p633
tp634
bag2
(g3
(I0
tp635
g5
tp636
Rp637
(I1
(I1
tp638
g12
I00
S'\xf8\x01\x0b2\xceV\x8e@'
p639
tp640
bag2
(g3
(I0
tp641
g5
tp642
Rp643
(I1
(I1
tp644
g12
I00
S'![\x0f<\xc9Q\x8e@'
p645
tp646
bag2
(g3
(I0
tp647
g5
tp648
Rp649
(I1
(I1
tp650
g12
I00
S'\xfbR\xc2\x9dpJ\x8e@'
p651
tp652
bag2
(g3
(I0
tp653
g5
tp654
Rp655
(I1
(I1
tp656
g12
I00
S'7\xd9\x89\xe1\xcaB\x8e@'
p657
tp658
bag2
(g3
(I0
tp659
g5
tp660
Rp661
(I1
(I1
tp662
g12
I00
S'ub\xd9Rg9\x8e@'
p663
tp664
bag2
(g3
(I0
tp665
g5
tp666
Rp667
(I1
(I1
tp668
g12
I00
S'\xb2\x17\n\x8e\x13.\x8e@'
p669
tp670
bag2
(g3
(I0
tp671
g5
tp672
Rp673
(I1
(I1
tp674
g12
I00
S'k\xec\x19\x92{%\x8e@'
p675
tp676
bag2
(g3
(I0
tp677
g5
tp678
Rp679
(I1
(I1
tp680
g12
I00
S'^\xca\x89+7\x1c\x8e@'
p681
tp682
bag2
(g3
(I0
tp683
g5
tp684
Rp685
(I1
(I1
tp686
g12
I00
S'e\xde\xbe\xcaR\x15\x8e@'
p687
tp688
bag2
(g3
(I0
tp689
g5
tp690
Rp691
(I1
(I1
tp692
g12
I00
S'\xb9\xd2r@x\x0c\x8e@'
p693
tp694
bag2
(g3
(I0
tp695
g5
tp696
Rp697
(I1
(I1
tp698
g12
I00
S'\xa53Gmx\x01\x8e@'
p699
tp700
bag2
(g3
(I0
tp701
g5
tp702
Rp703
(I1
(I1
tp704
g12
I00
S'\xf4\x909\xf5<\xf9\x8d@'
p705
tp706
bag2
(g3
(I0
tp707
g5
tp708
Rp709
(I1
(I1
tp710
g12
I00
S'\x1d\r\x84\x1d\xc8\xee\x8d@'
p711
tp712
bag2
(g3
(I0
tp713
g5
tp714
Rp715
(I1
(I1
tp716
g12
I00
S'\x1d\xd8\x97?M\xe2\x8d@'
p717
tp718
bag2
(g3
(I0
tp719
g5
tp720
Rp721
(I1
(I1
tp722
g12
I00
S'\xd0\x9e\x99\xdb\x83\xd8\x8d@'
p723
tp724
bag2
(g3
(I0
tp725
g5
tp726
Rp727
(I1
(I1
tp728
g12
I00
S'G\x14\x12\x98\xa4\xcc\x8d@'
p729
tp730
bag2
(g3
(I0
tp731
g5
tp732
Rp733
(I1
(I1
tp734
g12
I00
S'\xeb\x91\xf0\\|\xc3\x8d@'
p735
tp736
bag2
(g3
(I0
tp737
g5
tp738
Rp739
(I1
(I1
tp740
g12
I00
S'\xa0g\xd0\x9f$\xb8\x8d@'
p741
tp742
bag2
(g3
(I0
tp743
g5
tp744
Rp745
(I1
(I1
tp746
g12
I00
S'\xfe<\\y\x15\xaf\x8d@'
p747
tp748
bag2
(g3
(I0
tp749
g5
tp750
Rp751
(I1
(I1
tp752
g12
I00
S'\x8e\x9e\xd3|0\xa4\x8d@'
p753
tp754
bag2
(g3
(I0
tp755
g5
tp756
Rp757
(I1
(I1
tp758
g12
I00
S'\xcd\xcaGuN\x97\x8d@'
p759
tp760
bag2
(g3
(I0
tp761
g5
tp762
Rp763
(I1
(I1
tp764
g12
I00
S'\x89\xdb\xaa2\x05\x8e\x8d@'
p765
tp766
bag2
(g3
(I0
tp767
g5
tp768
Rp769
(I1
(I1
tp770
g12
I00
S'\xa7\x7f\xc7,D\x87\x8d@'
p771
tp772
bag2
(g3
(I0
tp773
g5
tp774
Rp775
(I1
(I1
tp776
g12
I00
S'W8\\n4~\x8d@'
p777
tp778
bag2
(g3
(I0
tp779
g5
tp780
Rp781
(I1
(I1
tp782
g12
I00
S'\x00\xc3\x1f\xc7Xs\x8d@'
p783
tp784
bag2
(g3
(I0
tp785
g5
tp786
Rp787
(I1
(I1
tp788
g12
I00
S"\xfa'\xd1\x9ecf\x8d@"
p789
tp790
bag2
(g3
(I0
tp791
g5
tp792
Rp793
(I1
(I1
tp794
g12
I00
S'\xcc\x1a\xb5\x9c$\\\x8d@'
p795
tp796
bag2
(g3
(I0
tp797
g5
tp798
Rp799
(I1
(I1
tp800
g12
I00
S'\x06/:Y\xbcO\x8d@'
p801
tp802
bag2
(g3
(I0
tp803
g5
tp804
Rp805
(I1
(I1
tp806
g12
I00
S'\xcac\xe8\xa3\xfdA\x8d@'
p807
tp808
bag2
(g3
(I0
tp809
g5
tp810
Rp811
(I1
(I1
tp812
g12
I00
S'\x9e\xe3\xe2`\x922\x8d@'
p813
tp814
bag2
(g3
(I0
tp815
g5
tp816
Rp817
(I1
(I1
tp818
g12
I00
S'\xa9\x01;/\xd5%\x8d@'
p819
tp820
bag2
(g3
(I0
tp821
g5
tp822
Rp823
(I1
(I1
tp824
g12
I00
S'=Tf.7\x17\x8d@'
p825
tp826
bag2
(g3
(I0
tp827
g5
tp828
Rp829
(I1
(I1
tp830
g12
I00
S'\xcc\xa9d\xb6\x9b\n\x8d@'
p831
tp832
bag2
(g3
(I0
tp833
g5
tp834
Rp835
(I1
(I1
tp836
g12
I00
S'\x1dv\xba\xd7\x9a\x00\x8d@'
p837
tp838
bag2
(g3
(I0
tp839
g5
tp840
Rp841
(I1
(I1
tp842
g12
I00
S'\x8d=\xccZk\xf4\x8c@'
p843
tp844
bag2
(g3
(I0
tp845
g5
tp846
Rp847
(I1
(I1
tp848
g12
I00
S'^\x98\xbby\x1b\xe6\x8c@'
p849
tp850
bag2
(g3
(I0
tp851
g5
tp852
Rp853
(I1
(I1
tp854
g12
I00
S'\x01\x98{\xech\xda\x8c@'
p855
tp856
bag2
(g3
(I0
tp857
g5
tp858
Rp859
(I1
(I1
tp860
g12
I00
S'\x12V\xd8\x9e\xa1\xcc\x8c@'
p861
tp862
bag2
(g3
(I0
tp863
g5
tp864
Rp865
(I1
(I1
tp866
g12
I00
S'\xaf\x92\xdf5y\xc1\x8c@'
p867
tp868
bag2
(g3
(I0
tp869
g5
tp870
Rp871
(I1
(I1
tp872
g12
I00
S'\x02]t\xff/\xb4\x8c@'
p873
tp874
bag2
(g3
(I0
tp875
g5
tp876
Rp877
(I1
(I1
tp878
g12
I00
S'\xacL\x8bN\xea\xa4\x8c@'
p879
tp880
bag2
(g3
(I0
tp881
g5
tp882
Rp883
(I1
(I1
tp884
g12
I00
S'N\xf6!Y,\x98\x8c@'
p885
tp886
bag2
(g3
(I0
tp887
g5
tp888
Rp889
(I1
(I1
tp890
g12
I00
S'\x0c\xc6\xbd\x8f\x0f\x8e\x8c@'
p891
tp892
bag2
(g3
(I0
tp893
g5
tp894
Rp895
(I1
(I1
tp896
g12
I00
S'e\t\xd8\x06\xfa\x85\x8c@'
p897
tp898
bag2
(g3
(I0
tp899
g5
tp900
Rp901
(I1
(I1
tp902
g12
I00
S'A\x04\xfeA\xa7{\x8c@'
p903
tp904
bag2
(g3
(I0
tp905
g5
tp906
Rp907
(I1
(I1
tp908
g12
I00
S'Gn\x8c6As\x8c@'
p909
tp910
bag2
(g3
(I0
tp911
g5
tp912
Rp913
(I1
(I1
tp914
g12
I00
S'\xd5\x1fm\xd2\xc3l\x8c@'
p915
tp916
bag2
(g3
(I0
tp917
g5
tp918
Rp919
(I1
(I1
tp920
g12
I00
S'.1\xc6\x95\xffc\x8c@'
p921
tp922
bag2
(g3
(I0
tp923
g5
tp924
Rp925
(I1
(I1
tp926
g12
I00
S'\xa8\xdbX\x9a\t]\x8c@'
p927
tp928
bag2
(g3
(I0
tp929
g5
tp930
Rp931
(I1
(I1
tp932
g12
I00
S'\xcc\xa8\x04\x0fBX\x8c@'
p933
tp934
bag2
(g3
(I0
tp935
g5
tp936
Rp937
(I1
(I1
tp938
g12
I00
S's\xa7\xae\xd5!Q\x8c@'
p939
tp940
bag2
(g3
(I0
tp941
g5
tp942
Rp943
(I1
(I1
tp944
g12
I00
S'\xc2X\xe5\x0b\x17H\x8c@'
p945
tp946
bag2
(g3
(I0
tp947
g5
tp948
Rp949
(I1
(I1
tp950
g12
I00
S'hC\x9a\xb87=\x8c@'
p951
tp952
bag2
(g3
(I0
tp953
g5
tp954
Rp955
(I1
(I1
tp956
g12
I00
S'\x97\xa7\xfe\x03\x1b0\x8c@'
p957
tp958
bag2
(g3
(I0
tp959
g5
tp960
Rp961
(I1
(I1
tp962
g12
I00
S'\xf0\xeb\x9a\x82t%\x8c@'
p963
tp964
bag2
(g3
(I0
tp965
g5
tp966
Rp967
(I1
(I1
tp968
g12
I00
S"'5\xf6\xb0\xa9\x18\x8c@"
p969
tp970
bag2
(g3
(I0
tp971
g5
tp972
Rp973
(I1
(I1
tp974
g12
I00
S'\xbd\x0e\x9b!i\n\x8c@'
p975
tp976
bag2
(g3
(I0
tp977
g5
tp978
Rp979
(I1
(I1
tp980
g12
I00
S'\xbc\x12|\x8fY\xfa\x8b@'
p981
tp982
bag2
(g3
(I0
tp983
g5
tp984
Rp985
(I1
(I1
tp986
g12
I00
S'\xb2\xeet\xda\xc4\xec\x8b@'
p987
tp988
bag2
(g3
(I0
tp989
g5
tp990
Rp991
(I1
(I1
tp992
g12
I00
S'\xd3u5\xfaH\xdd\x8b@'
p993
tp994
bag2
(g3
(I0
tp995
g5
tp996
Rp997
(I1
(I1
tp998
g12
I00
S'\x1bw\xd8(O\xd0\x8b@'
p999
tp1000
bag2
(g3
(I0
tp1001
g5
tp1002
Rp1003
(I1
(I1
tp1004
g12
I00
S'\x88\xaf\t\x91U\xc1\x8b@'
p1005
tp1006
bag2
(g3
(I0
tp1007
g5
tp1008
Rp1009
(I1
(I1
tp1010
g12
I00
S'[a-\x04\xe6\xb4\x8b@'
p1011
tp1012
bag2
(g3
(I0
tp1013
g5
tp1014
Rp1015
(I1
(I1
tp1016
g12
I00
S'\xa8\x14\xdd\xb8p\xa6\x8b@'
p1017
tp1018
bag2
(g3
(I0
tp1019
g5
tp1020
Rp1021
(I1
(I1
tp1022
g12
I00
S'5\x1b\xf0\xdf\x17\x96\x8b@'
p1023
tp1024
bag2
(g3
(I0
tp1025
g5
tp1026
Rp1027
(I1
(I1
tp1028
g12
I00
S'"\xd67gl\x87\x8b@'
p1029
tp1030
bag2
(g3
(I0
tp1031
g5
tp1032
Rp1033
(I1
(I1
tp1034
g12
I00
S'\x1a\xcb\xa1\x10|z\x8b@'
p1035
tp1036
bag2
(g3
(I0
tp1037
g5
tp1038
Rp1039
(I1
(I1
tp1040
g12
I00
S'\xe3\xbf\xe2\xc8Ro\x8b@'
p1041
tp1042
bag2
(g3
(I0
tp1043
g5
tp1044
Rp1045
(I1
(I1
tp1046
g12
I00
S'\x98\xf6n\xba\xf1e\x8b@'
p1047
tp1048
bag2
(g3
(I0
tp1049
g5
tp1050
Rp1051
(I1
(I1
tp1052
g12
I00
S'[\xc4W\xfcA^\x8b@'
p1053
tp1054
bag2
(g3
(I0
tp1055
g5
tp1056
Rp1057
(I1
(I1
tp1058
g12
I00
S'\xc6\xda,.\x1bX\x8b@'
p1059
tp1060
bag2
(g3
(I0
tp1061
g5
tp1062
Rp1063
(I1
(I1
tp1064
g12
I00
S'"\x00\\\x86\xa8S\x8b@'
p1065
tp1066
bag2
(g3
(I0
tp1067
g5
tp1068
Rp1069
(I1
(I1
tp1070
g12
I00
S'|\xdbh\x16\x8dP\x8b@'
p1071
tp1072
bag2
(g3
(I0
tp1073
g5
tp1074
Rp1075
(I1
(I1
tp1076
g12
I00
S'M\x19.r6N\x8b@'
p1077
tp1078
bag2
(g3
(I0
tp1079
g5
tp1080
Rp1081
(I1
(I1
tp1082
g12
I00
S'\xa3\xb8\x0b\xeb\x9cI\x8b@'
p1083
tp1084
bag2
(g3
(I0
tp1085
g5
tp1086
Rp1087
(I1
(I1
tp1088
g12
I00
S'\x18\xf0\xa0\xea|F\x8b@'
p1089
tp1090
bag2
(g3
(I0
tp1091
g5
tp1092
Rp1093
(I1
(I1
tp1094
g12
I00
S'-\xb1t\xab\x85A\x8b@'
p1095
tp1096
bag2
(g3
(I0
tp1097
g5
tp1098
Rp1099
(I1
(I1
tp1100
g12
I00
S'[\x16I\xbdR:\x8b@'
p1101
tp1102
bag2
(g3
(I0
tp1103
g5
tp1104
Rp1105
(I1
(I1
tp1106
g12
I00
S'F\xc2.\x82m1\x8b@'
p1107
tp1108
bag2
(g3
(I0
tp1109
g5
tp1110
Rp1111
(I1
(I1
tp1112
g12
I00
S'@\x16\r\xb1\xcb&\x8b@'
p1113
tp1114
bag2
(g3
(I0
tp1115
g5
tp1116
Rp1117
(I1
(I1
tp1118
g12
I00
S'\xfau5\xa5\xe7\x19\x8b@'
p1119
tp1120
bag2
(g3
(I0
tp1121
g5
tp1122
Rp1123
(I1
(I1
tp1124
g12
I00
S'di\xb7|\\\x0b\x8b@'
p1125
tp1126
bag2
(g3
(I0
tp1127
g5
tp1128
Rp1129
(I1
(I1
tp1130
g12
I00
S'\xaf\xc4\xc2\xf3\xba\xfa\x8a@'
p1131
tp1132
bag2
(g3
(I0
tp1133
g5
tp1134
Rp1135
(I1
(I1
tp1136
g12
I00
S'\xa7\xff1kN\xec\x8a@'
p1137
tp1138
bag2
(g3
(I0
tp1139
g5
tp1140
Rp1141
(I1
(I1
tp1142
g12
I00
S'7;\x86\xe3\x02\xdc\x8a@'
p1143
tp1144
bag2
(g3
(I0
tp1145
g5
tp1146
Rp1147
(I1
(I1
tp1148
g12
I00
S'\xa0\xe8\xfd\x7f\x17\xca\x8a@'
p1149
tp1150
bag2
(g3
(I0
tp1151
g5
tp1152
Rp1153
(I1
(I1
tp1154
g12
I00
S'\x1d>Q+\xb4\xb9\x8a@'
p1155
tp1156
bag2
(g3
(I0
tp1157
g5
tp1158
Rp1159
(I1
(I1
tp1160
g12
I00
S'\x83\x81\x8b\xe8\xe2\xaa\x8a@'
p1161
tp1162
bag2
(g3
(I0
tp1163
g5
tp1164
Rp1165
(I1
(I1
tp1166
g12
I00
S'(\xecI\xd0\xbb\x9d\x8a@'
p1167
tp1168
bag2
(g3
(I0
tp1169
g5
tp1170
Rp1171
(I1
(I1
tp1172
g12
I00
S'j\x00\x9b\xecC\x92\x8a@'
p1173
tp1174
bag2
(g3
(I0
tp1175
g5
tp1176
Rp1177
(I1
(I1
tp1178
g12
I00
S'\xdb%p\xbco\x88\x8a@'
p1179
tp1180
bag2
(g3
(I0
tp1181
g5
tp1182
Rp1183
(I1
(I1
tp1184
g12
I00
S'\x84\x89\x08A\xa9\x80\x8a@'
p1185
tp1186
bag2
(g3
(I0
tp1187
g5
tp1188
Rp1189
(I1
(I1
tp1190
g12
I00
S'\xc9w\xbbq+z\x8a@'
p1191
tp1192
bag2
(g3
(I0
tp1193
g5
tp1194
Rp1195
(I1
(I1
tp1196
g12
I00
S'\xd5\xdc\xbe\x089u\x8a@'
p1197
tp1198
bag2
(g3
(I0
tp1199
g5
tp1200
Rp1201
(I1
(I1
tp1202
g12
I00
S'?7\xd8)8q\x8a@'
p1203
tp1204
bag2
(g3
(I0
tp1205
g5
tp1206
Rp1207
(I1
(I1
tp1208
g12
I00
S'\x96\xfeD\xe3Hn\x8a@'
p1209
tp1210
bag2
(g3
(I0
tp1211
g5
tp1212
Rp1213
(I1
(I1
tp1214
g12
I00
S';\xdao\xf6\x0ci\x8a@'
p1215
tp1216
bag2
(g3
(I0
tp1217
g5
tp1218
Rp1219
(I1
(I1
tp1220
g12
I00
S'\x9d\xb6:\xbeVb\x8a@'
p1221
tp1222
bag2
(g3
(I0
tp1223
g5
tp1224
Rp1225
(I1
(I1
tp1226
g12
I00
S'\x02\x0b\x82?wY\x8a@'
p1227
tp1228
bag2
(g3
(I0
tp1229
g5
tp1230
Rp1231
(I1
(I1
tp1232
g12
I00
S'\x86\x91\xe8\x83\x0bO\x8a@'
p1233
tp1234
bag2
(g3
(I0
tp1235
g5
tp1236
Rp1237
(I1
(I1
tp1238
g12
I00
S'p\xae\xcfm(C\x8a@'
p1239
tp1240
bag2
(g3
(I0
tp1241
g5
tp1242
Rp1243
(I1
(I1
tp1244
g12
I00
S'\xd0u\x13\xc9\n5\x8a@'
p1245
tp1246
bag2
(g3
(I0
tp1247
g5
tp1248
Rp1249
(I1
(I1
tp1250
g12
I00
S'\x93IX\x87\xb7(\x8a@'
p1251
tp1252
bag2
(g3
(I0
tp1253
g5
tp1254
Rp1255
(I1
(I1
tp1256
g12
I00
S'&\xd0\x7f\xa1\x8e\x1e\x8a@'
p1257
tp1258
bag2
(g3
(I0
tp1259
g5
tp1260
Rp1261
(I1
(I1
tp1262
g12
I00
S'Oa\xed\xd6\xf4\x15\x8a@'
p1263
tp1264
bag2
(g3
(I0
tp1265
g5
tp1266
Rp1267
(I1
(I1
tp1268
g12
I00
S',\xca\xce\x98-\x0b\x8a@'
p1269
tp1270
bag2
(g3
(I0
tp1271
g5
tp1272
Rp1273
(I1
(I1
tp1274
g12
I00
S'g\x01\xc9\xad*\xfe\x89@'
p1275
tp1276
bag2
(g3
(I0
tp1277
g5
tp1278
Rp1279
(I1
(I1
tp1280
g12
I00
S'\x0c\xfex\x86\xb8\xf2\x89@'
p1281
tp1282
bag2
(g3
(I0
tp1283
g5
tp1284
Rp1285
(I1
(I1
tp1286
g12
I00
S'\xb9\xca\xb3r%\xe5\x89@'
p1287
tp1288
bag2
(g3
(I0
tp1289
g5
tp1290
Rp1291
(I1
(I1
tp1292
g12
I00
S'\r\xa0e\x89m\xd5\x89@'
p1293
tp1294
bag2
(g3
(I0
tp1295
g5
tp1296
Rp1297
(I1
(I1
tp1298
g12
I00
S"4'\xaf:L\xc7\x89@"
p1299
tp1300
bag2
(g3
(I0
tp1301
g5
tp1302
Rp1303
(I1
(I1
tp1304
g12
I00
S'\xafi_H\xde\xba\x89@'
p1305
tp1306
bag2
(g3
(I0
tp1307
g5
tp1308
Rp1309
(I1
(I1
tp1310
g12
I00
S'\xaa\xdd\x9f\xc7\x15\xb0\x89@'
p1311
tp1312
bag2
(g3
(I0
tp1313
g5
tp1314
Rp1315
(I1
(I1
tp1316
g12
I00
S'\xaf\x92/\x85\xd1\xa6\x89@'
p1317
tp1318
bag2
(g3
(I0
tp1319
g5
tp1320
Rp1321
(I1
(I1
tp1322
g12
I00
S's\xa9\xe16\xec\x9e\x89@'
p1323
tp1324
bag2
(g3
(I0
tp1325
g5
tp1326
Rp1327
(I1
(I1
tp1328
g12
I00
S'm\x1d\x92\xc9L\x98\x89@'
p1329
tp1330
bag2
(g3
(I0
tp1331
g5
tp1332
Rp1333
(I1
(I1
tp1334
g12
I00
S'\xcd\xdaq\x98]\x93\x89@'
p1335
tp1336
bag2
(g3
(I0
tp1337
g5
tp1338
Rp1339
(I1
(I1
tp1340
g12
I00
S'P\x12\xce\x13\xc1\x8f\x89@'
p1341
tp1342
bag2
(g3
(I0
tp1343
g5
tp1344
Rp1345
(I1
(I1
tp1346
g12
I00
S'pI\xa8\xb1}\x8c\x89@'
p1347
tp1348
bag2
(g3
(I0
tp1349
g5
tp1350
Rp1351
(I1
(I1
tp1352
g12
I00
S'\x96&\xb4\xb9<\x8a\x89@'
p1353
tp1354
bag2
(g3
(I0
tp1355
g5
tp1356
Rp1357
(I1
(I1
tp1358
g12
I00
S'\xd1\xe8\xd9/\xc3\x88\x89@'
p1359
tp1360
bag2
(g3
(I0
tp1361
g5
tp1362
Rp1363
(I1
(I1
tp1364
g12
I00
S'\x02\x13\x08\xed\xcc\x84\x89@'
p1365
tp1366
bag2
(g3
(I0
tp1367
g5
tp1368
Rp1369
(I1
(I1
tp1370
g12
I00
S'\xb3U\xde\x11g\x82\x89@'
p1371
tp1372
bag2
(g3
(I0
tp1373
g5
tp1374
Rp1375
(I1
(I1
tp1376
g12
I00
S'\x1b+\xdc\xc3\x9d}\x89@'
p1377
tp1378
bag2
(g3
(I0
tp1379
g5
tp1380
Rp1381
(I1
(I1
tp1382
g12
I00
S'\xb3\xb9I\xbe\x91w\x89@'
p1383
tp1384
bag2
(g3
(I0
tp1385
g5
tp1386
Rp1387
(I1
(I1
tp1388
g12
I00
S'\xc6G\t\xa7$o\x89@'
p1389
tp1390
bag2
(g3
(I0
tp1391
g5
tp1392
Rp1393
(I1
(I1
tp1394
g12
I00
S'\x02\xa6\xc5\xa3ke\x89@'
p1395
tp1396
bag2
(g3
(I0
tp1397
g5
tp1398
Rp1399
(I1
(I1
tp1400
g12
I00
S'\x00cs\x0b]Z\x89@'
p1401
tp1402
bag2
(g3
(I0
tp1403
g5
tp1404
Rp1405
(I1
(I1
tp1406
g12
I00
S'+IO\x93\xecL\x89@'
p1407
tp1408
bag2
(g3
(I0
tp1409
g5
tp1410
Rp1411
(I1
(I1
tp1412
g12
I00
S'{\xbc\xfc\xd1\xa5A\x89@'
p1413
tp1414
bag2
(g3
(I0
tp1415
g5
tp1416
Rp1417
(I1
(I1
tp1418
g12
I00
S'\x92fn\x96\xf33\x89@'
p1419
tp1420
bag2
(g3
(I0
tp1421
g5
tp1422
Rp1423
(I1
(I1
tp1424
g12
I00
S'\xc0\xd4\xa6\xc2\x01%\x89@'
p1425
tp1426
bag2
(g3
(I0
tp1427
g5
tp1428
Rp1429
(I1
(I1
tp1430
g12
I00
S'\x91\xe5R\x8c\xdb\x13\x89@'
p1431
tp1432
bag2
(g3
(I0
tp1433
g5
tp1434
Rp1435
(I1
(I1
tp1436
g12
I00
S'[\xfd\xe65M\x01\x89@'
p1437
tp1438
bag2
(g3
(I0
tp1439
g5
tp1440
Rp1441
(I1
(I1
tp1442
g12
I00
S'x\xfe\x0c\x1c\x13\xf0\x88@'
p1443
tp1444
bag2
(g3
(I0
tp1445
g5
tp1446
Rp1447
(I1
(I1
tp1448
g12
I00
S'.\xbd\xa8\xf1\xe8\xdf\x88@'
p1449
tp1450
bag2
(g3
(I0
tp1451
g5
tp1452
Rp1453
(I1
(I1
tp1454
g12
I00
S'u\xe2]\xfdO\xd1\x88@'
p1455
tp1456
bag2
(g3
(I0
tp1457
g5
tp1458
Rp1459
(I1
(I1
tp1460
g12
I00
S'\xe0\xc9\x0b7v\xc4\x88@'
p1461
tp1462
bag2
(g3
(I0
tp1463
g5
tp1464
Rp1465
(I1
(I1
tp1466
g12
I00
S'\xdf\xbab\xebU\xb9\x88@'
p1467
tp1468
bag2
(g3
(I0
tp1469
g5
tp1470
Rp1471
(I1
(I1
tp1472
g12
I00
S'\x0f\xaf\x87P\xcc\xb0\x88@'
p1473
tp1474
bag2
(g3
(I0
tp1475
g5
tp1476
Rp1477
(I1
(I1
tp1478
g12
I00
S'Fv\x84\xb7~\xa9\x88@'
p1479
tp1480
bag2
(g3
(I0
tp1481
g5
tp1482
Rp1483
(I1
(I1
tp1484
g12
I00
S'\xde\x0f\x92\x9d@\xa4\x88@'
p1485
tp1486
bag2
(g3
(I0
tp1487
g5
tp1488
Rp1489
(I1
(I1
tp1490
g12
I00
S'\xbc\xc4\x9eL\x97\x9c\x88@'
p1491
tp1492
bag2
(g3
(I0
tp1493
g5
tp1494
Rp1495
(I1
(I1
tp1496
g12
I00
S'\x90d\xe8#\xca\x93\x88@'
p1497
tp1498
bag2
(g3
(I0
tp1499
g5
tp1500
Rp1501
(I1
(I1
tp1502
g12
I00
S'+\xc5\x0f\xae\xda\x89\x88@'
p1503
tp1504
bag2
(g3
(I0
tp1505
g5
tp1506
Rp1507
(I1
(I1
tp1508
g12
I00
S'\xdeV6\x88\xed\x80\x88@'
p1509
tp1510
bag2
(g3
(I0
tp1511
g5
tp1512
Rp1513
(I1
(I1
tp1514
g12
I00
S'\x90_\xc81`y\x88@'
p1515
tp1516
bag2
(g3
(I0
tp1517
g5
tp1518
Rp1519
(I1
(I1
tp1520
g12
I00
S'\xe4\xaf\\\xd1so\x88@'
p1521
tp1522
bag2
(g3
(I0
tp1523
g5
tp1524
Rp1525
(I1
(I1
tp1526
g12
I00
S'q>\x88k\x13c\x88@'
p1527
tp1528
bag2
(g3
(I0
tp1529
g5
tp1530
Rp1531
(I1
(I1
tp1532
g12
I00
S'(\xd7\x13<YX\x88@'
p1533
tp1534
bag2
(g3
(I0
tp1535
g5
tp1536
Rp1537
(I1
(I1
tp1538
g12
I00
S'U\x97\xee}SO\x88@'
p1539
tp1540
bag2
(g3
(I0
tp1541
g5
tp1542
Rp1543
(I1
(I1
tp1544
g12
I00
S'.\x8e\x80\x96\xbaG\x88@'
p1545
tp1546
bag2
(g3
(I0
tp1547
g5
tp1548
Rp1549
(I1
(I1
tp1550
g12
I00
S'\xf1\xf6m\xb1NA\x88@'
p1551
tp1552
bag2
(g3
(I0
tp1553
g5
tp1554
Rp1555
(I1
(I1
tp1556
g12
I00
S'\x10\xd1\xb2\xd0\xcf;\x88@'
p1557
tp1558
bag2
(g3
(I0
tp1559
g5
tp1560
Rp1561
(I1
(I1
tp1562
g12
I00
S'hx\x8f\xc6\x107\x88@'
p1563
tp1564
bag2
(g3
(I0
tp1565
g5
tp1566
Rp1567
(I1
(I1
tp1568
g12
I00
S'A\xf1\x07\xf8\xed2\x88@'
p1569
tp1570
bag2
(g3
(I0
tp1571
g5
tp1572
Rp1573
(I1
(I1
tp1574
g12
I00
S'h4A\xd6{0\x88@'
p1575
tp1576
bag2
(g3
(I0
tp1577
g5
tp1578
Rp1579
(I1
(I1
tp1580
g12
I00
S'\xc0?\xe4\x8f`/\x88@'
p1581
tp1582
bag2
(g3
(I0
tp1583
g5
tp1584
Rp1585
(I1
(I1
tp1586
g12
I00
S'\xf4\xcfR\x93d+\x88@'
p1587
tp1588
bag2
(g3
(I0
tp1589
g5
tp1590
Rp1591
(I1
(I1
tp1592
g12
I00
S'\x7f\x86\xc1\x8b?&\x88@'
p1593
tp1594
bag2
(g3
(I0
tp1595
g5
tp1596
Rp1597
(I1
(I1
tp1598
g12
I00
S'\xad\xec\xde\xce\xd9\x1f\x88@'
p1599
tp1600
bag2
(g3
(I0
tp1601
g5
tp1602
Rp1603
(I1
(I1
tp1604
g12
I00
S'\x0cN\xf8\xd45\x18\x88@'
p1605
tp1606
bag2
(g3
(I0
tp1607
g5
tp1608
Rp1609
(I1
(I1
tp1610
g12
I00
S'hd, I\x0f\x88@'
p1611
tp1612
bag2
(g3
(I0
tp1613
g5
tp1614
Rp1615
(I1
(I1
tp1616
g12
I00
S'\x91P\x13\xb5\x19\x05\x88@'
p1617
tp1618
bag2
(g3
(I0
tp1619
g5
tp1620
Rp1621
(I1
(I1
tp1622
g12
I00
S'\xcb\xd9Ce1\xf8\x87@'
p1623
tp1624
bag2
(g3
(I0
tp1625
g5
tp1626
Rp1627
(I1
(I1
tp1628
g12
I00
S'9\xa4Z\x95\x03\xee\x87@'
p1629
tp1630
bag2
(g3
(I0
tp1631
g5
tp1632
Rp1633
(I1
(I1
tp1634
g12
I00
S".'\xca\xe0\x1f\xe1\x87@"
p1635
tp1636
bag2
(g3
(I0
tp1637
g5
tp1638
Rp1639
(I1
(I1
tp1640
g12
I00
S'\x03\xf2\x04K\xfa\xd2\x87@'
p1641
tp1642
bag2
(g3
(I0
tp1643
g5
tp1644
Rp1645
(I1
(I1
tp1646
g12
I00
S'\xeb\xc3E\xae\x9a\xc7\x87@'
p1647
tp1648
bag2
(g3
(I0
tp1649
g5
tp1650
Rp1651
(I1
(I1
tp1652
g12
I00
S'\x84}\xe0\xbc\x13\xbf\x87@'
p1653
tp1654
bag2
(g3
(I0
tp1655
g5
tp1656
Rp1657
(I1
(I1
tp1658
g12
I00
S'\xa1E\xc1\x19\x04\xb8\x87@'
p1659
tp1660
bag2
(g3
(I0
tp1661
g5
tp1662
Rp1663
(I1
(I1
tp1664
g12
I00
S'\x96\xfb\xf1\x00\x9a\xb2\x87@'
p1665
tp1666
bag2
(g3
(I0
tp1667
g5
tp1668
Rp1669
(I1
(I1
tp1670
g12
I00
S'\x85.\xe8\x19}\xaf\x87@'
p1671
tp1672
bag2
(g3
(I0
tp1673
g5
tp1674
Rp1675
(I1
(I1
tp1676
g12
I00
S'\x04Z\x88\xb9\xb5\xae\x87@'
p1677
tp1678
bag2
(g3
(I0
tp1679
g5
tp1680
Rp1681
(I1
(I1
tp1682
g12
I00
S'\xde\xd9"\x8c\xfc\xaf\x87@'
p1683
tp1684
bag2
(g3
(I0
tp1685
g5
tp1686
Rp1687
(I1
(I1
tp1688
g12
I00
S'\xb5PCe$\xae\x87@'
p1689
tp1690
bag2
(g3
(I0
tp1691
g5
tp1692
Rp1693
(I1
(I1
tp1694
g12
I00
S'\x06\xde\x1b\xdf)\xa9\x87@'
p1695
tp1696
bag2
(g3
(I0
tp1697
g5
tp1698
Rp1699
(I1
(I1
tp1700
g12
I00
S'\xb8\x07\xd3\x91\x9b\xa6\x87@'
p1701
tp1702
bag2
(g3
(I0
tp1703
g5
tp1704
Rp1705
(I1
(I1
tp1706
g12
I00
S'\xa1<\xf9\xad\x9e\xa6\x87@'
p1707
tp1708
bag2
(g3
(I0
tp1709
g5
tp1710
Rp1711
(I1
(I1
tp1712
g12
I00
S'\x1a\x12e\xd0\xb8\xa8\x87@'
p1713
tp1714
bag2
(g3
(I0
tp1715
g5
tp1716
Rp1717
(I1
(I1
tp1718
g12
I00
S'\x86]\xa9}s\xac\x87@'
p1719
tp1720
bag2
(g3
(I0
tp1721
g5
tp1722
Rp1723
(I1
(I1
tp1724
g12
I00
S'4\xeb\x0b>p\xb1\x87@'
p1725
tp1726
bag2
(g3
(I0
tp1727
g5
tp1728
Rp1729
(I1
(I1
tp1730
g12
I00
S'\x17U$\xd3i\xb7\x87@'
p1731
tp1732
bag2
(g3
(I0
tp1733
g5
tp1734
Rp1735
(I1
(I1
tp1736
g12
I00
S'\xfcR\xf5\xa8;\xbe\x87@'
p1737
tp1738
bag2
(g3
(I0
tp1739
g5
tp1740
Rp1741
(I1
(I1
tp1742
g12
I00
S'\xf2\xa7\xce\x05\x8e\xc1\x87@'
p1743
tp1744
bag2
(g3
(I0
tp1745
g5
tp1746
Rp1747
(I1
(I1
tp1748
g12
I00
S'`\x91\xde\xf7\n\xc7\x87@'
p1749
tp1750
bag2
(g3
(I0
tp1751
g5
tp1752
Rp1753
(I1
(I1
tp1754
g12
I00
S'\xa6\x83\x9c\x10\x87\xc9\x87@'
p1755
tp1756
bag2
(g3
(I0
tp1757
g5
tp1758
Rp1759
(I1
(I1
tp1760
g12
I00
S'2|\xdb\xa5/\xc9\x87@'
p1761
tp1762
bag2
(g3
(I0
tp1763
g5
tp1764
Rp1765
(I1
(I1
tp1766
g12
I00
S'Ab\x18x$\xc6\x87@'
p1767
tp1768
bag2
(g3
(I0
tp1769
g5
tp1770
Rp1771
(I1
(I1
tp1772
g12
I00
S'\xf6\xe2\x8a\x85\xe1\xc5\x87@'
p1773
tp1774
bag2
(g3
(I0
tp1775
g5
tp1776
Rp1777
(I1
(I1
tp1778
g12
I00
S'\xf4\xf3d\xcf<\xc3\x87@'
p1779
tp1780
bag2
(g3
(I0
tp1781
g5
tp1782
Rp1783
(I1
(I1
tp1784
g12
I00
S'\r\xb5}\x84\xb0\xbe\x87@'
p1785
tp1786
bag2
(g3
(I0
tp1787
g5
tp1788
Rp1789
(I1
(I1
tp1790
g12
I00
S'\xa2\x18}\xb9\xba\xb8\x87@'
p1791
tp1792
bag2
(g3
(I0
tp1793
g5
tp1794
Rp1795
(I1
(I1
tp1796
g12
I00
S'\xac\xcf\xb0\r\xf8\xb5\x87@'
p1797
tp1798
bag2
(g3
(I0
tp1799
g5
tp1800
Rp1801
(I1
(I1
tp1802
g12
I00
S'a\xa4\x86o\x95\xb1\x87@'
p1803
tp1804
bag2
(g3
(I0
tp1805
g5
tp1806
Rp1807
(I1
(I1
tp1808
g12
I00
S'\xdd\t\x80\xe4\x04\xac\x87@'
p1809
tp1810
bag2
(g3
(I0
tp1811
g5
tp1812
Rp1813
(I1
(I1
tp1814
g12
I00
S'HD\xb4\xde\x9f\xa9\x87@'
p1815
tp1816
bag2
(g3
(I0
tp1817
g5
tp1818
Rp1819
(I1
(I1
tp1820
g12
I00
S'x\xff\xed\xe2\xaa\xa5\x87@'
p1821
tp1822
bag2
(g3
(I0
tp1823
g5
tp1824
Rp1825
(I1
(I1
tp1826
g12
I00
S'\xfc\xacW\xb8\x92\xa0\x87@'
p1827
tp1828
bag2
(g3
(I0
tp1829
g5
tp1830
Rp1831
(I1
(I1
tp1832
g12
I00
S'\xe2\x0bc\xb4\x95\x9e\x87@'
p1833
tp1834
bag2
(g3
(I0
tp1835
g5
tp1836
Rp1837
(I1
(I1
tp1838
g12
I00
S'C\xae\xfbf\x0c\x9b\x87@'
p1839
tp1840
bag2
(g3
(I0
tp1841
g5
tp1842
Rp1843
(I1
(I1
tp1844
g12
I00
S'\x14\xd4"d`\x96\x87@'
p1845
tp1846
bag2
(g3
(I0
tp1847
g5
tp1848
Rp1849
(I1
(I1
tp1850
g12
I00
S'[\x819\xd0\xbf\x94\x87@'
p1851
tp1852
bag2
(g3
(I0
tp1853
g5
tp1854
Rp1855
(I1
(I1
tp1856
g12
I00
S'\x92\x89\xacw\x92\x91\x87@'
p1857
tp1858
bag2
(g3
(I0
tp1859
g5
tp1860
Rp1861
(I1
(I1
tp1862
g12
I00
S'QW\xfe}B\x8d\x87@'
p1863
tp1864
bag2
(g3
(I0
tp1865
g5
tp1866
Rp1867
(I1
(I1
tp1868
g12
I00
S'*"\xf0 \xef\x8b\x87@'
p1869
tp1870
bag2
(g3
(I0
tp1871
g5
tp1872
Rp1873
(I1
(I1
tp1874
g12
I00
S'\xb2\xdb\xb9\xe3\x0e\x89\x87@'
p1875
tp1876
bag2
(g3
(I0
tp1877
g5
tp1878
Rp1879
(I1
(I1
tp1880
g12
I00
S'\xad\xf0\xe3\x9c\x0b\x85\x87@'
p1881
tp1882
bag2
(g3
(I0
tp1883
g5
tp1884
Rp1885
(I1
(I1
tp1886
g12
I00
S'\x97\xf9\xe1\xa0\xf7\x83\x87@'
p1887
tp1888
bag2
(g3
(I0
tp1889
g5
tp1890
Rp1891
(I1
(I1
tp1892
g12
I00
S'\xc9\xe8\x8b\xaaW\x81\x87@'
p1893
tp1894
bag2
(g3
(I0
tp1895
g5
tp1896
Rp1897
(I1
(I1
tp1898
g12
I00
S'\xd9Xj\xa4\x94}\x87@'
p1899
tp1900
bag2
(g3
(I0
tp1901
g5
tp1902
Rp1903
(I1
(I1
tp1904
g12
I00
S'$\xf6\xc6\xe1\xb5|\x87@'
p1905
tp1906
bag2
(g3
(I0
tp1907
g5
tp1908
Rp1909
(I1
(I1
tp1910
g12
I00
S'\xd9,9z\x05y\x87@'
p1911
tp1912
bag2
(g3
(I0
tp1913
g5
tp1914
Rp1915
(I1
(I1
tp1916
g12
I00
S'\xe6D\x87\xea\x86r\x87@'
p1917
tp1918
bag2
(g3
(I0
tp1919
g5
tp1920
Rp1921
(I1
(I1
tp1922
g12
I00
S']a=\xc6\x19n\x87@'
p1923
tp1924
bag2
(g3
(I0
tp1925
g5
tp1926
Rp1927
(I1
(I1
tp1928
g12
I00
S'J\xc7\x13d\xc4k\x87@'
p1929
tp1930
bag2
(g3
(I0
tp1931
g5
tp1932
Rp1933
(I1
(I1
tp1934
g12
I00
S'^\x95D\xf7\x9cf\x87@'
p1935
tp1936
bag2
(g3
(I0
tp1937
g5
tp1938
Rp1939
(I1
(I1
tp1940
g12
I00
S'\xef|o\xc6\xad^\x87@'
p1941
tp1942
bag2
(g3
(I0
tp1943
g5
tp1944
Rp1945
(I1
(I1
tp1946
g12
I00
S'{\xf5\xbca\xcfX\x87@'
p1947
tp1948
bag2
(g3
(I0
tp1949
g5
tp1950
Rp1951
(I1
(I1
tp1952
g12
I00
S'+\x93\x95G%P\x87@'
p1953
tp1954
bag2
(g3
(I0
tp1955
g5
tp1956
Rp1957
(I1
(I1
tp1958
g12
I00
S'\x8a\x07.I\x95I\x87@'
p1959
tp1960
bag2
(g3
(I0
tp1961
g5
tp1962
Rp1963
(I1
(I1
tp1964
g12
I00
S'\x01\x1c\x1a\xbc7@\x87@'
p1965
tp1966
bag2
(g3
(I0
tp1967
g5
tp1968
Rp1969
(I1
(I1
tp1970
g12
I00
S'.\xe7`k\xa49\x87@'
p1971
tp1972
bag2
(g3
(I0
tp1973
g5
tp1974
Rp1975
(I1
(I1
tp1976
g12
I00
S'J\x04~XB0\x87@'
p1977
tp1978
bag2
(g3
(I0
tp1979
g5
tp1980
Rp1981
(I1
(I1
tp1982
g12
I00
S'\xe9\xecJu\xbd$\x87@'
p1983
tp1984
bag2
(g3
(I0
tp1985
g5
tp1986
Rp1987
(I1
(I1
tp1988
g12
I00
S'\xa8\x9c\xe2\xc0\x05\x1c\x87@'
p1989
tp1990
bag2
(g3
(I0
tp1991
g5
tp1992
Rp1993
(I1
(I1
tp1994
g12
I00
S'A\xef\xd1L\x7f\x10\x87@'
p1995
tp1996
bag2
(g3
(I0
tp1997
g5
tp1998
Rp1999
(I1
(I1
tp2000
g12
I00
S'L\r\xa0\x99\xc6\x07\x87@'
p2001
tp2002
bag2
(g3
(I0
tp2003
g5
tp2004
Rp2005
(I1
(I1
tp2006
g12
I00
S'\xd6\xf7O\xd3@\xfc\x86@'
p2007
tp2008
bag2
(g3
(I0
tp2009
g5
tp2010
Rp2011
(I1
(I1
tp2012
g12
I00
S'&\xf9o\x8f\x8b\xee\x86@'
p2013
tp2014
bag2
(g3
(I0
tp2015
g5
tp2016
Rp2017
(I1
(I1
tp2018
g12
I00
S'\x038\x19I\xa8\xe3\x86@'
p2019
tp2020
bag2
(g3
(I0
tp2021
g5
tp2022
Rp2023
(I1
(I1
tp2024
g12
I00
S'Z\x85\tS\xf4\xd5\x86@'
p2025
tp2026
bag2
(g3
(I0
tp2027
g5
tp2028
Rp2029
(I1
(I1
tp2030
g12
I00
S'@\x17\xda\xa9K\xc6\x86@'
p2031
tp2032
bag2
(g3
(I0
tp2033
g5
tp2034
Rp2035
(I1
(I1
tp2036
g12
I00
S'|\xfd&\xd1\xea\xb8\x86@'
p2037
tp2038
bag2
(g3
(I0
tp2039
g5
tp2040
Rp2041
(I1
(I1
tp2042
g12
I00
S'\xdf\xeb}`I\xa9\x86@'
p2043
tp2044
bag2
(g3
(I0
tp2045
g5
tp2046
Rp2047
(I1
(I1
tp2048
g12
I00
S'\xc2\xd2e\xc7\xff\x9b\x86@'
p2049
tp2050
bag2
(g3
(I0
tp2051
g5
tp2052
Rp2053
(I1
(I1
tp2054
g12
I00
S'u\x0c\xd4\xd9i\x8c\x86@'
p2055
tp2056
bag2
(g3
(I0
tp2057
g5
tp2058
Rp2059
(I1
(I1
tp2060
g12
I00
S',9\xafD\xd7{\x86@'
p2061
tp2062
bag2
(g3
(I0
tp2063
g5
tp2064
Rp2065
(I1
(I1
tp2066
g12
I00
S'q\x81\xab2\xd0m\x86@'
p2067
tp2068
bag2
(g3
(I0
tp2069
g5
tp2070
Rp2071
(I1
(I1
tp2072
g12
I00
S'\xbbv\x8b5\xcc]\x86@'
p2073
tp2074
bag2
(g3
(I0
tp2075
g5
tp2076
Rp2077
(I1
(I1
tp2078
g12
I00
S'daCe\xf3L\x86@'
p2079
tp2080
bag2
(g3
(I0
tp2081
g5
tp2082
Rp2083
(I1
(I1
tp2084
g12
I00
S'Q\xf5\xa7\x94<?\x86@'
p2085
tp2086
bag2
(g3
(I0
tp2087
g5
tp2088
Rp2089
(I1
(I1
tp2090
g12
I00
S'\xce\x8c~\xabR/\x86@'
p2091
tp2092
bag2
(g3
(I0
tp2093
g5
tp2094
Rp2095
(I1
(I1
tp2096
g12
I00
S'%G\xf29\xa6\x1e\x86@'
p2097
tp2098
bag2
(g3
(I0
tp2099
g5
tp2100
Rp2101
(I1
(I1
tp2102
g12
I00
S'\xef,\xca\xbc\xae\x10\x86@'
p2103
tp2104
bag2
(g3
(I0
tp2105
g5
tp2106
Rp2107
(I1
(I1
tp2108
g12
I00
S'T\xa7\xe31\xbd\x00\x86@'
p2109
tp2110
bag2
(g3
(I0
tp2111
g5
tp2112
Rp2113
(I1
(I1
tp2114
g12
I00
S'\xbai&3\xf4\xef\x85@'
p2115
tp2116
bag2
(g3
(I0
tp2117
g5
tp2118
Rp2119
(I1
(I1
tp2120
g12
I00
S'\xbe\x05\xc6\xcc\xf5\xe1\x85@'
p2121
tp2122
bag2
(g3
(I0
tp2123
g5
tp2124
Rp2125
(I1
(I1
tp2126
g12
I00
S'\xac\x06\xa4\xdc\xe8\xd1\x85@'
p2127
tp2128
bag2
(g3
(I0
tp2129
g5
tp2130
Rp2131
(I1
(I1
tp2132
g12
I00
S'\xae\xff\xa5\xbb\x1c\xc1\x85@'
p2133
tp2134
bag2
(g3
(I0
tp2135
g5
tp2136
Rp2137
(I1
(I1
tp2138
g12
I00
S'\x92\xca\x01a\x84\xb3\x85@'
p2139
tp2140
bag2
(g3
(I0
tp2141
g5
tp2142
Rp2143
(I1
(I1
tp2144
g12
I00
S'\x0c\x88zS\xbf\xa3\x85@'
p2145
tp2146
baa(lp2147
g2
(g3
(I0
tp2148
g5
tp2149
Rp2150
(I1
(I1
tp2151
g12
I00
S'\x00\x00\x00\x00\x00\xf4u@'
p2152
tp2153
bag2
(g3
(I0
tp2154
g5
tp2155
Rp2156
(I1
(I1
tp2157
g12
I00
S'\x00\x00\x00\x00\x00\xf4u@'
p2158
tp2159
bag2
(g3
(I0
tp2160
g5
tp2161
Rp2162
(I1
(I1
tp2163
g12
I00
S'\x00\x00\x00\x00\x00\xf4u@'
p2164
tp2165
bag2
(g3
(I0
tp2166
g5
tp2167
Rp2168
(I1
(I1
tp2169
g12
I00
S'\xe6\x8e\xf6\x8f\xfa\xf4u@'
p2170
tp2171
bag2
(g3
(I0
tp2172
g5
tp2173
Rp2174
(I1
(I1
tp2175
g12
I00
S'\xe9^\x1c\xbc\xef\xf6u@'
p2176
tp2177
bag2
(g3
(I0
tp2178
g5
tp2179
Rp2180
(I1
(I1
tp2181
g12
I00
S'M[.xY\xfeu@'
p2182
tp2183
bag2
(g3
(I0
tp2184
g5
tp2185
Rp2186
(I1
(I1
tp2187
g12
I00
S'X\xc6\x88\x104\x0bv@'
p2188
tp2189
bag2
(g3
(I0
tp2190
g5
tp2191
Rp2192
(I1
(I1
tp2193
g12
I00
S'\xd9\x87\xe8.\x12\x1ev@'
p2194
tp2195
bag2
(g3
(I0
tp2196
g5
tp2197
Rp2198
(I1
(I1
tp2199
g12
I00
S'\xdc\x15\xbf\xdd\x9f6v@'
p2200
tp2201
bag2
(g3
(I0
tp2202
g5
tp2203
Rp2204
(I1
(I1
tp2205
g12
I00
S'\xc6ib\x19\xb2Rv@'
p2206
tp2207
bag2
(g3
(I0
tp2208
g5
tp2209
Rp2210
(I1
(I1
tp2211
g12
I00
S'"s\xdb\xe7\nnv@'
p2212
tp2213
bag2
(g3
(I0
tp2214
g5
tp2215
Rp2216
(I1
(I1
tp2217
g12
I00
S'<\xda\xee#\xc5\x86v@'
p2218
tp2219
bag2
(g3
(I0
tp2220
g5
tp2221
Rp2222
(I1
(I1
tp2223
g12
I00
S'^\xf3K|\xff\x9bv@'
p2224
tp2225
bag2
(g3
(I0
tp2226
g5
tp2227
Rp2228
(I1
(I1
tp2229
g12
I00
S'\x83\x86]\x11l\xacv@'
p2230
tp2231
bag2
(g3
(I0
tp2232
g5
tp2233
Rp2234
(I1
(I1
tp2235
g12
I00
S'\xe1a2\x80}\xb9v@'
p2236
tp2237
bag2
(g3
(I0
tp2238
g5
tp2239
Rp2240
(I1
(I1
tp2241
g12
I00
S'9e\xa8\xaf#\xc3v@'
p2242
tp2243
bag2
(g3
(I0
tp2244
g5
tp2245
Rp2246
(I1
(I1
tp2247
g12
I00
S'\x0b\xde\x92\xc3\xee\xcav@'
p2248
tp2249
bag2
(g3
(I0
tp2250
g5
tp2251
Rp2252
(I1
(I1
tp2253
g12
I00
S'\rI\xd1ZG\xd0v@'
p2254
tp2255
bag2
(g3
(I0
tp2256
g5
tp2257
Rp2258
(I1
(I1
tp2259
g12
I00
S'C\xfd\xa2\xb2\x0b\xd2v@'
p2260
tp2261
bag2
(g3
(I0
tp2262
g5
tp2263
Rp2264
(I1
(I1
tp2265
g12
I00
S'\x9a\xbdG\xd0Q\xd0v@'
p2266
tp2267
bag2
(g3
(I0
tp2268
g5
tp2269
Rp2270
(I1
(I1
tp2271
g12
I00
S'\x00f\xf0h\x0f\xd1v@'
p2272
tp2273
bag2
(g3
(I0
tp2274
g5
tp2275
Rp2276
(I1
(I1
tp2277
g12
I00
S'\x8f\x0b\x8fFH\xcev@'
p2278
tp2279
bag2
(g3
(I0
tp2280
g5
tp2281
Rp2282
(I1
(I1
tp2283
g12
I00
S'\x1a<\xb5 \xc9\xc9v@'
p2284
tp2285
bag2
(g3
(I0
tp2286
g5
tp2287
Rp2288
(I1
(I1
tp2289
g12
I00
S'>;/e\xcd\xc3v@'
p2290
tp2291
bag2
(g3
(I0
tp2292
g5
tp2293
Rp2294
(I1
(I1
tp2295
g12
I00
S'\xe2\n;\x95f\xc0v@'
p2296
tp2297
bag2
(g3
(I0
tp2298
g5
tp2299
Rp2300
(I1
(I1
tp2301
g12
I00
S'\xdb\x14\xec\xa7z\xbfv@'
p2302
tp2303
bag2
(g3
(I0
tp2304
g5
tp2305
Rp2306
(I1
(I1
tp2307
g12
I00
S'\x03 I\x19\xe0\xc0v@'
p2308
tp2309
bag2
(g3
(I0
tp2310
g5
tp2311
Rp2312
(I1
(I1
tp2313
g12
I00
S'\xc0\xd20\xcb\x1c\xc4v@'
p2314
tp2315
bag2
(g3
(I0
tp2316
g5
tp2317
Rp2318
(I1
(I1
tp2319
g12
I00
S'\x06N+\xcc\x81\xc9v@'
p2320
tp2321
bag2
(g3
(I0
tp2322
g5
tp2323
Rp2324
(I1
(I1
tp2325
g12
I00
S'\xa8H\x91\xddg\xd0v@'
p2326
tp2327
bag2
(g3
(I0
tp2328
g5
tp2329
Rp2330
(I1
(I1
tp2331
g12
I00
S'\x1cf\xbf\xb6\xa3\xd6v@'
p2332
tp2333
bag2
(g3
(I0
tp2334
g5
tp2335
Rp2336
(I1
(I1
tp2337
g12
I00
S'\x90\xd9\xa78\x08\xdcv@'
p2338
tp2339
bag2
(g3
(I0
tp2340
g5
tp2341
Rp2342
(I1
(I1
tp2343
g12
I00
S'-\xcfJ$q\xe2v@'
p2344
tp2345
bag2
(g3
(I0
tp2346
g5
tp2347
Rp2348
(I1
(I1
tp2349
g12
I00
S'x\x1b\xf2@\x15\xe8v@'
p2350
tp2351
bag2
(g3
(I0
tp2352
g5
tp2353
Rp2354
(I1
(I1
tp2355
g12
I00
S'Z\x17MG#\xedv@'
p2356
tp2357
bag2
(g3
(I0
tp2358
g5
tp2359
Rp2360
(I1
(I1
tp2361
g12
I00
S'\xc4\x96\xccH\x17\xf1v@'
p2362
tp2363
bag2
(g3
(I0
tp2364
g5
tp2365
Rp2366
(I1
(I1
tp2367
g12
I00
S' 1\xbb\x8b%\xf3v@'
p2368
tp2369
bag2
(g3
(I0
tp2370
g5
tp2371
Rp2372
(I1
(I1
tp2373
g12
I00
S'&\x13\xd3\xa0;\xf5v@'
p2374
tp2375
bag2
(g3
(I0
tp2376
g5
tp2377
Rp2378
(I1
(I1
tp2379
g12
I00
S'\x05\xcb\x9a\xbb\x16\xf9v@'
p2380
tp2381
bag2
(g3
(I0
tp2382
g5
tp2383
Rp2384
(I1
(I1
tp2385
g12
I00
S'\xb1L\x83\x11=\xfbv@'
p2386
tp2387
bag2
(g3
(I0
tp2388
g5
tp2389
Rp2390
(I1
(I1
tp2391
g12
I00
S'\x96\x16\xd8y\x91\xfdv@'
p2392
tp2393
bag2
(g3
(I0
tp2394
g5
tp2395
Rp2396
(I1
(I1
tp2397
g12
I00
S'P\xfc\xfa\x0c\xa9\x01w@'
p2398
tp2399
bag2
(g3
(I0
tp2400
g5
tp2401
Rp2402
(I1
(I1
tp2403
g12
I00
S"5\xde8\x99'\x04w@"
p2404
tp2405
bag2
(g3
(I0
tp2406
g5
tp2407
Rp2408
(I1
(I1
tp2409
g12
I00
S',\xee\xc0\xa2<\nw@'
p2410
tp2411
bag2
(g3
(I0
tp2412
g5
tp2413
Rp2414
(I1
(I1
tp2415
g12
I00
S'\xb9\x89\x7fU\xc0\x0ew@'
p2416
tp2417
bag2
(g3
(I0
tp2418
g5
tp2419
Rp2420
(I1
(I1
tp2421
g12
I00
S"\x10\xe0'\x04\xd7\x16w@"
p2422
tp2423
bag2
(g3
(I0
tp2424
g5
tp2425
Rp2426
(I1
(I1
tp2427
g12
I00
S'r]-\x0be\x1dw@'
p2428
tp2429
bag2
(g3
(I0
tp2430
g5
tp2431
Rp2432
(I1
(I1
tp2433
g12
I00
S'q\x1e\xfb\xf0\xa8%w@'
p2434
tp2435
bag2
(g3
(I0
tp2436
g5
tp2437
Rp2438
(I1
(I1
tp2439
g12
I00
S'\xd2\xceU\xa3E.w@'
p2440
tp2441
bag2
(g3
(I0
tp2442
g5
tp2443
Rp2444
(I1
(I1
tp2445
g12
I00
S'\x1c3E\xca\x8f8w@'
p2446
tp2447
bag2
(g3
(I0
tp2448
g5
tp2449
Rp2450
(I1
(I1
tp2451
g12
I00
S"3'=L;Cw@"
p2452
tp2453
bag2
(g3
(I0
tp2454
g5
tp2455
Rp2456
(I1
(I1
tp2457
g12
I00
S'0\x9b\\\x13\x8bOw@'
p2458
tp2459
bag2
(g3
(I0
tp2460
g5
tp2461
Rp2462
(I1
(I1
tp2463
g12
I00
S'A\x8c\x86\x18qZw@'
p2464
tp2465
bag2
(g3
(I0
tp2466
g5
tp2467
Rp2468
(I1
(I1
tp2469
g12
I00
S'f!\x8f\xc5\xcdhw@'
p2470
tp2471
bag2
(g3
(I0
tp2472
g5
tp2473
Rp2474
(I1
(I1
tp2475
g12
I00
S'$\x95c\x16\xc6xw@'
p2476
tp2477
bag2
(g3
(I0
tp2478
g5
tp2479
Rp2480
(I1
(I1
tp2481
g12
I00
S'\x02\x00v\x01c\x87w@'
p2482
tp2483
bag2
(g3
(I0
tp2484
g5
tp2485
Rp2486
(I1
(I1
tp2487
g12
I00
S'\x07J\x03ly\x96w@'
p2488
tp2489
bag2
(g3
(I0
tp2490
g5
tp2491
Rp2492
(I1
(I1
tp2493
g12
I00
S'\x8c\xe6\xaa\xec\xf9\xa5w@'
p2494
tp2495
bag2
(g3
(I0
tp2496
g5
tp2497
Rp2498
(I1
(I1
tp2499
g12
I00
S'\x7fs\xd0s\r\xb7w@'
p2500
tp2501
bag2
(g3
(I0
tp2502
g5
tp2503
Rp2504
(I1
(I1
tp2505
g12
I00
S'\x8e\xb0iL\xa8\xc9w@'
p2506
tp2507
bag2
(g3
(I0
tp2508
g5
tp2509
Rp2510
(I1
(I1
tp2511
g12
I00
S'\xd3\xb5\x9fl\xd0\xddw@'
p2512
tp2513
bag2
(g3
(I0
tp2514
g5
tp2515
Rp2516
(I1
(I1
tp2517
g12
I00
S'"I\xef\xab?\xf5w@'
p2518
tp2519
bag2
(g3
(I0
tp2520
g5
tp2521
Rp2522
(I1
(I1
tp2523
g12
I00
S'\xc6\xf8\xd2u!\x0ex@'
p2524
tp2525
bag2
(g3
(I0
tp2526
g5
tp2527
Rp2528
(I1
(I1
tp2529
g12
I00
S'\xcd"T\t\x1d*x@'
p2530
tp2531
bag2
(g3
(I0
tp2532
g5
tp2533
Rp2534
(I1
(I1
tp2535
g12
I00
S'h\xe6\xd04\x8cFx@'
p2536
tp2537
bag2
(g3
(I0
tp2538
g5
tp2539
Rp2540
(I1
(I1
tp2541
g12
I00
S'!3\xe7\xc6\xcbcx@'
p2542
tp2543
bag2
(g3
(I0
tp2544
g5
tp2545
Rp2546
(I1
(I1
tp2547
g12
I00
S't8\x00l\xc7\x7fx@'
p2548
tp2549
bag2
(g3
(I0
tp2550
g5
tp2551
Rp2552
(I1
(I1
tp2553
g12
I00
S'W\xaer\xdel\x9ax@'
p2554
tp2555
bag2
(g3
(I0
tp2556
g5
tp2557
Rp2558
(I1
(I1
tp2559
g12
I00
S'\x9e\xa5\x91F1\xb5x@'
p2560
tp2561
bag2
(g3
(I0
tp2562
g5
tp2563
Rp2564
(I1
(I1
tp2565
g12
I00
S'j\x87P\x9ex\xcex@'
p2566
tp2567
bag2
(g3
(I0
tp2568
g5
tp2569
Rp2570
(I1
(I1
tp2571
g12
I00
S'\xf6\x8c\xb82\xd6\xe7x@'
p2572
tp2573
bag2
(g3
(I0
tp2574
g5
tp2575
Rp2576
(I1
(I1
tp2577
g12
I00
S'\xda[\xd2\xa6\xbb\xffx@'
p2578
tp2579
bag2
(g3
(I0
tp2580
g5
tp2581
Rp2582
(I1
(I1
tp2583
g12
I00
S'U\x9a\x1f\xcb\xbb\x17y@'
p2584
tp2585
bag2
(g3
(I0
tp2586
g5
tp2587
Rp2588
(I1
(I1
tp2589
g12
I00
S'y\xe9\x19\xc9L.y@'
p2590
tp2591
bag2
(g3
(I0
tp2592
g5
tp2593
Rp2594
(I1
(I1
tp2595
g12
I00
S'?*9\x10\x8bCy@'
p2596
tp2597
bag2
(g3
(I0
tp2598
g5
tp2599
Rp2600
(I1
(I1
tp2601
g12
I00
S'/\x0c\xa4\xe5\xd8Yy@'
p2602
tp2603
bag2
(g3
(I0
tp2604
g5
tp2605
Rp2606
(I1
(I1
tp2607
g12
I00
S'\xe41\xa3\x93\x08py@'
p2608
tp2609
bag2
(g3
(I0
tp2610
g5
tp2611
Rp2612
(I1
(I1
tp2613
g12
I00
S'\xcc>\xa6\x82\\\x85y@'
p2614
tp2615
bag2
(g3
(I0
tp2616
g5
tp2617
Rp2618
(I1
(I1
tp2619
g12
I00
S'r\xc0\xe0+\x07\x9by@'
p2620
tp2621
bag2
(g3
(I0
tp2622
g5
tp2623
Rp2624
(I1
(I1
tp2625
g12
I00
S'o\x9b\xbfG\xd9\xb0y@'
p2626
tp2627
bag2
(g3
(I0
tp2628
g5
tp2629
Rp2630
(I1
(I1
tp2631
g12
I00
S'f\x1d\x91\xdbT\xc5y@'
p2632
tp2633
bag2
(g3
(I0
tp2634
g5
tp2635
Rp2636
(I1
(I1
tp2637
g12
I00
S'\xfc$^\xf9\x91\xd8y@'
p2638
tp2639
bag2
(g3
(I0
tp2640
g5
tp2641
Rp2642
(I1
(I1
tp2643
g12
I00
S'\xdaP\x92\xf7M\xedy@'
p2644
tp2645
bag2
(g3
(I0
tp2646
g5
tp2647
Rp2648
(I1
(I1
tp2649
g12
I00
S',W2\x8a\xa5\x01z@'
p2650
tp2651
bag2
(g3
(I0
tp2652
g5
tp2653
Rp2654
(I1
(I1
tp2655
g12
I00
S'\x9d\xbb!\x87\xa4\x17z@'
p2656
tp2657
bag2
(g3
(I0
tp2658
g5
tp2659
Rp2660
(I1
(I1
tp2661
g12
I00
S'L\xd5I\xb9\xf4-z@'
p2662
tp2663
bag2
(g3
(I0
tp2664
g5
tp2665
Rp2666
(I1
(I1
tp2667
g12
I00
S'&\x18h\x07tDz@'
p2668
tp2669
bag2
(g3
(I0
tp2670
g5
tp2671
Rp2672
(I1
(I1
tp2673
g12
I00
S'!\xf3v\xe4\xe1\\z@'
p2674
tp2675
bag2
(g3
(I0
tp2676
g5
tp2677
Rp2678
(I1
(I1
tp2679
g12
I00
S'\x14"b\xc7\xdcuz@'
p2680
tp2681
bag2
(g3
(I0
tp2682
g5
tp2683
Rp2684
(I1
(I1
tp2685
g12
I00
S'NPK\xb1\xf4\x8ez@'
p2686
tp2687
bag2
(g3
(I0
tp2688
g5
tp2689
Rp2690
(I1
(I1
tp2691
g12
I00
S'\xd0*-\x95,\xaaz@'
p2692
tp2693
bag2
(g3
(I0
tp2694
g5
tp2695
Rp2696
(I1
(I1
tp2697
g12
I00
S'\xd0\x1c\xc0\xedh\xc5z@'
p2698
tp2699
bag2
(g3
(I0
tp2700
g5
tp2701
Rp2702
(I1
(I1
tp2703
g12
I00
S'\x90@\xc0\xadl\xe1z@'
p2704
tp2705
bag2
(g3
(I0
tp2706
g5
tp2707
Rp2708
(I1
(I1
tp2709
g12
I00
S'9$\x91\xac\xbf\xffz@'
p2710
tp2711
bag2
(g3
(I0
tp2712
g5
tp2713
Rp2714
(I1
(I1
tp2715
g12
I00
S'|\x8bq\xe7\x02\x1e{@'
p2716
tp2717
bag2
(g3
(I0
tp2718
g5
tp2719
Rp2720
(I1
(I1
tp2721
g12
I00
S'\xcd\x18\xa0Ep>{@'
p2722
tp2723
bag2
(g3
(I0
tp2724
g5
tp2725
Rp2726
(I1
(I1
tp2727
g12
I00
S'\xba`+\x95q^{@'
p2728
tp2729
bag2
(g3
(I0
tp2730
g5
tp2731
Rp2732
(I1
(I1
tp2733
g12
I00
S'<\xf8?\xf4\xa6}{@'
p2734
tp2735
bag2
(g3
(I0
tp2736
g5
tp2737
Rp2738
(I1
(I1
tp2739
g12
I00
S'_\xc9c6\xfd\x9d{@'
p2740
tp2741
bag2
(g3
(I0
tp2742
g5
tp2743
Rp2744
(I1
(I1
tp2745
g12
I00
S'\xf2\xc0y\xbeG\xbd{@'
p2746
tp2747
bag2
(g3
(I0
tp2748
g5
tp2749
Rp2750
(I1
(I1
tp2751
g12
I00
S'\xc6]\xecdB\xdd{@'
p2752
tp2753
bag2
(g3
(I0
tp2754
g5
tp2755
Rp2756
(I1
(I1
tp2757
g12
I00
S'W#\xaa\xe7\xcb\xfc{@'
p2758
tp2759
bag2
(g3
(I0
tp2760
g5
tp2761
Rp2762
(I1
(I1
tp2763
g12
I00
S'=\xbf9X\x14\x1b|@'
p2764
tp2765
bag2
(g3
(I0
tp2766
g5
tp2767
Rp2768
(I1
(I1
tp2769
g12
I00
S'\xe0H8d\x138|@'
p2770
tp2771
bag2
(g3
(I0
tp2772
g5
tp2773
Rp2774
(I1
(I1
tp2775
g12
I00
S'[\x7f09XW|@'
p2776
tp2777
bag2
(g3
(I0
tp2778
g5
tp2779
Rp2780
(I1
(I1
tp2781
g12
I00
S'n\x8f\xb0\xee\x95w|@'
p2782
tp2783
bag2
(g3
(I0
tp2784
g5
tp2785
Rp2786
(I1
(I1
tp2787
g12
I00
S'\x05\xe5X\xea\xa1\x96|@'
p2788
tp2789
bag2
(g3
(I0
tp2790
g5
tp2791
Rp2792
(I1
(I1
tp2793
g12
I00
S'v\xe9z\xe1\x81\xb5|@'
p2794
tp2795
bag2
(g3
(I0
tp2796
g5
tp2797
Rp2798
(I1
(I1
tp2799
g12
I00
S'\x04\xa4\xeb6\xae\xd3|@'
p2800
tp2801
bag2
(g3
(I0
tp2802
g5
tp2803
Rp2804
(I1
(I1
tp2805
g12
I00
S'\x1ew\xd1_S\xf0|@'
p2806
tp2807
bag2
(g3
(I0
tp2808
g5
tp2809
Rp2810
(I1
(I1
tp2811
g12
I00
S'\x92\x08\x80\xcd\x9f\x0e}@'
p2812
tp2813
bag2
(g3
(I0
tp2814
g5
tp2815
Rp2816
(I1
(I1
tp2817
g12
I00
S'E\xa9S\xfaJ,}@'
p2818
tp2819
bag2
(g3
(I0
tp2820
g5
tp2821
Rp2822
(I1
(I1
tp2823
g12
I00
S'\xbbz\xf7~"K}@'
p2824
tp2825
bag2
(g3
(I0
tp2826
g5
tp2827
Rp2828
(I1
(I1
tp2829
g12
I00
S'\xc88m\xff\x0fi}@'
p2830
tp2831
bag2
(g3
(I0
tp2832
g5
tp2833
Rp2834
(I1
(I1
tp2835
g12
I00
S'\x98\x96\xf6;\\\x85}@'
p2836
tp2837
bag2
(g3
(I0
tp2838
g5
tp2839
Rp2840
(I1
(I1
tp2841
g12
I00
S'\x1c\x85\xd3\xa3o\xa3}@'
p2842
tp2843
bag2
(g3
(I0
tp2844
g5
tp2845
Rp2846
(I1
(I1
tp2847
g12
I00
S'\x1c\x9c<\x01\xd3\xbf}@'
p2848
tp2849
bag2
(g3
(I0
tp2850
g5
tp2851
Rp2852
(I1
(I1
tp2853
g12
I00
S'\x81\xe0\x9c\xa8\x98\xda}@'
p2854
tp2855
bag2
(g3
(I0
tp2856
g5
tp2857
Rp2858
(I1
(I1
tp2859
g12
I00
S'\xc4\x99\xc3\x9dl\xf7}@'
p2860
tp2861
bag2
(g3
(I0
tp2862
g5
tp2863
Rp2864
(I1
(I1
tp2865
g12
I00
S'\xf0\xba\xf5yq\x12~@'
p2866
tp2867
bag2
(g3
(I0
tp2868
g5
tp2869
Rp2870
(I1
(I1
tp2871
g12
I00
S'\xcf\xef\x15\xcf|/~@'
p2872
tp2873
bag2
(g3
(I0
tp2874
g5
tp2875
Rp2876
(I1
(I1
tp2877
g12
I00
S'Q\xf3\x908\xa2J~@'
p2878
tp2879
bag2
(g3
(I0
tp2880
g5
tp2881
Rp2882
(I1
(I1
tp2883
g12
I00
S'\xe9{\xfd\r\x8eg~@'
p2884
tp2885
bag2
(g3
(I0
tp2886
g5
tp2887
Rp2888
(I1
(I1
tp2889
g12
I00
S'\x9c\xc8\x01\xef\x11\x83~@'
p2890
tp2891
bag2
(g3
(I0
tp2892
g5
tp2893
Rp2894
(I1
(I1
tp2895
g12
I00
S'\x95\xddz\x90\x94\x9c~@'
p2896
tp2897
bag2
(g3
(I0
tp2898
g5
tp2899
Rp2900
(I1
(I1
tp2901
g12
I00
S'w\xd6\xff\x842\xb9~@'
p2902
tp2903
bag2
(g3
(I0
tp2904
g5
tp2905
Rp2906
(I1
(I1
tp2907
g12
I00
S'\x9d\xc5\x96\x9e\x95\xd7~@'
p2908
tp2909
bag2
(g3
(I0
tp2910
g5
tp2911
Rp2912
(I1
(I1
tp2913
g12
I00
S'R\xa26\xc2\x1b\xf4~@'
p2914
tp2915
bag2
(g3
(I0
tp2916
g5
tp2917
Rp2918
(I1
(I1
tp2919
g12
I00
S"\x11\x92\x198'\x0f\x7f@"
p2920
tp2921
bag2
(g3
(I0
tp2922
g5
tp2923
Rp2924
(I1
(I1
tp2925
g12
I00
S'\xdf;\x91O\x10(\x7f@'
p2926
tp2927
bag2
(g3
(I0
tp2928
g5
tp2929
Rp2930
(I1
(I1
tp2931
g12
I00
S'\xd6\x8b\xb6\xdfnC\x7f@'
p2932
tp2933
bag2
(g3
(I0
tp2934
g5
tp2935
Rp2936
(I1
(I1
tp2937
g12
I00
S'\xfc)\xc3G\x91\\\x7f@'
p2938
tp2939
bag2
(g3
(I0
tp2940
g5
tp2941
Rp2942
(I1
(I1
tp2943
g12
I00
S',\x19\xc4\x18\xf7s\x7f@'
p2944
tp2945
bag2
(g3
(I0
tp2946
g5
tp2947
Rp2948
(I1
(I1
tp2949
g12
I00
S'FJ \x1e\x0f\x89\x7f@'
p2950
tp2951
bag2
(g3
(I0
tp2952
g5
tp2953
Rp2954
(I1
(I1
tp2955
g12
I00
S'}(3\xfa\x15\xa1\x7f@'
p2956
tp2957
bag2
(g3
(I0
tp2958
g5
tp2959
Rp2960
(I1
(I1
tp2961
g12
I00
S'\x83xOH\xc3\xb6\x7f@'
p2962
tp2963
bag2
(g3
(I0
tp2964
g5
tp2965
Rp2966
(I1
(I1
tp2967
g12
I00
S'\xf9\x98\x11\x88\x02\xcf\x7f@'
p2968
tp2969
bag2
(g3
(I0
tp2970
g5
tp2971
Rp2972
(I1
(I1
tp2973
g12
I00
S'\x8cN\xb6\xed\xea\xe9\x7f@'
p2974
tp2975
bag2
(g3
(I0
tp2976
g5
tp2977
Rp2978
(I1
(I1
tp2979
g12
I00
S'\x87\x08~\x052\x01\x80@'
p2980
tp2981
bag2
(g3
(I0
tp2982
g5
tp2983
Rp2984
(I1
(I1
tp2985
g12
I00
S'\x96\xcd\t\x88<\x0c\x80@'
p2986
tp2987
bag2
(g3
(I0
tp2988
g5
tp2989
Rp2990
(I1
(I1
tp2991
g12
I00
S'\xd7h\x8bq\xc2\x18\x80@'
p2992
tp2993
bag2
(g3
(I0
tp2994
g5
tp2995
Rp2996
(I1
(I1
tp2997
g12
I00
S'\x86\x15\x05\x19\xfa#\x80@'
p2998
tp2999
bag2
(g3
(I0
tp3000
g5
tp3001
Rp3002
(I1
(I1
tp3003
g12
I00
S'S\xea{\x84\xa90\x80@'
p3004
tp3005
bag2
(g3
(I0
tp3006
g5
tp3007
Rp3008
(I1
(I1
tp3009
g12
I00
S'\xb09q~\x04<\x80@'
p3010
tp3011
bag2
(g3
(I0
tp3012
g5
tp3013
Rp3014
(I1
(I1
tp3015
g12
I00
S'\x01H\x88g\x16F\x80@'
p3016
tp3017
bag2
(g3
(I0
tp3018
g5
tp3019
Rp3020
(I1
(I1
tp3021
g12
I00
S'\xc0\xa0\x18l\xc3Q\x80@'
p3022
tp3023
bag2
(g3
(I0
tp3024
g5
tp3025
Rp3026
(I1
(I1
tp3027
g12
I00
S'\x0b~\xa7\x17\xca^\x80@'
p3028
tp3029
bag2
(g3
(I0
tp3030
g5
tp3031
Rp3032
(I1
(I1
tp3033
g12
I00
S'\x04\xb8\xf5\xdf\xd2l\x80@'
p3034
tp3035
bag2
(g3
(I0
tp3036
g5
tp3037
Rp3038
(I1
(I1
tp3039
g12
I00
S'\xc3\xa6[\x82\x9dy\x80@'
p3040
tp3041
bag2
(g3
(I0
tp3042
g5
tp3043
Rp3044
(I1
(I1
tp3045
g12
I00
S'_\x12\xb9\xab\xa4\x87\x80@'
p3046
tp3047
bag2
(g3
(I0
tp3048
g5
tp3049
Rp3050
(I1
(I1
tp3051
g12
I00
S'H%\xa1\xf1\x9b\x96\x80@'
p3052
tp3053
bag2
(g3
(I0
tp3054
g5
tp3055
Rp3056
(I1
(I1
tp3057
g12
I00
S'\xd1K[\xcbP\xa4\x80@'
p3058
tp3059
bag2
(g3
(I0
tp3060
g5
tp3061
Rp3062
(I1
(I1
tp3063
g12
I00
S'\xa2#I$)\xb3\x80@'
p3064
tp3065
bag2
(g3
(I0
tp3066
g5
tp3067
Rp3068
(I1
(I1
tp3069
g12
I00
S'\xb8\x13\x19\x92\xdf\xc2\x80@'
p3070
tp3071
bag2
(g3
(I0
tp3072
g5
tp3073
Rp3074
(I1
(I1
tp3075
g12
I00
S'\t\x15\xd8\x1cN\xd1\x80@'
p3076
tp3077
bag2
(g3
(I0
tp3078
g5
tp3079
Rp3080
(I1
(I1
tp3081
g12
I00
S'\xe57\xd5x\xd7\xde\x80@'
p3082
tp3083
bag2
(g3
(I0
tp3084
g5
tp3085
Rp3086
(I1
(I1
tp3087
g12
I00
S'r\xbb-\x7fY\xeb\x80@'
p3088
tp3089
bag2
(g3
(I0
tp3090
g5
tp3091
Rp3092
(I1
(I1
tp3093
g12
I00
S'\xa5\xcaR\x15\x8d\xf6\x80@'
p3094
tp3095
bag2
(g3
(I0
tp3096
g5
tp3097
Rp3098
(I1
(I1
tp3099
g12
I00
S'\xc2\xf7S\x9dF\x03\x81@'
p3100
tp3101
bag2
(g3
(I0
tp3102
g5
tp3103
Rp3104
(I1
(I1
tp3105
g12
I00
S'm\xf4\x0c\xe9\x98\x0e\x81@'
p3106
tp3107
bag2
(g3
(I0
tp3108
g5
tp3109
Rp3110
(I1
(I1
tp3111
g12
I00
S'Fn\xc5\xcf\xa6\x18\x81@'
p3112
tp3113
bag2
(g3
(I0
tp3114
g5
tp3115
Rp3116
(I1
(I1
tp3117
g12
I00
S'\x0b\xd8\x0c\xb0I!\x81@'
p3118
tp3119
bag2
(g3
(I0
tp3120
g5
tp3121
Rp3122
(I1
(I1
tp3123
g12
I00
S'\xed\x0f\xf9\xf1\xb4+\x81@'
p3124
tp3125
bag2
(g3
(I0
tp3126
g5
tp3127
Rp3128
(I1
(I1
tp3129
g12
I00
S'\xce\xb4\xb4\xb1\x9d4\x81@'
p3130
tp3131
bag2
(g3
(I0
tp3132
g5
tp3133
Rp3134
(I1
(I1
tp3135
g12
I00
S'm\t\xc7\xe6Q?\x81@'
p3136
tp3137
bag2
(g3
(I0
tp3138
g5
tp3139
Rp3140
(I1
(I1
tp3141
g12
I00
S',\x8c\xac\x02sH\x81@'
p3142
tp3143
bag2
(g3
(I0
tp3144
g5
tp3145
Rp3146
(I1
(I1
tp3147
g12
I00
S'\x00\x0e\x04\nbS\x81@'
p3148
tp3149
bag2
(g3
(I0
tp3150
g5
tp3151
Rp3152
(I1
(I1
tp3153
g12
I00
S'\xc7\xc8\x17\xb6\xbd\\\x81@'
p3154
tp3155
bag2
(g3
(I0
tp3156
g5
tp3157
Rp3158
(I1
(I1
tp3159
g12
I00
S'z\x19\xbf\xb9\x96d\x81@'
p3160
tp3161
bag2
(g3
(I0
tp3162
g5
tp3163
Rp3164
(I1
(I1
tp3165
g12
I00
S'\xe4\xaf\xccS3n\x81@'
p3166
tp3167
bag2
(g3
(I0
tp3168
g5
tp3169
Rp3170
(I1
(I1
tp3171
g12
I00
S'\xa1\xd5\xc2Pey\x81@'
p3172
tp3173
bag2
(g3
(I0
tp3174
g5
tp3175
Rp3176
(I1
(I1
tp3177
g12
I00
S'\x0c\xbd\x8a\xef\xf6\x85\x81@'
p3178
tp3179
bag2
(g3
(I0
tp3180
g5
tp3181
Rp3182
(I1
(I1
tp3183
g12
I00
S'\xca\xb7P\x1d\xb4\x93\x81@'
p3184
tp3185
bag2
(g3
(I0
tp3186
g5
tp3187
Rp3188
(I1
(I1
tp3189
g12
I00
S'i\xdb\xedc]\xa2\x81@'
p3190
tp3191
bag2
(g3
(I0
tp3192
g5
tp3193
Rp3194
(I1
(I1
tp3195
g12
I00
S'x\xf9\xfa\xc8\xb5\xb1\x81@'
p3196
tp3197
bag2
(g3
(I0
tp3198
g5
tp3199
Rp3200
(I1
(I1
tp3201
g12
I00
S'<\xde\xa7\xdc\xb9\xc1\x81@'
p3202
tp3203
bag2
(g3
(I0
tp3204
g5
tp3205
Rp3206
(I1
(I1
tp3207
g12
I00
S'\xd4\xae\xb8j$\xd2\x81@'
p3208
tp3209
bag2
(g3
(I0
tp3210
g5
tp3211
Rp3212
(I1
(I1
tp3213
g12
I00
S'G\xd7\xe4\x91\xb4\xe2\x81@'
p3214
tp3215
bag2
(g3
(I0
tp3216
g5
tp3217
Rp3218
(I1
(I1
tp3219
g12
I00
S'C\x17d\xae\xbf\xf1\x81@'
p3220
tp3221
bag2
(g3
(I0
tp3222
g5
tp3223
Rp3224
(I1
(I1
tp3225
g12
I00
S'\x82\x9d\xb2\xc1\xea\x01\x82@'
p3226
tp3227
bag2
(g3
(I0
tp3228
g5
tp3229
Rp3230
(I1
(I1
tp3231
g12
I00
S'\xdd`\x95\x93\x96\x10\x82@'
p3232
tp3233
bag2
(g3
(I0
tp3234
g5
tp3235
Rp3236
(I1
(I1
tp3237
g12
I00
S'\xfe\xeb\xda+\xd1\x1d\x82@'
p3238
tp3239
bag2
(g3
(I0
tp3240
g5
tp3241
Rp3242
(I1
(I1
tp3243
g12
I00
S'\xa3~\xdc\x81\xd8)\x82@'
p3244
tp3245
bag2
(g3
(I0
tp3246
g5
tp3247
Rp3248
(I1
(I1
tp3249
g12
I00
S'i\x8d\x82\x98\x9d4\x82@'
p3250
tp3251
bag2
(g3
(I0
tp3252
g5
tp3253
Rp3254
(I1
(I1
tp3255
g12
I00
S'\x1e\xfb\x01\x8a\xec=\x82@'
p3256
tp3257
bag2
(g3
(I0
tp3258
g5
tp3259
Rp3260
(I1
(I1
tp3261
g12
I00
S'0\x9a\xe3\x9b\xf9E\x82@'
p3262
tp3263
bag2
(g3
(I0
tp3264
g5
tp3265
Rp3266
(I1
(I1
tp3267
g12
I00
S'\xd3^\r\xb1zL\x82@'
p3268
tp3269
bag2
(g3
(I0
tp3270
g5
tp3271
Rp3272
(I1
(I1
tp3273
g12
I00
S'\xa6\xe7x\xb4"U\x82@'
p3274
tp3275
bag2
(g3
(I0
tp3276
g5
tp3277
Rp3278
(I1
(I1
tp3279
g12
I00
S'O\xf7\xf5G3\\\x82@'
p3280
tp3281
bag2
(g3
(I0
tp3282
g5
tp3283
Rp3284
(I1
(I1
tp3285
g12
I00
S'\xd2)\x13A\xbca\x82@'
p3286
tp3287
bag2
(g3
(I0
tp3288
g5
tp3289
Rp3290
(I1
(I1
tp3291
g12
I00
S'.\x1b\xc3\xb2Li\x82@'
p3292
tp3293
bag2
(g3
(I0
tp3294
g5
tp3295
Rp3296
(I1
(I1
tp3297
g12
I00
S'\xa6\xa2m_\xaer\x82@'
p3298
tp3299
bag2
(g3
(I0
tp3300
g5
tp3301
Rp3302
(I1
(I1
tp3303
g12
I00
S'2\x1d\xf4\x85\xaf}\x82@'
p3304
tp3305
bag2
(g3
(I0
tp3306
g5
tp3307
Rp3308
(I1
(I1
tp3309
g12
I00
S'a\x03\x84\xb6\x15\x8a\x82@'
p3310
tp3311
bag2
(g3
(I0
tp3312
g5
tp3313
Rp3314
(I1
(I1
tp3315
g12
I00
S'\x08\xf6\x92-\xa2\x97\x82@'
p3316
tp3317
bag2
(g3
(I0
tp3318
g5
tp3319
Rp3320
(I1
(I1
tp3321
g12
I00
S'\x8b\xe7v\xb2C\xa6\x82@'
p3322
tp3323
bag2
(g3
(I0
tp3324
g5
tp3325
Rp3326
(I1
(I1
tp3327
g12
I00
S'0\x98Y\xde\x8b\xb5\x82@'
p3328
tp3329
bag2
(g3
(I0
tp3330
g5
tp3331
Rp3332
(I1
(I1
tp3333
g12
I00
S'\x06\xdf\xbc\xedn\xc5\x82@'
p3334
tp3335
bag2
(g3
(I0
tp3336
g5
tp3337
Rp3338
(I1
(I1
tp3339
g12
I00
S'\x93W\xad2\xa9\xd5\x82@'
p3340
tp3341
bag2
(g3
(I0
tp3342
g5
tp3343
Rp3344
(I1
(I1
tp3345
g12
I00
S'm"\xb8\x91*\xe6\x82@'
p3346
tp3347
bag2
(g3
(I0
tp3348
g5
tp3349
Rp3350
(I1
(I1
tp3351
g12
I00
S'Y\xbf\xf8\xaa\xb5\xf4\x82@'
p3352
tp3353
bag2
(g3
(I0
tp3354
g5
tp3355
Rp3356
(I1
(I1
tp3357
g12
I00
S'\x817\xf8\x15\xca\x01\x83@'
p3358
tp3359
bag2
(g3
(I0
tp3360
g5
tp3361
Rp3362
(I1
(I1
tp3363
g12
I00
S'\xcb\x90\xf6\xd9X\r\x83@'
p3364
tp3365
bag2
(g3
(I0
tp3366
g5
tp3367
Rp3368
(I1
(I1
tp3369
g12
I00
S'\x94\xf0Iq]\x17\x83@'
p3370
tp3371
bag2
(g3
(I0
tp3372
g5
tp3373
Rp3374
(I1
(I1
tp3375
g12
I00
S'\x99@x\x00\xe6\x1f\x83@'
p3376
tp3377
bag2
(g3
(I0
tp3378
g5
tp3379
Rp3380
(I1
(I1
tp3381
g12
I00
S'\x10\xea\xf8\xa1\xd5&\x83@'
p3382
tp3383
bag2
(g3
(I0
tp3384
g5
tp3385
Rp3386
(I1
(I1
tp3387
g12
I00
S"\xf6\x9aH\r'0\x83@"
p3388
tp3389
bag2
(g3
(I0
tp3390
g5
tp3391
Rp3392
(I1
(I1
tp3393
g12
I00
S'w\xa7\x9c;h;\x83@'
p3394
tp3395
bag2
(g3
(I0
tp3396
g5
tp3397
Rp3398
(I1
(I1
tp3399
g12
I00
S'\xcd\xb5\xed\xb3,H\x83@'
p3400
tp3401
bag2
(g3
(I0
tp3402
g5
tp3403
Rp3404
(I1
(I1
tp3405
g12
I00
S'rO\x1e\x0fSS\x83@'
p3406
tp3407
bag2
(g3
(I0
tp3408
g5
tp3409
Rp3410
(I1
(I1
tp3411
g12
I00
S':\xe1\x03\xd5\xf4\\\x83@'
p3412
tp3413
bag2
(g3
(I0
tp3414
g5
tp3415
Rp3416
(I1
(I1
tp3417
g12
I00
S'\xc6\xcf\xf7\x81}h\x83@'
p3418
tp3419
bag2
(g3
(I0
tp3420
g5
tp3421
Rp3422
(I1
(I1
tp3423
g12
I00
S'8\xd8\x03agr\x83@'
p3424
tp3425
bag2
(g3
(I0
tp3426
g5
tp3427
Rp3428
(I1
(I1
tp3429
g12
I00
S'B\x18\xc2H\xb1z\x83@'
p3430
tp3431
bag2
(g3
(I0
tp3432
g5
tp3433
Rp3434
(I1
(I1
tp3435
g12
I00
S')4\xba\xbd\xe5\x84\x83@'
p3436
tp3437
bag2
(g3
(I0
tp3438
g5
tp3439
Rp3440
(I1
(I1
tp3441
g12
I00
S'\xccZ\xd8\xab\xb8\x90\x83@'
p3442
tp3443
bag2
(g3
(I0
tp3444
g5
tp3445
Rp3446
(I1
(I1
tp3447
g12
I00
S'\xc1\xc3\x12v\xda\x9d\x83@'
p3448
tp3449
bag2
(g3
(I0
tp3450
g5
tp3451
Rp3452
(I1
(I1
tp3453
g12
I00
S'\xeb52\xef\x00\xac\x83@'
p3454
tp3455
bag2
(g3
(I0
tp3456
g5
tp3457
Rp3458
(I1
(I1
tp3459
g12
I00
S'\xd1_\xe0\xe4\xe1\xba\x83@'
p3460
tp3461
bag2
(g3
(I0
tp3462
g5
tp3463
Rp3464
(I1
(I1
tp3465
g12
I00
S'\xc1\xfbJ\x032\xca\x83@'
p3466
tp3467
bag2
(g3
(I0
tp3468
g5
tp3469
Rp3470
(I1
(I1
tp3471
g12
I00
S'\xe6\x06\xb2\xf0,\xda\x83@'
p3472
tp3473
bag2
(g3
(I0
tp3474
g5
tp3475
Rp3476
(I1
(I1
tp3477
g12
I00
S'\x89\x19\x19B\x91\xea\x83@'
p3478
tp3479
bag2
(g3
(I0
tp3480
g5
tp3481
Rp3482
(I1
(I1
tp3483
g12
I00
S"\xa4\xb9C\xa0'\xfb\x83@"
p3484
tp3485
bag2
(g3
(I0
tp3486
g5
tp3487
Rp3488
(I1
(I1
tp3489
g12
I00
S'\xb8\x02\xc9\x81\xe3\x0b\x84@'
p3490
tp3491
bag2
(g3
(I0
tp3492
g5
tp3493
Rp3494
(I1
(I1
tp3495
g12
I00
S'\x86\xa8\xee}\x91\x1c\x84@'
p3496
tp3497
bag2
(g3
(I0
tp3498
g5
tp3499
Rp3500
(I1
(I1
tp3501
g12
I00
S'\x91 `\xcf#+\x84@'
p3502
tp3503
bag2
(g3
(I0
tp3504
g5
tp3505
Rp3506
(I1
(I1
tp3507
g12
I00
S'\xcc\xf8\x0b\xb5\x9d:\x84@'
p3508
tp3509
bag2
(g3
(I0
tp3510
g5
tp3511
Rp3512
(I1
(I1
tp3513
g12
I00
S'\xf7\x161qeH\x84@'
p3514
tp3515
bag2
(g3
(I0
tp3516
g5
tp3517
Rp3518
(I1
(I1
tp3519
g12
I00
S'\xd3\x82y\xb4WT\x84@'
p3520
tp3521
bag2
(g3
(I0
tp3522
g5
tp3523
Rp3524
(I1
(I1
tp3525
g12
I00
S'\x87\xdf\xcdk\xdc^\x84@'
p3526
tp3527
bag2
(g3
(I0
tp3528
g5
tp3529
Rp3530
(I1
(I1
tp3531
g12
I00
S'\xf6\xdcE\xea\x8eg\x84@'
p3532
tp3533
bag2
(g3
(I0
tp3534
g5
tp3535
Rp3536
(I1
(I1
tp3537
g12
I00
S'\x9f\x11\xd5\x9e[n\x84@'
p3538
tp3539
bag2
(g3
(I0
tp3540
g5
tp3541
Rp3542
(I1
(I1
tp3543
g12
I00
S'\xba6\xf0\x83\xd3s\x84@'
p3544
tp3545
bag2
(g3
(I0
tp3546
g5
tp3547
Rp3548
(I1
(I1
tp3549
g12
I00
S'\xbc;\xfdxX{\x84@'
p3550
tp3551
bag2
(g3
(I0
tp3552
g5
tp3553
Rp3554
(I1
(I1
tp3555
g12
I00
S'\x8e\x050b{\x81\x84@'
p3556
tp3557
bag2
(g3
(I0
tp3558
g5
tp3559
Rp3560
(I1
(I1
tp3561
g12
I00
S'\x00)\xa0\x02\xb9\x85\x84@'
p3562
tp3563
bag2
(g3
(I0
tp3564
g5
tp3565
Rp3566
(I1
(I1
tp3567
g12
I00
S'\xf8\xda\x05\xee\x95\x88\x84@'
p3568
tp3569
bag2
(g3
(I0
tp3570
g5
tp3571
Rp3572
(I1
(I1
tp3573
g12
I00
S'-\xf7\xc3\xe3J\x8a\x84@'
p3574
tp3575
bag2
(g3
(I0
tp3576
g5
tp3577
Rp3578
(I1
(I1
tp3579
g12
I00
S'2\xd3g\xa1\xaa\x8e\x84@'
p3580
tp3581
bag2
(g3
(I0
tp3582
g5
tp3583
Rp3584
(I1
(I1
tp3585
g12
I00
S'\xe3\n\x90\xa1\x9c\x95\x84@'
p3586
tp3587
bag2
(g3
(I0
tp3588
g5
tp3589
Rp3590
(I1
(I1
tp3591
g12
I00
S'\xa8\xe7\xfc\xec\xd5\x9e\x84@'
p3592
tp3593
bag2
(g3
(I0
tp3594
g5
tp3595
Rp3596
(I1
(I1
tp3597
g12
I00
S'\xaa\x85i\x81\xfc\xa9\x84@'
p3598
tp3599
bag2
(g3
(I0
tp3600
g5
tp3601
Rp3602
(I1
(I1
tp3603
g12
I00
S'\x94\x7f\xa5\xee\xb7\xb6\x84@'
p3604
tp3605
bag2
(g3
(I0
tp3606
g5
tp3607
Rp3608
(I1
(I1
tp3609
g12
I00
S'\x1c\xc7W\x97\x88\xc4\x84@'
p3610
tp3611
bag2
(g3
(I0
tp3612
g5
tp3613
Rp3614
(I1
(I1
tp3615
g12
I00
S'\x1f\xf1\x9c\\Y\xd3\x84@'
p3616
tp3617
bag2
(g3
(I0
tp3618
g5
tp3619
Rp3620
(I1
(I1
tp3621
g12
I00
S'D\xff\x06`\x9d\xe2\x84@'
p3622
tp3623
bag2
(g3
(I0
tp3624
g5
tp3625
Rp3626
(I1
(I1
tp3627
g12
I00
S'\xfaM\xb2  \xf0\x84@'
p3628
tp3629
bag2
(g3
(I0
tp3630
g5
tp3631
Rp3632
(I1
(I1
tp3633
g12
I00
S'\x9b\x88>?\x8f\xfb\x84@'
p3634
tp3635
bag2
(g3
(I0
tp3636
g5
tp3637
Rp3638
(I1
(I1
tp3639
g12
I00
S'[\xe4l\xf2\xf1\x04\x85@'
p3640
tp3641
bag2
(g3
(I0
tp3642
g5
tp3643
Rp3644
(I1
(I1
tp3645
g12
I00
S'\xbd\xfe\x17\xdf\xef\x10\x85@'
p3646
tp3647
bag2
(g3
(I0
tp3648
g5
tp3649
Rp3650
(I1
(I1
tp3651
g12
I00
S'\\x4\xea\xaa\x1e\x85@'
p3652
tp3653
bag2
(g3
(I0
tp3654
g5
tp3655
Rp3656
(I1
(I1
tp3657
g12
I00
S'T\x18\xde\xc2\xe8*\x85@'
p3658
tp3659
bag2
(g3
(I0
tp3660
g5
tp3661
Rp3662
(I1
(I1
tp3663
g12
I00
S'UH\x13\x9d\xd55\x85@'
p3664
tp3665
bag2
(g3
(I0
tp3666
g5
tp3667
Rp3668
(I1
(I1
tp3669
g12
I00
S'\x1b\x01\x80\x98\xb3B\x85@'
p3670
tp3671
bag2
(g3
(I0
tp3672
g5
tp3673
Rp3674
(I1
(I1
tp3675
g12
I00
S'\xa4\xbej\xc2\xfcP\x85@'
p3676
tp3677
bag2
(g3
(I0
tp3678
g5
tp3679
Rp3680
(I1
(I1
tp3681
g12
I00
S'\xabK\x8aUB`\x85@'
p3682
tp3683
bag2
(g3
(I0
tp3684
g5
tp3685
Rp3686
(I1
(I1
tp3687
g12
I00
S'\x0bB\x7f78p\x85@'
p3688
tp3689
bag2
(g3
(I0
tp3690
g5
tp3691
Rp3692
(I1
(I1
tp3693
g12
I00
S'\xfdR\xe0\xd7\xa5\x80\x85@'
p3694
tp3695
bag2
(g3
(I0
tp3696
g5
tp3697
Rp3698
(I1
(I1
tp3699
g12
I00
S'2E\xa8\x14X\x91\x85@'
p3700
tp3701
bag2
(g3
(I0
tp3702
g5
tp3703
Rp3704
(I1
(I1
tp3705
g12
I00
S'\xf3\x1bG\xd2/\xa2\x85@'
p3706
tp3707
bag2
(g3
(I0
tp3708
g5
tp3709
Rp3710
(I1
(I1
tp3711
g12
I00
S'\x86\x93\x05,\xe2\xb2\x85@'
p3712
tp3713
bag2
(g3
(I0
tp3714
g5
tp3715
Rp3716
(I1
(I1
tp3717
g12
I00
S'\xba=\xb8\x85g\xc3\x85@'
p3718
tp3719
bag2
(g3
(I0
tp3720
g5
tp3721
Rp3722
(I1
(I1
tp3723
g12
I00
S'x:\x0f+E\xd2\x85@'
p3724
tp3725
bag2
(g3
(I0
tp3726
g5
tp3727
Rp3728
(I1
(I1
tp3729
g12
I00
S'\xa4\\H\x9a\xe6\xde\x85@'
p3730
tp3731
bag2
(g3
(I0
tp3732
g5
tp3733
Rp3734
(I1
(I1
tp3735
g12
I00
S'\xeb*\xf0Q@\xe9\x85@'
p3736
tp3737
bag2
(g3
(I0
tp3738
g5
tp3739
Rp3740
(I1
(I1
tp3741
g12
I00
S'\x92\xde4n[\xf1\x85@'
p3742
tp3743
bag2
(g3
(I0
tp3744
g5
tp3745
Rp3746
(I1
(I1
tp3747
g12
I00
S'q\x96h\xaa+\xf7\x85@'
p3748
tp3749
bag2
(g3
(I0
tp3750
g5
tp3751
Rp3752
(I1
(I1
tp3753
g12
I00
S'z\xc1\xd8\xef\xb6\xfa\x85@'
p3754
tp3755
bag2
(g3
(I0
tp3756
g5
tp3757
Rp3758
(I1
(I1
tp3759
g12
I00
S'\x16\xf5p\xb8U\xfd\x85@'
p3760
tp3761
bag2
(g3
(I0
tp3762
g5
tp3763
Rp3764
(I1
(I1
tp3765
g12
I00
S'\xc0\xa1\xed\xd3b\x01\x86@'
p3766
tp3767
bag2
(g3
(I0
tp3768
g5
tp3769
Rp3770
(I1
(I1
tp3771
g12
I00
S'L7\xe0\x16\x87\x04\x86@'
p3772
tp3773
bag2
(g3
(I0
tp3774
g5
tp3775
Rp3776
(I1
(I1
tp3777
g12
I00
S'n\xf9\xd0\xe2Q\x05\x86@'
p3778
tp3779
bag2
(g3
(I0
tp3780
g5
tp3781
Rp3782
(I1
(I1
tp3783
g12
I00
S'J\xd5\xa4\x16\x91\x07\x86@'
p3784
tp3785
bag2
(g3
(I0
tp3786
g5
tp3787
Rp3788
(I1
(I1
tp3789
g12
I00
S'\x01\x87K\x9f\x1c\x0b\x86@'
p3790
tp3791
bag2
(g3
(I0
tp3792
g5
tp3793
Rp3794
(I1
(I1
tp3795
g12
I00
S'\x81h\x14\x82?\x11\x86@'
p3796
tp3797
bag2
(g3
(I0
tp3798
g5
tp3799
Rp3800
(I1
(I1
tp3801
g12
I00
S'\xc9k\x80\xfe\xcc\x19\x86@'
p3802
tp3803
bag2
(g3
(I0
tp3804
g5
tp3805
Rp3806
(I1
(I1
tp3807
g12
I00
S'\xbe\x0e|?C$\x86@'
p3808
tp3809
bag2
(g3
(I0
tp3810
g5
tp3811
Rp3812
(I1
(I1
tp3813
g12
I00
S'\x16`\xd2K\xcf/\x86@'
p3814
tp3815
bag2
(g3
(I0
tp3816
g5
tp3817
Rp3818
(I1
(I1
tp3819
g12
I00
S'Q\xef\xc9m\x81;\x86@'
p3820
tp3821
bag2
(g3
(I0
tp3822
g5
tp3823
Rp3824
(I1
(I1
tp3825
g12
I00
S'\xe5\xf0\x1bZ\xf8E\x86@'
p3826
tp3827
bag2
(g3
(I0
tp3828
g5
tp3829
Rp3830
(I1
(I1
tp3831
g12
I00
S'\xdf\xfc\xed\xcf\xf4O\x86@'
p3832
tp3833
bag2
(g3
(I0
tp3834
g5
tp3835
Rp3836
(I1
(I1
tp3837
g12
I00
S'\x17}\x0cU\xac[\x86@'
p3838
tp3839
bag2
(g3
(I0
tp3840
g5
tp3841
Rp3842
(I1
(I1
tp3843
g12
I00
S'*B\xda\xed\xf7g\x86@'
p3844
tp3845
bag2
(g3
(I0
tp3846
g5
tp3847
Rp3848
(I1
(I1
tp3849
g12
I00
S'i\x0fb\x8a\xf7s\x86@'
p3850
tp3851
bag2
(g3
(I0
tp3852
g5
tp3853
Rp3854
(I1
(I1
tp3855
g12
I00
S'\x1a\xae\xf7&:\x7f\x86@'
p3856
tp3857
bag2
(g3
(I0
tp3858
g5
tp3859
Rp3860
(I1
(I1
tp3861
g12
I00
S'\xf8M]\xa6t\x89\x86@'
p3862
tp3863
bag2
(g3
(I0
tp3864
g5
tp3865
Rp3866
(I1
(I1
tp3867
g12
I00
S'\xe6\x14\xcf\x12p\x92\x86@'
p3868
tp3869
bag2
(g3
(I0
tp3870
g5
tp3871
Rp3872
(I1
(I1
tp3873
g12
I00
S'a\x11;\xc4\x00\x9a\x86@'
p3874
tp3875
bag2
(g3
(I0
tp3876
g5
tp3877
Rp3878
(I1
(I1
tp3879
g12
I00
S'\x15\xb8\x11D\x8e\xa2\x86@'
p3880
tp3881
bag2
(g3
(I0
tp3882
g5
tp3883
Rp3884
(I1
(I1
tp3885
g12
I00
S'/\xc8\xbfj\x19\xaa\x86@'
p3886
tp3887
bag2
(g3
(I0
tp3888
g5
tp3889
Rp3890
(I1
(I1
tp3891
g12
I00
S'\xdc\x83f\xe2\x9b\xb2\x86@'
p3892
tp3893
bag2
(g3
(I0
tp3894
g5
tp3895
Rp3896
(I1
(I1
tp3897
g12
I00
S'\xed\x18\xae;\x9b\xbc\x86@'
p3898
tp3899
bag2
(g3
(I0
tp3900
g5
tp3901
Rp3902
(I1
(I1
tp3903
g12
I00
S'i\x00\x18\xe5e\xc8\x86@'
p3904
tp3905
bag2
(g3
(I0
tp3906
g5
tp3907
Rp3908
(I1
(I1
tp3909
g12
I00
S'H\x99\xb6C\x10\xd3\x86@'
p3910
tp3911
bag2
(g3
(I0
tp3912
g5
tp3913
Rp3914
(I1
(I1
tp3915
g12
I00
S'\xd1\x02\xb0\xdf]\xdf\x86@'
p3916
tp3917
bag2
(g3
(I0
tp3918
g5
tp3919
Rp3920
(I1
(I1
tp3921
g12
I00
S'\xff\xfe\xd3\x186\xed\x86@'
p3922
tp3923
bag2
(g3
(I0
tp3924
g5
tp3925
Rp3926
(I1
(I1
tp3927
g12
I00
S'*v\x83\xfcR\xfc\x86@'
p3928
tp3929
bag2
(g3
(I0
tp3930
g5
tp3931
Rp3932
(I1
(I1
tp3933
g12
I00
S'\xb3K\x1e\xb2\xc2\t\x87@'
p3934
tp3935
bag2
(g3
(I0
tp3936
g5
tp3937
Rp3938
(I1
(I1
tp3939
g12
I00
S'\xf3"\x06\xbc\x82\x18\x87@'
p3940
tp3941
bag2
(g3
(I0
tp3942
g5
tp3943
Rp3944
(I1
(I1
tp3945
g12
I00
S'\xc0\x12\xa08S(\x87@'
p3946
tp3947
bag2
(g3
(I0
tp3948
g5
tp3949
Rp3950
(I1
(I1
tp3951
g12
I00
S'\xd8:\xbe\xeeC6\x87@'
p3952
tp3953
bag2
(g3
(I0
tp3954
g5
tp3955
Rp3956
(I1
(I1
tp3957
g12
I00
S'\xd8j\x12%wE\x87@'
p3958
tp3959
bag2
(g3
(I0
tp3960
g5
tp3961
Rp3962
(I1
(I1
tp3963
g12
I00
S'\xc2\x8bS\xfb\xa8U\x87@'
p3964
tp3965
bag2
(g3
(I0
tp3966
g5
tp3967
Rp3968
(I1
(I1
tp3969
g12
I00
S'\xacb\xb3\xa2\xddc\x87@'
p3970
tp3971
bag2
(g3
(I0
tp3972
g5
tp3973
Rp3974
(I1
(I1
tp3975
g12
I00
S'}\xee\x14ORs\x87@'
p3976
tp3977
bag2
(g3
(I0
tp3978
g5
tp3979
Rp3980
(I1
(I1
tp3981
g12
I00
S'j\x1b\xe8h\xbf\x83\x87@'
p3982
tp3983
bag2
(g3
(I0
tp3984
g5
tp3985
Rp3986
(I1
(I1
tp3987
g12
I00
S'\x11\x1eF8\x1b\x92\x87@'
p3988
tp3989
bag2
(g3
(I0
tp3990
g5
tp3991
Rp3992
(I1
(I1
tp3993
g12
I00
S'\xe2\x8de\xb2\xb9\xa1\x87@'
p3994
tp3995
bag2
(g3
(I0
tp3996
g5
tp3997
Rp3998
(I1
(I1
tp3999
g12
I00
S'\xd6\xbb\x9b\xe5N\xb2\x87@'
p4000
tp4001
bag2
(g3
(I0
tp4002
g5
tp4003
Rp4004
(I1
(I1
tp4005
g12
I00
S'\xc6\xac2\xf6\xc3\xc0\x87@'
p4006
tp4007
bag2
(g3
(I0
tp4008
g5
tp4009
Rp4010
(I1
(I1
tp4011
g12
I00
S'<\xc3\xb0\x95\x81\xd0\x87@'
p4012
tp4013
bag2
(g3
(I0
tp4014
g5
tp4015
Rp4016
(I1
(I1
tp4017
g12
I00
S"I=\xbc'8\xe1\x87@"
p4018
tp4019
bag2
(g3
(I0
tp4020
g5
tp4021
Rp4022
(I1
(I1
tp4023
g12
I00
S'9\xb0\x8f\x0e\xc3\xef\x87@'
p4024
tp4025
bag2
(g3
(I0
tp4026
g5
tp4027
Rp4028
(I1
(I1
tp4029
g12
I00
S'&\xa9\x7f\xd7\x9c\xff\x87@'
p4030
tp4031
bag2
(g3
(I0
tp4032
g5
tp4033
Rp4034
(I1
(I1
tp4035
g12
I00
S'\xfc\xe6=.r\x10\x88@'
p4036
tp4037
bag2
(g3
(I0
tp4038
g5
tp4039
Rp4040
(I1
(I1
tp4041
g12
I00
S'\x96\xa4u\x18\x13\x1f\x88@'
p4042
tp4043
bag2
(g3
(I0
tp4044
g5
tp4045
Rp4046
(I1
(I1
tp4047
g12
I00
S'\xea-75\xcb-\x88@'
p4048
tp4049
bag2
(g3
(I0
tp4050
g5
tp4051
Rp4052
(I1
(I1
tp4053
g12
I00
S'\x00\xfcg\xa0\xa9<\x88@'
p4054
tp4055
bag2
(g3
(I0
tp4056
g5
tp4057
Rp4058
(I1
(I1
tp4059
g12
I00
S'u\xd0`\xc7\x9dG\x88@'
p4060
tp4061
bag2
(g3
(I0
tp4062
g5
tp4063
Rp4064
(I1
(I1
tp4065
g12
I00
S'\x90\xde\xd74\xb6N\x88@'
p4066
tp4067
bag2
(g3
(I0
tp4068
g5
tp4069
Rp4070
(I1
(I1
tp4071
g12
I00
S'\xce4M\xf1\xe9U\x88@'
p4072
tp4073
bag2
(g3
(I0
tp4074
g5
tp4075
Rp4076
(I1
(I1
tp4077
g12
I00
S'\x8b\x9dM\xeb<]\x88@'
p4078
tp4079
bag2
(g3
(I0
tp4080
g5
tp4081
Rp4082
(I1
(I1
tp4083
g12
I00
S'\xaf\x18\x89\xa6\xb0`\x88@'
p4084
tp4085
bag2
(g3
(I0
tp4086
g5
tp4087
Rp4088
(I1
(I1
tp4089
g12
I00
S'%\xb5a\xe4;d\x88@'
p4090
tp4091
bag2
(g3
(I0
tp4092
g5
tp4093
Rp4094
(I1
(I1
tp4095
g12
I00
S'&h]\xac\xe9c\x88@'
p4096
tp4097
bag2
(g3
(I0
tp4098
g5
tp4099
Rp4100
(I1
(I1
tp4101
g12
I00
S'rk\xe5\xe5\xa8c\x88@'
p4102
tp4103
bag2
(g3
(I0
tp4104
g5
tp4105
Rp4106
(I1
(I1
tp4107
g12
I00
S'I\xb1\x9ch\x19b\x88@'
p4108
tp4109
bag2
(g3
(I0
tp4110
g5
tp4111
Rp4112
(I1
(I1
tp4113
g12
I00
S'\xd3\x1f3\x02\x9b`\x88@'
p4114
tp4115
bag2
(g3
(I0
tp4116
g5
tp4117
Rp4118
(I1
(I1
tp4119
g12
I00
S'\xfcr%s\xafa\x88@'
p4120
tp4121
bag2
(g3
(I0
tp4122
g5
tp4123
Rp4124
(I1
(I1
tp4125
g12
I00
S'\xc0\xf1;fwa\x88@'
p4126
tp4127
bag2
(g3
(I0
tp4128
g5
tp4129
Rp4130
(I1
(I1
tp4131
g12
I00
S'T\xd5d\xfaEa\x88@'
p4132
tp4133
bag2
(g3
(I0
tp4134
g5
tp4135
Rp4136
(I1
(I1
tp4137
g12
I00
S',1\x04I\xd1_\x88@'
p4138
tp4139
bag2
(g3
(I0
tp4140
g5
tp4141
Rp4142
(I1
(I1
tp4143
g12
I00
S'\xbe\xd3\xd6\x92]^\x88@'
p4144
tp4145
bag2
(g3
(I0
tp4146
g5
tp4147
Rp4148
(I1
(I1
tp4149
g12
I00
S")'\x9f\xccp_\x88@"
p4150
tp4151
bag2
(g3
(I0
tp4152
g5
tp4153
Rp4154
(I1
(I1
tp4155
g12
I00
S'-\x18>\xad>_\x88@'
p4156
tp4157
bag2
(g3
(I0
tp4158
g5
tp4159
Rp4160
(I1
(I1
tp4161
g12
I00
S'\xf1QO\xe7\x0b_\x88@'
p4162
tp4163
bag2
(g3
(I0
tp4164
g5
tp4165
Rp4166
(I1
(I1
tp4167
g12
I00
S',z\xc7-8a\x88@'
p4168
tp4169
bag2
(g3
(I0
tp4170
g5
tp4171
Rp4172
(I1
(I1
tp4173
g12
I00
S'.|\x8d\xf0\x9e_\x88@'
p4174
tp4175
bag2
(g3
(I0
tp4176
g5
tp4177
Rp4178
(I1
(I1
tp4179
g12
I00
S'\xfb\x8b\x84\xa0w`\x88@'
p4180
tp4181
bag2
(g3
(I0
tp4182
g5
tp4183
Rp4184
(I1
(I1
tp4185
g12
I00
S'\x9c\xb4)\xc0\x93]\x88@'
p4186
tp4187
bag2
(g3
(I0
tp4188
g5
tp4189
Rp4190
(I1
(I1
tp4191
g12
I00
S'\xef +0\x1e]\x88@'
p4192
tp4193
bag2
(g3
(I0
tp4194
g5
tp4195
Rp4196
(I1
(I1
tp4197
g12
I00
S'\xd6vSJ\xb3^\x88@'
p4198
tp4199
bag2
(g3
(I0
tp4200
g5
tp4201
Rp4202
(I1
(I1
tp4203
g12
I00
S'"\x84\xb7G\x95\\\x88@'
p4204
tp4205
bag2
(g3
(I0
tp4206
g5
tp4207
Rp4208
(I1
(I1
tp4209
g12
I00
S'\xf6\x1d\r\xea\xbf\\\x88@'
p4210
tp4211
bag2
(g3
(I0
tp4212
g5
tp4213
Rp4214
(I1
(I1
tp4215
g12
I00
S'\x8f\xaf\x81\x0cE\\\x88@'
p4216
tp4217
bag2
(g3
(I0
tp4218
g5
tp4219
Rp4220
(I1
(I1
tp4221
g12
I00
S'\xd5<\xd3J\xb5Z\x88@'
p4222
tp4223
bag2
(g3
(I0
tp4224
g5
tp4225
Rp4226
(I1
(I1
tp4227
g12
I00
S'?#\xcf\xe8\xc8X\x88@'
p4228
tp4229
bag2
(g3
(I0
tp4230
g5
tp4231
Rp4232
(I1
(I1
tp4233
g12
I00
S'\x86\xad\xd4b\xcfX\x88@'
p4234
tp4235
bag2
(g3
(I0
tp4236
g5
tp4237
Rp4238
(I1
(I1
tp4239
g12
I00
S'[\x93\xb2\xf3AU\x88@'
p4240
tp4241
bag2
(g3
(I0
tp4242
g5
tp4243
Rp4244
(I1
(I1
tp4245
g12
I00
S'\r\xf0\xbd\xed\xe1S\x88@'
p4246
tp4247
bag2
(g3
(I0
tp4248
g5
tp4249
Rp4250
(I1
(I1
tp4251
g12
I00
S'\xa4\xf7A\x94oT\x88@'
p4252
tp4253
bag2
(g3
(I0
tp4254
g5
tp4255
Rp4256
(I1
(I1
tp4257
g12
I00
S'\x82(C\xa1{Q\x88@'
p4258
tp4259
bag2
(g3
(I0
tp4260
g5
tp4261
Rp4262
(I1
(I1
tp4263
g12
I00
S'\x94\x0fW\xe3\xaaP\x88@'
p4264
tp4265
bag2
(g3
(I0
tp4266
g5
tp4267
Rp4268
(I1
(I1
tp4269
g12
I00
S']\x19\x0b\xa4"O\x88@'
p4270
tp4271
bag2
(g3
(I0
tp4272
g5
tp4273
Rp4274
(I1
(I1
tp4275
g12
I00
S'\xa8w\x12h\xc2L\x88@'
p4276
tp4277
bag2
(g3
(I0
tp4278
g5
tp4279
Rp4280
(I1
(I1
tp4281
g12
I00
S'D\x033\xc1\xdfI\x88@'
p4282
tp4283
baa.