(lp0
(lp1
cnumpy.core.multiarray
_reconstruct
p2
(cnumpy
ndarray
p3
(I0
tp4
S'b'
p5
tp6
Rp7
(I1
(I1
tp8
cnumpy
dtype
p9
(S'f8'
p10
I0
I1
tp11
Rp12
(I3
S'<'
p13
NNNI-1
I-1
I0
tp14
bI00
S'\x00\x00\x00\x00\x00\xc4\x90@'
p15
tp16
bag2
(g3
(I0
tp17
g5
tp18
Rp19
(I1
(I1
tp20
g12
I00
S'\x00\x00\x00\x00\x00\xc4\x90@'
p21
tp22
bag2
(g3
(I0
tp23
g5
tp24
Rp25
(I1
(I1
tp26
g12
I00
S'\x00\x00\x00\x00\x00\xc4\x90@'
p27
tp28
bag2
(g3
(I0
tp29
g5
tp30
Rp31
(I1
(I1
tp32
g12
I00
S'_ql\xeb\xf9\xc3\x90@'
p33
tp34
bag2
(g3
(I0
tp35
g5
tp36
Rp37
(I1
(I1
tp38
g12
I00
S'\xcf\xc2\xa3\x14\xc9\xc3\x90@'
p39
tp40
bag2
(g3
(I0
tp41
g5
tp42
Rp43
(I1
(I1
tp44
g12
I00
S"\xb2\x1a\xd3'\x11\xc3\x90@"
p45
tp46
bag2
(g3
(I0
tp47
g5
tp48
Rp49
(I1
(I1
tp50
g12
I00
S'\xde\x93%s]\xc1\x90@'
p51
tp52
bag2
(g3
(I0
tp53
g5
tp54
Rp55
(I1
(I1
tp56
g12
I00
S'\xde\x8f\xe4:\xb8\xbf\x90@'
p57
tp58
bag2
(g3
(I0
tp59
g5
tp60
Rp61
(I1
(I1
tp62
g12
I00
S'\x17\xf7\xc3\xa2Y\xbe\x90@'
p63
tp64
bag2
(g3
(I0
tp65
g5
tp66
Rp67
(I1
(I1
tp68
g12
I00
S'E\x0bSv\xd6\xbd\x90@'
p69
tp70
bag2
(g3
(I0
tp71
g5
tp72
Rp73
(I1
(I1
tp74
g12
I00
S'\xd4\xd5\x1d\xf8\xfa\xbd\x90@'
p75
tp76
bag2
(g3
(I0
tp77
g5
tp78
Rp79
(I1
(I1
tp80
g12
I00
S'\x00\xbc\xd8\x05\xc3\xbe\x90@'
p81
tp82
bag2
(g3
(I0
tp83
g5
tp84
Rp85
(I1
(I1
tp86
g12
I00
S'7!&\x05\x0e\xc0\x90@'
p87
tp88
bag2
(g3
(I0
tp89
g5
tp90
Rp91
(I1
(I1
tp92
g12
I00
S'\xc5\xc4\xa7\xdb\x9c\xc1\x90@'
p93
tp94
bag2
(g3
(I0
tp95
g5
tp96
Rp97
(I1
(I1
tp98
g12
I00
S'1\xf4:\xe80\xc3\x90@'
p99
tp100
bag2
(g3
(I0
tp101
g5
tp102
Rp103
(I1
(I1
tp104
g12
I00
S'e\xc6Y\x19\xfb\xc3\x90@'
p105
tp106
bag2
(g3
(I0
tp107
g5
tp108
Rp109
(I1
(I1
tp110
g12
I00
S'\x03\xd9\x84\xe9x\xc3\x90@'
p111
tp112
bag2
(g3
(I0
tp113
g5
tp114
Rp115
(I1
(I1
tp116
g12
I00
S'Xbt0\x89\xc1\x90@'
p117
tp118
bag2
(g3
(I0
tp119
g5
tp120
Rp121
(I1
(I1
tp122
g12
I00
S'\xc0\xd3\x97 \xe7\xbd\x90@'
p123
tp124
bag2
(g3
(I0
tp125
g5
tp126
Rp127
(I1
(I1
tp128
g12
I00
S'D\x8d\xb3s\x00\xb9\x90@'
p129
tp130
bag2
(g3
(I0
tp131
g5
tp132
Rp133
(I1
(I1
tp134
g12
I00
S'\x8d\xf0\x82\\/\xb3\x90@'
p135
tp136
bag2
(g3
(I0
tp137
g5
tp138
Rp139
(I1
(I1
tp140
g12
I00
S'\xc7\xa0\xde@\xc0\xac\x90@'
p141
tp142
bag2
(g3
(I0
tp143
g5
tp144
Rp145
(I1
(I1
tp146
g12
I00
S'Sl\xbb\x88:\xa5\x90@'
p147
tp148
bag2
(g3
(I0
tp149
g5
tp150
Rp151
(I1
(I1
tp152
g12
I00
S'`\x90r\xd4y\x9d\x90@'
p153
tp154
bag2
(g3
(I0
tp155
g5
tp156
Rp157
(I1
(I1
tp158
g12
I00
S'\xc3\xb23\xd9\xaa\x95\x90@'
p159
tp160
bag2
(g3
(I0
tp161
g5
tp162
Rp163
(I1
(I1
tp164
g12
I00
S'\xa9\xd7\x98\xdfd\x8d\x90@'
p165
tp166
bag2
(g3
(I0
tp167
g5
tp168
Rp169
(I1
(I1
tp170
g12
I00
S"\xa1'[\xbd6\x85\x90@"
p171
tp172
bag2
(g3
(I0
tp173
g5
tp174
Rp175
(I1
(I1
tp176
g12
I00
S'\xd9\xc8d]\x1d}\x90@'
p177
tp178
bag2
(g3
(I0
tp179
g5
tp180
Rp181
(I1
(I1
tp182
g12
I00
S'{\xb5t\xd4\xcet\x90@'
p183
tp184
bag2
(g3
(I0
tp185
g5
tp186
Rp187
(I1
(I1
tp188
g12
I00
S'>\x8780\xaal\x90@'
p189
tp190
bag2
(g3
(I0
tp191
g5
tp192
Rp193
(I1
(I1
tp194
g12
I00
S'\xfa\x9a\x18\x8c^d\x90@'
p195
tp196
bag2
(g3
(I0
tp197
g5
tp198
Rp199
(I1
(I1
tp200
g12
I00
S'\xf7\x1bl*:\\\x90@'
p201
tp202
bag2
(g3
(I0
tp203
g5
tp204
Rp205
(I1
(I1
tp206
g12
I00
S'`\x9a-\xd1\xf4S\x90@'
p207
tp208
bag2
(g3
(I0
tp209
g5
tp210
Rp211
(I1
(I1
tp212
g12
I00
S'\x1d\x14\xba}\xd0K\x90@'
p213
tp214
bag2
(g3
(I0
tp215
g5
tp216
Rp217
(I1
(I1
tp218
g12
I00
S'v\xcd\x81W\xbaC\x90@'
p219
tp220
bag2
(g3
(I0
tp221
g5
tp222
Rp223
(I1
(I1
tp224
g12
I00
S'&\xf0\xcbz\x87;\x90@'
p225
tp226
bag2
(g3
(I0
tp227
g5
tp228
Rp229
(I1
(I1
tp230
g12
I00
S'\x14(\xe0=n3\x90@'
p231
tp232
bag2
(g3
(I0
tp233
g5
tp234
Rp235
(I1
(I1
tp236
g12
I00
S':\xc8\xe6\xb2e+\x90@'
p237
tp238
bag2
(g3
(I0
tp239
g5
tp240
Rp241
(I1
(I1
tp242
g12
I00
S'Z\x8eK\xdcC#\x90@'
p243
tp244
bag2
(g3
(I0
tp245
g5
tp246
Rp247
(I1
(I1
tp248
g12
I00
S'\x98$\xb2\xb4q\x1b\x90@'
p249
tp250
bag2
(g3
(I0
tp251
g5
tp252
Rp253
(I1
(I1
tp254
g12
I00
S'\xc5\xc7\x90\xa2V\x13\x90@'
p255
tp256
bag2
(g3
(I0
tp257
g5
tp258
Rp259
(I1
(I1
tp260
g12
I00
S'\x8b\x00\xcfz\x84\x0b\x90@'
p261
tp262
bag2
(g3
(I0
tp263
g5
tp264
Rp265
(I1
(I1
tp266
g12
I00
S'\x16\xdf\xb3\x03\xa2\x03\x90@'
p267
tp268
bag2
(g3
(I0
tp269
g5
tp270
Rp271
(I1
(I1
tp272
g12
I00
S'\x803\x89AZ\xf7\x8f@'
p273
tp274
bag2
(g3
(I0
tp275
g5
tp276
Rp277
(I1
(I1
tp278
g12
I00
S';\xd6\x1c\x0b\xb7\xe7\x8f@'
p279
tp280
bag2
(g3
(I0
tp281
g5
tp282
Rp283
(I1
(I1
tp284
g12
I00
S'\xabt\x9c\x12}\xda\x8f@'
p285
tp286
bag2
(g3
(I0
tp287
g5
tp288
Rp289
(I1
(I1
tp290
g12
I00
S'/0\xf2g\x81\xcf\x8f@'
p291
tp292
bag2
(g3
(I0
tp293
g5
tp294
Rp295
(I1
(I1
tp296
g12
I00
S'\x10\x9b\xbe\xc6\xd0\xc2\x8f@'
p297
tp298
bag2
(g3
(I0
tp299
g5
tp300
Rp301
(I1
(I1
tp302
g12
I00
S'2%L\x19\x99\xb4\x8f@'
p303
tp304
bag2
(g3
(I0
tp305
g5
tp306
Rp307
(I1
(I1
tp308
g12
I00
S'$\xaa-3b\xa5\x8f@'
p309
tp310
bag2
(g3
(I0
tp311
g5
tp312
Rp313
(I1
(I1
tp314
g12
I00
S'`\x957/\xae\x95\x8f@'
p315
tp316
bag2
(g3
(I0
tp317
g5
tp318
Rp319
(I1
(I1
tp320
g12
I00
S'#\x07\x96\x95\xaf\x85\x8f@'
p321
tp322
bag2
(g3
(I0
tp323
g5
tp324
Rp325
(I1
(I1
tp326
g12
I00
S'\xba\x8eo\xc2\xcfu\x8f@'
p327
tp328
bag2
(g3
(I0
tp329
g5
tp330
Rp331
(I1
(I1
tp332
g12
I00
S'\x9cd78ih\x8f@'
p333
tp334
bag2
(g3
(I0
tp335
g5
tp336
Rp337
(I1
(I1
tp338
g12
I00
S'\x04>6\xab\x7f]\x8f@'
p339
tp340
bag2
(g3
(I0
tp341
g5
tp342
Rp343
(I1
(I1
tp344
g12
I00
S'\xc0D\x9c\xc7\xf6T\x8f@'
p345
tp346
bag2
(g3
(I0
tp347
g5
tp348
Rp349
(I1
(I1
tp350
g12
I00
S'u6\x1a\xb0CJ\x8f@'
p351
tp352
bag2
(g3
(I0
tp353
g5
tp354
Rp355
(I1
(I1
tp356
g12
I00
S'\x1d\x11;j!B\x8f@'
p357
tp358
bag2
(g3
(I0
tp359
g5
tp360
Rp361
(I1
(I1
tp362
g12
I00
S'YM92f<\x8f@'
p363
tp364
bag2
(g3
(I0
tp365
g5
tp366
Rp367
(I1
(I1
tp368
g12
I00
S'\x97\x99\xb5\xb6\x149\x8f@'
p369
tp370
bag2
(g3
(I0
tp371
g5
tp372
Rp373
(I1
(I1
tp374
g12
I00
S'\x1dZ/\n\xc43\x8f@'
p375
tp376
bag2
(g3
(I0
tp377
g5
tp378
Rp379
(I1
(I1
tp380
g12
I00
S'3Q/\xec\xdc0\x8f@'
p381
tp382
bag2
(g3
(I0
tp383
g5
tp384
Rp385
(I1
(I1
tp386
g12
I00
S'\x84^\xec\xae\x830\x8f@'
p387
tp388
bag2
(g3
(I0
tp389
g5
tp390
Rp391
(I1
(I1
tp392
g12
I00
S'\x7f\xd58\x01\x04.\x8f@'
p393
tp394
bag2
(g3
(I0
tp395
g5
tp396
Rp397
(I1
(I1
tp398
g12
I00
S'\xe9\xf7\xd2\x1b\xf0-\x8f@'
p399
tp400
bag2
(g3
(I0
tp401
g5
tp402
Rp403
(I1
(I1
tp404
g12
I00
S'\xfaq\x10\xed\xd5+\x8f@'
p405
tp406
bag2
(g3
(I0
tp407
g5
tp408
Rp409
(I1
(I1
tp410
g12
I00
S'\x86\x82\x1a\x99(,\x8f@'
p411
tp412
bag2
(g3
(I0
tp413
g5
tp414
Rp415
(I1
(I1
tp416
g12
I00
S'z\x10\x1f$q*\x8f@'
p417
tp418
bag2
(g3
(I0
tp419
g5
tp420
Rp421
(I1
(I1
tp422
g12
I00
S'\xae\xb1\x16\xac(+\x8f@'
p423
tp424
bag2
(g3
(I0
tp425
g5
tp426
Rp427
(I1
(I1
tp428
g12
I00
S'\xb5\xd4\x88\xeb\xb5)\x8f@'
p429
tp430
bag2
(g3
(I0
tp431
g5
tp432
Rp433
(I1
(I1
tp434
g12
I00
S'^\x1c\x90x\xcd*\x8f@'
p435
tp436
bag2
(g3
(I0
tp437
g5
tp438
Rp439
(I1
(I1
tp440
g12
I00
S'\xc4d\xa5_\xbc)\x8f@'
p441
tp442
bag2
(g3
(I0
tp443
g5
tp444
Rp445
(I1
(I1
tp446
g12
I00
S'Q\xae\xbe\xd5\x17+\x8f@'
p447
tp448
bag2
(g3
(I0
tp449
g5
tp450
Rp451
(I1
(I1
tp452
g12
I00
S'\xf9<\xce5d*\x8f@'
p453
tp454
bag2
(g3
(I0
tp455
g5
tp456
Rp457
(I1
(I1
tp458
g12
I00
S"\x1aG,\xdb\x83'\x8f@"
p459
tp460
bag2
(g3
(I0
tp461
g5
tp462
Rp463
(I1
(I1
tp464
g12
I00
S"\xcec\xd5\x03+'\x8f@"
p465
tp466
bag2
(g3
(I0
tp467
g5
tp468
Rp469
(I1
(I1
tp470
g12
I00
S'\x1e\x9c\xa6\xe6\xa5$\x8f@'
p471
tp472
bag2
(g3
(I0
tp473
g5
tp474
Rp475
(I1
(I1
tp476
g12
I00
S'\xc5\xbd\t(\x89$\x8f@'
p477
tp478
bag2
(g3
(I0
tp479
g5
tp480
Rp481
(I1
(I1
tp482
g12
I00
S'2\xfeJ\x8aX"\x8f@'
p483
tp484
bag2
(g3
(I0
tp485
g5
tp486
Rp487
(I1
(I1
tp488
g12
I00
S'\xb0\x1c*\x9f\x91"\x8f@'
p489
tp490
bag2
(g3
(I0
tp491
g5
tp492
Rp493
(I1
(I1
tp494
g12
I00
S'\x80gv\xaf>%\x8f@'
p495
tp496
bag2
(g3
(I0
tp497
g5
tp498
Rp499
(I1
(I1
tp500
g12
I00
S'\xe3W\\\x14\xd4%\x8f@'
p501
tp502
bag2
(g3
(I0
tp503
g5
tp504
Rp505
(I1
(I1
tp506
g12
I00
S'e\x14.@K$\x8f@'
p507
tp508
bag2
(g3
(I0
tp509
g5
tp510
Rp511
(I1
(I1
tp512
g12
I00
S'\xdd\xdb\xa4^\xa2 \x8f@'
p513
tp514
bag2
(g3
(I0
tp515
g5
tp516
Rp517
(I1
(I1
tp518
g12
I00
S'\x8f\xe8\xd5\x10\x86\x1f\x8f@'
p519
tp520
bag2
(g3
(I0
tp521
g5
tp522
Rp523
(I1
(I1
tp524
g12
I00
S'\xd8\xb2\xec\xe8I\x1c\x8f@'
p525
tp526
bag2
(g3
(I0
tp527
g5
tp528
Rp529
(I1
(I1
tp530
g12
I00
S'\x15\xa8\x06\x81\xea\x16\x8f@'
p531
tp532
bag2
(g3
(I0
tp533
g5
tp534
Rp535
(I1
(I1
tp536
g12
I00
S"u\xce\x07'\xd5\x0f\x8f@"
p537
tp538
bag2
(g3
(I0
tp539
g5
tp540
Rp541
(I1
(I1
tp542
g12
I00
S'\xd7\xf5\xb5\xbf\x90\x07\x8f@'
p543
tp544
bag2
(g3
(I0
tp545
g5
tp546
Rp547
(I1
(I1
tp548
g12
I00
S"D'\xec\xac|\xfe\x8e@"
p549
tp550
bag2
(g3
(I0
tp551
g5
tp552
Rp553
(I1
(I1
tp554
g12
I00
S'c\x0b|\xd6\xcd\xf4\x8e@'
p555
tp556
bag2
(g3
(I0
tp557
g5
tp558
Rp559
(I1
(I1
tp560
g12
I00
S'\xbd\xe4\xeb\xf2\x96\xea\x8e@'
p561
tp562
bag2
(g3
(I0
tp563
g5
tp564
Rp565
(I1
(I1
tp566
g12
I00
S'\x01\x86F\xb1\xd0\xdf\x8e@'
p567
tp568
bag2
(g3
(I0
tp569
g5
tp570
Rp571
(I1
(I1
tp572
g12
I00
S'r _2~\xd4\x8e@'
p573
tp574
bag2
(g3
(I0
tp575
g5
tp576
Rp577
(I1
(I1
tp578
g12
I00
S'\r\xbb\x91\xcc\xac\xc8\x8e@'
p579
tp580
bag2
(g3
(I0
tp581
g5
tp582
Rp583
(I1
(I1
tp584
g12
I00
S'\n\xaa\xde\xd4i\xbc\x8e@'
p585
tp586
bag2
(g3
(I0
tp587
g5
tp588
Rp589
(I1
(I1
tp590
g12
I00
S'\xf7\xce\xc7\x0c\xc5\xaf\x8e@'
p591
tp592
bag2
(g3
(I0
tp593
g5
tp594
Rp595
(I1
(I1
tp596
g12
I00
S'\xad\x08\xbf\xfa\xcb\xa2\x8e@'
p597
tp598
bag2
(g3
(I0
tp599
g5
tp600
Rp601
(I1
(I1
tp602
g12
I00
S'+\xff"\x8c\x8e\x95\x8e@'
p603
tp604
bag2
(g3
(I0
tp605
g5
tp606
Rp607
(I1
(I1
tp608
g12
I00
S'\x14\x0f\x95\x05\x18\x88\x8e@'
p609
tp610
bag2
(g3
(I0
tp611
g5
tp612
Rp613
(I1
(I1
tp614
g12
I00
S'\x9bH\xdd\x1buz\x8e@'
p615
tp616
bag2
(g3
(I0
tp617
g5
tp618
Rp619
(I1
(I1
tp620
g12
I00
S'\xde\x07\x1e\xf7\xafl\x8e@'
p621
tp622
bag2
(g3
(I0
tp623
g5
tp624
Rp625
(I1
(I1
tp626
g12
I00
S'\x13b4Z\xda^\x8e@'
p627
tp628
bag2
(g3
(I0
tp629
g5
tp630
Rp631
(I1
(I1
tp632
g12
I00
S'\x90\xd6\xc82\x12Q\x8e@'
p633
tp634
bag2
(g3
(I0
tp635
g5
tp636
Rp637
(I1
(I1
tp638
g12
I00
S'k`;\x98VC\x8e@'
p639
tp640
bag2
(g3
(I0
tp641
g5
tp642
Rp643
(I1
(I1
tp644
g12
I00
S'\xd4\xd7\xa2\xe6\xdc4\x8e@'
p645
tp646
bag2
(g3
(I0
tp647
g5
tp648
Rp649
(I1
(I1
tp650
g12
I00
S'\x98c\xf8\xcc\xa9%\x8e@'
p651
tp652
bag2
(g3
(I0
tp653
g5
tp654
Rp655
(I1
(I1
tp656
g12
I00
S'8v\xb3\xa3\xce\x15\x8e@'
p657
tp658
bag2
(g3
(I0
tp659
g5
tp660
Rp661
(I1
(I1
tp662
g12
I00
S'y\x06Y$"\x05\x8e@'
p663
tp664
bag2
(g3
(I0
tp665
g5
tp666
Rp667
(I1
(I1
tp668
g12
I00
S'\x18d\xea\x85\x1c\xf4\x8d@'
p669
tp670
bag2
(g3
(I0
tp671
g5
tp672
Rp673
(I1
(I1
tp674
g12
I00
S'\xf6\xa1\x83S\xff\xe2\x8d@'
p675
tp676
bag2
(g3
(I0
tp677
g5
tp678
Rp679
(I1
(I1
tp680
g12
I00
S'{j\xcb0\xd3\xd1\x8d@'
p681
tp682
bag2
(g3
(I0
tp683
g5
tp684
Rp685
(I1
(I1
tp686
g12
I00
S'\xbc\xc9U\x92\x9a\xc0\x8d@'
p687
tp688
bag2
(g3
(I0
tp689
g5
tp690
Rp691
(I1
(I1
tp692
g12
I00
S"'X4*X\xaf\x8d@"
p693
tp694
bag2
(g3
(I0
tp695
g5
tp696
Rp697
(I1
(I1
tp698
g12
I00
S'a\xa6e\xed\x0c\x9e\x8d@'
p699
tp700
bag2
(g3
(I0
tp701
g5
tp702
Rp703
(I1
(I1
tp704
g12
I00
S'\x99\xf7,>\xb8\x8c\x8d@'
p705
tp706
bag2
(g3
(I0
tp707
g5
tp708
Rp709
(I1
(I1
tp710
g12
I00
S'\x04C3\xe9\x97{\x8d@'
p711
tp712
bag2
(g3
(I0
tp713
g5
tp714
Rp715
(I1
(I1
tp716
g12
I00
S'\xbd\x0el&Fj\x8d@'
p717
tp718
bag2
(g3
(I0
tp719
g5
tp720
Rp721
(I1
(I1
tp722
g12
I00
S'\x98\xef]\xde\x1eY\x8d@'
p723
tp724
bag2
(g3
(I0
tp725
g5
tp726
Rp727
(I1
(I1
tp728
g12
I00
S'\x12\x91\xed\xb2\xc3G\x8d@'
p729
tp730
bag2
(g3
(I0
tp731
g5
tp732
Rp733
(I1
(I1
tp734
g12
I00
S'\xe0\n\x98H\x906\x8d@'
p735
tp736
bag2
(g3
(I0
tp737
g5
tp738
Rp739
(I1
(I1
tp740
g12
I00
S"'\xc8\x07\td%\x8d@"
p741
tp742
bag2
(g3
(I0
tp743
g5
tp744
Rp745
(I1
(I1
tp746
g12
I00
S'@K\x9e\xb3\xfd\x13\x8d@'
p747
tp748
bag2
(g3
(I0
tp749
g5
tp750
Rp751
(I1
(I1
tp752
g12
I00
S'=%DE\x83\x02\x8d@'
p753
tp754
bag2
(g3
(I0
tp755
g5
tp756
Rp757
(I1
(I1
tp758
g12
I00
S'=qo\x93\xa7\xf3\x8c@'
p759
tp760
bag2
(g3
(I0
tp761
g5
tp762
Rp763
(I1
(I1
tp764
g12
I00
S'\xb9\x8d\xcf,\r\xe7\x8c@'
p765
tp766
bag2
(g3
(I0
tp767
g5
tp768
Rp769
(I1
(I1
tp770
g12
I00
S'.\x85\xef\xd3X\xd8\x8c@'
p771
tp772
bag2
(g3
(I0
tp773
g5
tp774
Rp775
(I1
(I1
tp776
g12
I00
S' \x0c\xd8\xfb\xeb\xc7\x8c@'
p777
tp778
bag2
(g3
(I0
tp779
g5
tp780
Rp781
(I1
(I1
tp782
g12
I00
S'\xaa\xb3R1\xc2\xb6\x8c@'
p783
tp784
bag2
(g3
(I0
tp785
g5
tp786
Rp787
(I1
(I1
tp788
g12
I00
S'\x1f\x94\xb0\xe3\x14\xa5\x8c@'
p789
tp790
bag2
(g3
(I0
tp791
g5
tp792
Rp793
(I1
(I1
tp794
g12
I00
S'\xb3B\xb9\x03,\x93\x8c@'
p795
tp796
bag2
(g3
(I0
tp797
g5
tp798
Rp799
(I1
(I1
tp800
g12
I00
S'\xa4zQ\x16E\x83\x8c@'
p801
tp802
bag2
(g3
(I0
tp803
g5
tp804
Rp805
(I1
(I1
tp806
g12
I00
S'\xa9\xf0\xd6\xec\x0cu\x8c@'
p807
tp808
bag2
(g3
(I0
tp809
g5
tp810
Rp811
(I1
(I1
tp812
g12
I00
S'H\x87\xf61Qd\x8c@'
p813
tp814
bag2
(g3
(I0
tp815
g5
tp816
Rp817
(I1
(I1
tp818
g12
I00
S'\xb6M|\xbe\xd7U\x8c@'
p819
tp820
bag2
(g3
(I0
tp821
g5
tp822
Rp823
(I1
(I1
tp824
g12
I00
S'U\xec\xc9\xe4\x1cI\x8c@'
p825
tp826
bag2
(g3
(I0
tp827
g5
tp828
Rp829
(I1
(I1
tp830
g12
I00
S'\ny\xd4\x81\xe99\x8c@'
p831
tp832
bag2
(g3
(I0
tp833
g5
tp834
Rp835
(I1
(I1
tp836
g12
I00
S'\x96\x91\xa7Wi,\x8c@'
p837
tp838
bag2
(g3
(I0
tp839
g5
tp840
Rp841
(I1
(I1
tp842
g12
I00
S'6Oq;\x08!\x8c@'
p843
tp844
bag2
(g3
(I0
tp845
g5
tp846
Rp847
(I1
(I1
tp848
g12
I00
S'\x00-\xd9R\xa9\x15\x8c@'
p849
tp850
bag2
(g3
(I0
tp851
g5
tp852
Rp853
(I1
(I1
tp854
g12
I00
S'\xec\xc4b\x93\xeb\x0b\x8c@'
p855
tp856
bag2
(g3
(I0
tp857
g5
tp858
Rp859
(I1
(I1
tp860
g12
I00
S'\xc4Ewg\xba\xff\x8b@'
p861
tp862
bag2
(g3
(I0
tp863
g5
tp864
Rp865
(I1
(I1
tp866
g12
I00
S'w\x13I\xb1\x9d\xf5\x8b@'
p867
tp868
bag2
(g3
(I0
tp869
g5
tp870
Rp871
(I1
(I1
tp872
g12
I00
S'n\x12*z\x07\xe9\x8b@'
p873
tp874
bag2
(g3
(I0
tp875
g5
tp876
Rp877
(I1
(I1
tp878
g12
I00
S'\xb2pM\xc5\x83\xde\x8b@'
p879
tp880
bag2
(g3
(I0
tp881
g5
tp882
Rp883
(I1
(I1
tp884
g12
I00
S'\x93-\xc8\xe4\x89\xd1\x8b@'
p885
tp886
bag2
(g3
(I0
tp887
g5
tp888
Rp889
(I1
(I1
tp890
g12
I00
S'\x06\xcc\xc2[\xc4\xc6\x8b@'
p891
tp892
bag2
(g3
(I0
tp893
g5
tp894
Rp895
(I1
(I1
tp896
g12
I00
S'k\xdb-\n\xac\xb9\x8b@'
p897
tp898
bag2
(g3
(I0
tp899
g5
tp900
Rp901
(I1
(I1
tp902
g12
I00
S'4\xd4\x83$a\xaa\x8b@'
p903
tp904
bag2
(g3
(I0
tp905
g5
tp906
Rp907
(I1
(I1
tp908
g12
I00
S'x\xf2\x01\xdd\xb5\x9d\x8b@'
p909
tp910
bag2
(g3
(I0
tp911
g5
tp912
Rp913
(I1
(I1
tp914
g12
I00
S'\x8az\x934\xe7\x8e\x8b@'
p915
tp916
bag2
(g3
(I0
tp917
g5
tp918
Rp919
(I1
(I1
tp920
g12
I00
S'"\x90\'\xb8\xb7\x82\x8b@'
p921
tp922
bag2
(g3
(I0
tp923
g5
tp924
Rp925
(I1
(I1
tp926
g12
I00
S'K\x7fJ\xa7^t\x8b@'
p927
tp928
bag2
(g3
(I0
tp929
g5
tp930
Rp931
(I1
(I1
tp932
g12
I00
S'\xd4\xaaZy\xd6d\x8b@'
p933
tp934
bag2
(g3
(I0
tp935
g5
tp936
Rp937
(I1
(I1
tp938
g12
I00
S'\xc1-\x85\xe1\x9fS\x8b@'
p939
tp940
bag2
(g3
(I0
tp941
g5
tp942
Rp943
(I1
(I1
tp944
g12
I00
S'\x87\xe8\xae\x1e\xeaD\x8b@'
p945
tp946
bag2
(g3
(I0
tp947
g5
tp948
Rp949
(I1
(I1
tp950
g12
I00
S'\xb1\xcc\xa70[4\x8b@'
p951
tp952
bag2
(g3
(I0
tp953
g5
tp954
Rp955
(I1
(I1
tp956
g12
I00
S'2\xa8\x19\xe0-"\x8b@'
p957
tp958
bag2
(g3
(I0
tp959
g5
tp960
Rp961
(I1
(I1
tp962
g12
I00
S'\x87D9^\xad\x15\x8b@'
p963
tp964
bag2
(g3
(I0
tp965
g5
tp966
Rp967
(I1
(I1
tp968
g12
I00
S'h]Q\xfc\xe7\n\x8b@'
p969
tp970
bag2
(g3
(I0
tp971
g5
tp972
Rp973
(I1
(I1
tp974
g12
I00
S'\xb1\x9a# \xe6\x01\x8b@'
p975
tp976
bag2
(g3
(I0
tp977
g5
tp978
Rp979
(I1
(I1
tp980
g12
I00
S'\xc2\xaf\x16\x8f\x93\xfa\x8a@'
p981
tp982
bag2
(g3
(I0
tp983
g5
tp984
Rp985
(I1
(I1
tp986
g12
I00
S'\x82\x88\x8bJ\xcb\xf4\x8a@'
p987
tp988
bag2
(g3
(I0
tp989
g5
tp990
Rp991
(I1
(I1
tp992
g12
I00
S'\xfbD\x89qb\xf0\x8a@'
p993
tp994
bag2
(g3
(I0
tp995
g5
tp996
Rp997
(I1
(I1
tp998
g12
I00
S'\\\xb6\x82\xbd\x86\xed\x8a@'
p999
tp1000
bag2
(g3
(I0
tp1001
g5
tp1002
Rp1003
(I1
(I1
tp1004
g12
I00
S'/\x12S\xe6\xcb\xe8\x8a@'
p1005
tp1006
bag2
(g3
(I0
tp1007
g5
tp1008
Rp1009
(I1
(I1
tp1010
g12
I00
S'\x1b\xba\xc7\x9d\xbc\xe1\x8a@'
p1011
tp1012
bag2
(g3
(I0
tp1013
g5
tp1014
Rp1015
(I1
(I1
tp1016
g12
I00
S'G\xb1\xdf\xfa}\xdc\x8a@'
p1017
tp1018
bag2
(g3
(I0
tp1019
g5
tp1020
Rp1021
(I1
(I1
tp1022
g12
I00
S'\xd2A#\x1fr\xd5\x8a@'
p1023
tp1024
bag2
(g3
(I0
tp1025
g5
tp1026
Rp1027
(I1
(I1
tp1028
g12
I00
S'\x9d)\x7f\xe0\x11\xcc\x8a@'
p1029
tp1030
bag2
(g3
(I0
tp1031
g5
tp1032
Rp1033
(I1
(I1
tp1034
g12
I00
S'\x19\xd8\xb5\xf2\xfb\xc0\x8a@'
p1035
tp1036
bag2
(g3
(I0
tp1037
g5
tp1038
Rp1039
(I1
(I1
tp1040
g12
I00
S'\x00Y\x1e\x9a$\xb4\x8a@'
p1041
tp1042
bag2
(g3
(I0
tp1043
g5
tp1044
Rp1045
(I1
(I1
tp1046
g12
I00
S'}\x80\xf0\x0b\x15\xa5\x8a@'
p1047
tp1048
bag2
(g3
(I0
tp1049
g5
tp1050
Rp1051
(I1
(I1
tp1052
g12
I00
S'\xd6g\x05\xe4E\x98\x8a@'
p1053
tp1054
bag2
(g3
(I0
tp1055
g5
tp1056
Rp1057
(I1
(I1
tp1058
g12
I00
S'\xe9\x8exen\x89\x8a@'
p1059
tp1060
bag2
(g3
(I0
tp1061
g5
tp1062
Rp1063
(I1
(I1
tp1064
g12
I00
S'\xa6\x03\xa0~ey\x8a@'
p1065
tp1066
bag2
(g3
(I0
tp1067
g5
tp1068
Rp1069
(I1
(I1
tp1070
g12
I00
S'?\x0c\x01\xf9\x8eh\x8a@'
p1071
tp1072
bag2
(g3
(I0
tp1073
g5
tp1074
Rp1075
(I1
(I1
tp1076
g12
I00
S'\x08]\x06eDV\x8a@'
p1077
tp1078
bag2
(g3
(I0
tp1079
g5
tp1080
Rp1081
(I1
(I1
tp1082
g12
I00
S'X\xc9\xe0\xed5F\x8a@'
p1083
tp1084
bag2
(g3
(I0
tp1085
g5
tp1086
Rp1087
(I1
(I1
tp1088
g12
I00
S']\xd6\xf2l\x8a4\x8a@'
p1089
tp1090
bag2
(g3
(I0
tp1091
g5
tp1092
Rp1093
(I1
(I1
tp1094
g12
I00
S'\xbe\x07;\xba\x0e%\x8a@'
p1095
tp1096
bag2
(g3
(I0
tp1097
g5
tp1098
Rp1099
(I1
(I1
tp1100
g12
I00
S'\xce\xd9\xea\xa4\xe6\x13\x8a@'
p1101
tp1102
bag2
(g3
(I0
tp1103
g5
tp1104
Rp1105
(I1
(I1
tp1106
g12
I00
S'\xda\xafX\xfc\xf3\x04\x8a@'
p1107
tp1108
bag2
(g3
(I0
tp1109
g5
tp1110
Rp1111
(I1
(I1
tp1112
g12
I00
S'\x1c[\x8d"=\xf4\x89@'
p1113
tp1114
bag2
(g3
(I0
tp1115
g5
tp1116
Rp1117
(I1
(I1
tp1118
g12
I00
S'\r\x93\xc6\x14\x08\xe2\x89@'
p1119
tp1120
bag2
(g3
(I0
tp1121
g5
tp1122
Rp1123
(I1
(I1
tp1124
g12
I00
S'\xc2\xeb1c\xe2\xd1\x89@'
p1125
tp1126
bag2
(g3
(I0
tp1127
g5
tp1128
Rp1129
(I1
(I1
tp1130
g12
I00
S'\xa1]\xb5K+\xc0\x89@'
p1131
tp1132
bag2
(g3
(I0
tp1133
g5
tp1134
Rp1135
(I1
(I1
tp1136
g12
I00
S'\x08\xc1\x05\xa1\x82\xb0\x89@'
p1137
tp1138
bag2
(g3
(I0
tp1139
g5
tp1140
Rp1141
(I1
(I1
tp1142
g12
I00
S'\xcd\x02\xa4Y8\x9f\x89@'
p1143
tp1144
bag2
(g3
(I0
tp1145
g5
tp1146
Rp1147
(I1
(I1
tp1148
g12
I00
S'\xd0\xf5\x15\x94\xff\x8f\x89@'
p1149
tp1150
bag2
(g3
(I0
tp1151
g5
tp1152
Rp1153
(I1
(I1
tp1154
g12
I00
S'.2\xe9\xd1\x17\x7f\x89@'
p1155
tp1156
bag2
(g3
(I0
tp1157
g5
tp1158
Rp1159
(I1
(I1
tp1160
g12
I00
S'32\x86\x97Bp\x89@'
p1161
tp1162
bag2
(g3
(I0
tp1163
g5
tp1164
Rp1165
(I1
(I1
tp1166
g12
I00
S'\xa7\x1ef\xec\x88c\x89@'
p1167
tp1168
bag2
(g3
(I0
tp1169
g5
tp1170
Rp1171
(I1
(I1
tp1172
g12
I00
S'\x91bM\xe4(X\x89@'
p1173
tp1174
bag2
(g3
(I0
tp1175
g5
tp1176
Rp1177
(I1
(I1
tp1178
g12
I00
S'\xc31\xab\x9f\xe5J\x89@'
p1179
tp1180
bag2
(g3
(I0
tp1181
g5
tp1182
Rp1183
(I1
(I1
tp1184
g12
I00
S'\xf4\x9f~8\xb5;\x89@'
p1185
tp1186
bag2
(g3
(I0
tp1187
g5
tp1188
Rp1189
(I1
(I1
tp1190
g12
I00
S'\x19M\xb9\xbe\xc2-\x89@'
p1191
tp1192
bag2
(g3
(I0
tp1193
g5
tp1194
Rp1195
(I1
(I1
tp1196
g12
I00
S'B\x98\xe5\x93*!\x89@'
p1197
tp1198
bag2
(g3
(I0
tp1199
g5
tp1200
Rp1201
(I1
(I1
tp1202
g12
I00
S'\x7fn\xbbZ\xd8\x12\x89@'
p1203
tp1204
bag2
(g3
(I0
tp1205
g5
tp1206
Rp1207
(I1
(I1
tp1208
g12
I00
S'\x92\xcf\xb2\x18\xc4\x05\x89@'
p1209
tp1210
bag2
(g3
(I0
tp1211
g5
tp1212
Rp1213
(I1
(I1
tp1214
g12
I00
S'hG\xfe$\n\xfa\x88@'
p1215
tp1216
bag2
(g3
(I0
tp1217
g5
tp1218
Rp1219
(I1
(I1
tp1220
g12
I00
S'<\xa2\xf9\x08\x9f\xef\x88@'
p1221
tp1222
bag2
(g3
(I0
tp1223
g5
tp1224
Rp1225
(I1
(I1
tp1226
g12
I00
S"#'&&g\xe6\x88@"
p1227
tp1228
bag2
(g3
(I0
tp1229
g5
tp1230
Rp1231
(I1
(I1
tp1232
g12
I00
S'\x97%=K@\xde\x88@'
p1233
tp1234
bag2
(g3
(I0
tp1235
g5
tp1236
Rp1237
(I1
(I1
tp1238
g12
I00
S'\xe9\x89_\xd6\x04\xd7\x88@'
p1239
tp1240
bag2
(g3
(I0
tp1241
g5
tp1242
Rp1243
(I1
(I1
tp1244
g12
I00
S'\xba#\xc4\x82\x93\xd0\x88@'
p1245
tp1246
bag2
(g3
(I0
tp1247
g5
tp1248
Rp1249
(I1
(I1
tp1250
g12
I00
S'\xc7\x1e\x1d^\xf2\xca\x88@'
p1251
tp1252
bag2
(g3
(I0
tp1253
g5
tp1254
Rp1255
(I1
(I1
tp1256
g12
I00
S'orj_\x1b\xc6\x88@'
p1257
tp1258
bag2
(g3
(I0
tp1259
g5
tp1260
Rp1261
(I1
(I1
tp1262
g12
I00
S'\x16\x10\x04\x1d\x02\xc2\x88@'
p1263
tp1264
bag2
(g3
(I0
tp1265
g5
tp1266
Rp1267
(I1
(I1
tp1268
g12
I00
S'}Yi\xec\x96\xbe\x88@'
p1269
tp1270
bag2
(g3
(I0
tp1271
g5
tp1272
Rp1273
(I1
(I1
tp1274
g12
I00
S'\xef\xae\xd2\x02\x14\xbc\x88@'
p1275
tp1276
bag2
(g3
(I0
tp1277
g5
tp1278
Rp1279
(I1
(I1
tp1280
g12
I00
S'\x02\xc14\xf9M\xb8\x88@'
p1281
tp1282
bag2
(g3
(I0
tp1283
g5
tp1284
Rp1285
(I1
(I1
tp1286
g12
I00
S'\xf6j\xf0\x01c\xb3\x88@'
p1287
tp1288
bag2
(g3
(I0
tp1289
g5
tp1290
Rp1291
(I1
(I1
tp1292
g12
I00
S't\x8dbjP\xad\x88@'
p1293
tp1294
bag2
(g3
(I0
tp1295
g5
tp1296
Rp1297
(I1
(I1
tp1298
g12
I00
S'\x7f\xafs\xb9\x10\xa6\x88@'
p1299
tp1300
bag2
(g3
(I0
tp1301
g5
tp1302
Rp1303
(I1
(I1
tp1304
g12
I00
S'o\xafM\xc4\xaf\x9d\x88@'
p1305
tp1306
bag2
(g3
(I0
tp1307
g5
tp1308
Rp1309
(I1
(I1
tp1310
g12
I00
S'\xc0\x9eE\x7fi\x93\x88@'
p1311
tp1312
bag2
(g3
(I0
tp1313
g5
tp1314
Rp1315
(I1
(I1
tp1316
g12
I00
S'L\xc8-}L\x8a\x88@'
p1317
tp1318
bag2
(g3
(I0
tp1319
g5
tp1320
Rp1321
(I1
(I1
tp1322
g12
I00
S'\xa3n\xe3\xcf\x18\x80\x88@'
p1323
tp1324
bag2
(g3
(I0
tp1325
g5
tp1326
Rp1327
(I1
(I1
tp1328
g12
I00
S'\xb4\xa5\x08\xee\x01t\x88@'
p1329
tp1330
bag2
(g3
(I0
tp1331
g5
tp1332
Rp1333
(I1
(I1
tp1334
g12
I00
S'FHd\xae\xdbf\x88@'
p1335
tp1336
bag2
(g3
(I0
tp1337
g5
tp1338
Rp1339
(I1
(I1
tp1340
g12
I00
S'\x01\xd1\x1c=\xaaX\x88@'
p1341
tp1342
bag2
(g3
(I0
tp1343
g5
tp1344
Rp1345
(I1
(I1
tp1346
g12
I00
S'\xa5\x12`\xd7\x92K\x88@'
p1347
tp1348
bag2
(g3
(I0
tp1349
g5
tp1350
Rp1351
(I1
(I1
tp1352
g12
I00
S'\x86\xa9\xd4k\xae<\x88@'
p1353
tp1354
bag2
(g3
(I0
tp1355
g5
tp1356
Rp1357
(I1
(I1
tp1358
g12
I00
S'\xa9\xe8\x1e\xcf\xc7,\x88@'
p1359
tp1360
bag2
(g3
(I0
tp1361
g5
tp1362
Rp1363
(I1
(I1
tp1364
g12
I00
S'\x13\x8a%\xbd@\x1b\x88@'
p1365
tp1366
bag2
(g3
(I0
tp1367
g5
tp1368
Rp1369
(I1
(I1
tp1370
g12
I00
S'"\x07\xee\xe9\xcc\n\x88@'
p1371
tp1372
bag2
(g3
(I0
tp1373
g5
tp1374
Rp1375
(I1
(I1
tp1376
g12
I00
S'\x8f\x1e\xd3\x05\xf3\xf8\x87@'
p1377
tp1378
bag2
(g3
(I0
tp1379
g5
tp1380
Rp1381
(I1
(I1
tp1382
g12
I00
S'=T\xf8)\x1d\xe8\x87@'
p1383
tp1384
bag2
(g3
(I0
tp1385
g5
tp1386
Rp1387
(I1
(I1
tp1388
g12
I00
S'\x9e\xd9u\xd7\x95\xd8\x87@'
p1389
tp1390
bag2
(g3
(I0
tp1391
g5
tp1392
Rp1393
(I1
(I1
tp1394
g12
I00
S'\x1f9\x92w\xb1\xc7\x87@'
p1395
tp1396
bag2
(g3
(I0
tp1397
g5
tp1398
Rp1399
(I1
(I1
tp1400
g12
I00
S'\xf2R\xe2\xcb\xb8\xb5\x87@'
p1401
tp1402
bag2
(g3
(I0
tp1403
g5
tp1404
Rp1405
(I1
(I1
tp1406
g12
I00
S'\x90\xc6\x11N\xe0\xa2\x87@'
p1407
tp1408
bag2
(g3
(I0
tp1409
g5
tp1410
Rp1411
(I1
(I1
tp1412
g12
I00
S'\x80\xdb\x19\xac\x96\x90\x87@'
p1413
tp1414
bag2
(g3
(I0
tp1415
g5
tp1416
Rp1417
(I1
(I1
tp1418
g12
I00
S'\xf0(Xyc}\x87@'
p1419
tp1420
bag2
(g3
(I0
tp1421
g5
tp1422
Rp1423
(I1
(I1
tp1424
g12
I00
S'\x9f\xbf\xb9T\xd2j\x87@'
p1425
tp1426
bag2
(g3
(I0
tp1427
g5
tp1428
Rp1429
(I1
(I1
tp1430
g12
I00
S'\xcf\x9aW\x9a\xf3X\x87@'
p1431
tp1432
bag2
(g3
(I0
tp1433
g5
tp1434
Rp1435
(I1
(I1
tp1436
g12
I00
S'\x95;K\x89\xe9G\x87@'
p1437
tp1438
bag2
(g3
(I0
tp1439
g5
tp1440
Rp1441
(I1
(I1
tp1442
g12
I00
S'\x89S\x95\xf9\xcb7\x87@'
p1443
tp1444
bag2
(g3
(I0
tp1445
g5
tp1446
Rp1447
(I1
(I1
tp1448
g12
I00
S'\x80C\x984\xa5(\x87@'
p1449
tp1450
bag2
(g3
(I0
tp1451
g5
tp1452
Rp1453
(I1
(I1
tp1454
g12
I00
S'\xe9s\x9f\x80{\x1a\x87@'
p1455
tp1456
bag2
(g3
(I0
tp1457
g5
tp1458
Rp1459
(I1
(I1
tp1460
g12
I00
S'\xf3s\xb5\tn\r\x87@'
p1461
tp1462
bag2
(g3
(I0
tp1463
g5
tp1464
Rp1465
(I1
(I1
tp1466
g12
I00
S'\xca\x84\xfbs|\x01\x87@'
p1467
tp1468
bag2
(g3
(I0
tp1469
g5
tp1470
Rp1471
(I1
(I1
tp1472
g12
I00
S'\xffy\x0bY\x96\xf6\x86@'
p1473
tp1474
bag2
(g3
(I0
tp1475
g5
tp1476
Rp1477
(I1
(I1
tp1478
g12
I00
S'\x0fVC\x98\xa6\xec\x86@'
p1479
tp1480
bag2
(g3
(I0
tp1481
g5
tp1482
Rp1483
(I1
(I1
tp1484
g12
I00
S'nv\x9cV\x93\xe3\x86@'
p1485
tp1486
bag2
(g3
(I0
tp1487
g5
tp1488
Rp1489
(I1
(I1
tp1490
g12
I00
S'\x8a\xccM\x8bC\xdb\x86@'
p1491
tp1492
bag2
(g3
(I0
tp1493
g5
tp1494
Rp1495
(I1
(I1
tp1496
g12
I00
S'$I\xc0\x9e\x9c\xd3\x86@'
p1497
tp1498
bag2
(g3
(I0
tp1499
g5
tp1500
Rp1501
(I1
(I1
tp1502
g12
I00
S'\xd8\xbf\x94C\x87\xcc\x86@'
p1503
tp1504
bag2
(g3
(I0
tp1505
g5
tp1506
Rp1507
(I1
(I1
tp1508
g12
I00
S'\x84;6\x94\xee\xc5\x86@'
p1509
tp1510
bag2
(g3
(I0
tp1511
g5
tp1512
Rp1513
(I1
(I1
tp1514
g12
I00
S'k\xe0\xf4=\xc0\xbf\x86@'
p1515
tp1516
bag2
(g3
(I0
tp1517
g5
tp1518
Rp1519
(I1
(I1
tp1520
g12
I00
S'[\x9f\x81\x8d\xeb\xb9\x86@'
p1521
tp1522
bag2
(g3
(I0
tp1523
g5
tp1524
Rp1525
(I1
(I1
tp1526
g12
I00
S'`\x94I\x9fb\xb4\x86@'
p1527
tp1528
bag2
(g3
(I0
tp1529
g5
tp1530
Rp1531
(I1
(I1
tp1532
g12
I00
S'\x9a\xc9\x8d\x06\x1a\xaf\x86@'
p1533
tp1534
bag2
(g3
(I0
tp1535
g5
tp1536
Rp1537
(I1
(I1
tp1538
g12
I00
S'g\x9e\xe3\x99\x06\xaa\x86@'
p1539
tp1540
bag2
(g3
(I0
tp1541
g5
tp1542
Rp1543
(I1
(I1
tp1544
g12
I00
S'%\xde\x14B\x1f\xa5\x86@'
p1545
tp1546
bag2
(g3
(I0
tp1547
g5
tp1548
Rp1549
(I1
(I1
tp1550
g12
I00
S'\x88\x0e\xc6\xe4\\\xa0\x86@'
p1551
tp1552
bag2
(g3
(I0
tp1553
g5
tp1554
Rp1555
(I1
(I1
tp1556
g12
I00
S'\x92\xc4"\xd1\xb8\x9b\x86@'
p1557
tp1558
bag2
(g3
(I0
tp1559
g5
tp1560
Rp1561
(I1
(I1
tp1562
g12
I00
S'\xce?\\\x1a-\x97\x86@'
p1563
tp1564
bag2
(g3
(I0
tp1565
g5
tp1566
Rp1567
(I1
(I1
tp1568
g12
I00
S'\xe8\xee\x10\xb6\xb5\x92\x86@'
p1569
tp1570
bag2
(g3
(I0
tp1571
g5
tp1572
Rp1573
(I1
(I1
tp1574
g12
I00
S'B|hxN\x8e\x86@'
p1575
tp1576
bag2
(g3
(I0
tp1577
g5
tp1578
Rp1579
(I1
(I1
tp1580
g12
I00
S'sAF\x1a\xf4\x89\x86@'
p1581
tp1582
bag2
(g3
(I0
tp1583
g5
tp1584
Rp1585
(I1
(I1
tp1586
g12
I00
S'\xdf\xe8x{\xa3\x85\x86@'
p1587
tp1588
bag2
(g3
(I0
tp1589
g5
tp1590
Rp1591
(I1
(I1
tp1592
g12
I00
S'\x8a\x8e\x01dZ\x81\x86@'
p1593
tp1594
bag2
(g3
(I0
tp1595
g5
tp1596
Rp1597
(I1
(I1
tp1598
g12
I00
S'A\xf5\xfev\x16}\x86@'
p1599
tp1600
bag2
(g3
(I0
tp1601
g5
tp1602
Rp1603
(I1
(I1
tp1604
g12
I00
S'c- _\xd6x\x86@'
p1605
tp1606
bag2
(g3
(I0
tp1607
g5
tp1608
Rp1609
(I1
(I1
tp1610
g12
I00
S'd\xbcBr\x98t\x86@'
p1611
tp1612
bag2
(g3
(I0
tp1613
g5
tp1614
Rp1615
(I1
(I1
tp1616
g12
I00
S'\xf2\xf1\xde_[p\x86@'
p1617
tp1618
bag2
(g3
(I0
tp1619
g5
tp1620
Rp1621
(I1
(I1
tp1622
g12
I00
S'EQ\xb2\xcf\x1el\x86@'
p1623
tp1624
bag2
(g3
(I0
tp1625
g5
tp1626
Rp1627
(I1
(I1
tp1628
g12
I00
S'\xf8k\xe9\x98\xe1g\x86@'
p1629
tp1630
bag2
(g3
(I0
tp1631
g5
tp1632
Rp1633
(I1
(I1
tp1634
g12
I00
S"[\x83\x04'\xa3c\x86@"
p1635
tp1636
bag2
(g3
(I0
tp1637
g5
tp1638
Rp1639
(I1
(I1
tp1640
g12
I00
S'\x1d\xdf\x8b\x90b_\x86@'
p1641
tp1642
bag2
(g3
(I0
tp1643
g5
tp1644
Rp1645
(I1
(I1
tp1646
g12
I00
S'\xc3\xefo\x0c [\x86@'
p1647
tp1648
bag2
(g3
(I0
tp1649
g5
tp1650
Rp1651
(I1
(I1
tp1652
g12
I00
S' \x97\x8e\xad\xdbV\x86@'
p1653
tp1654
bag2
(g3
(I0
tp1655
g5
tp1656
Rp1657
(I1
(I1
tp1658
g12
I00
S'\xa2\x82\xfdn\x94R\x86@'
p1659
tp1660
bag2
(g3
(I0
tp1661
g5
tp1662
Rp1663
(I1
(I1
tp1664
g12
I00
S'8?\xba\xb2JN\x86@'
p1665
tp1666
bag2
(g3
(I0
tp1667
g5
tp1668
Rp1669
(I1
(I1
tp1670
g12
I00
S'X\xe9\xef\xbd\xfdI\x86@'
p1671
tp1672
bag2
(g3
(I0
tp1673
g5
tp1674
Rp1675
(I1
(I1
tp1676
g12
I00
S'\x84;6\x02\xaeE\x86@'
p1677
tp1678
bag2
(g3
(I0
tp1679
g5
tp1680
Rp1681
(I1
(I1
tp1682
g12
I00
S'\xee\xcf\xbf\xdd[A\x86@'
p1683
tp1684
bag2
(g3
(I0
tp1685
g5
tp1686
Rp1687
(I1
(I1
tp1688
g12
I00
S'\x12\x99\xcd\xb8\x07=\x86@'
p1689
tp1690
bag2
(g3
(I0
tp1691
g5
tp1692
Rp1693
(I1
(I1
tp1694
g12
I00
S'z\xea\x16\xe6\xb08\x86@'
p1695
tp1696
bag2
(g3
(I0
tp1697
g5
tp1698
Rp1699
(I1
(I1
tp1700
g12
I00
S'\x86X\xee7W4\x86@'
p1701
tp1702
bag2
(g3
(I0
tp1703
g5
tp1704
Rp1705
(I1
(I1
tp1706
g12
I00
S'\xac\xe0\xe4\xa8\xf0/\x86@'
p1707
tp1708
bag2
(g3
(I0
tp1709
g5
tp1710
Rp1711
(I1
(I1
tp1712
g12
I00
S'\xac\x19H\xf2Z+\x86@'
p1713
tp1714
bag2
(g3
(I0
tp1715
g5
tp1716
Rp1717
(I1
(I1
tp1718
g12
I00
S'\x15\x08J8,&\x86@'
p1719
tp1720
bag2
(g3
(I0
tp1721
g5
tp1722
Rp1723
(I1
(I1
tp1724
g12
I00
S'\xbfq\xd8B\xe1 \x86@'
p1725
tp1726
bag2
(g3
(I0
tp1727
g5
tp1728
Rp1729
(I1
(I1
tp1730
g12
I00
S'\xa3/\x9d\x18\x81\x1b\x86@'
p1731
tp1732
bag2
(g3
(I0
tp1733
g5
tp1734
Rp1735
(I1
(I1
tp1736
g12
I00
S'}\x10p\xfb\xbd\x15\x86@'
p1737
tp1738
bag2
(g3
(I0
tp1739
g5
tp1740
Rp1741
(I1
(I1
tp1742
g12
I00
S'\x829\xb3\xdc\xb0\x0f\x86@'
p1743
tp1744
bag2
(g3
(I0
tp1745
g5
tp1746
Rp1747
(I1
(I1
tp1748
g12
I00
S'\x8ayl\xa5\xa2\x08\x86@'
p1749
tp1750
bag2
(g3
(I0
tp1751
g5
tp1752
Rp1753
(I1
(I1
tp1754
g12
I00
S'v\x81\xd9"<\x01\x86@'
p1755
tp1756
bag2
(g3
(I0
tp1757
g5
tp1758
Rp1759
(I1
(I1
tp1760
g12
I00
S'\xe3\x1b\x81\x16}\xf9\x85@'
p1761
tp1762
bag2
(g3
(I0
tp1763
g5
tp1764
Rp1765
(I1
(I1
tp1766
g12
I00
S'\x1c>C\x82g\xf1\x85@'
p1767
tp1768
bag2
(g3
(I0
tp1769
g5
tp1770
Rp1771
(I1
(I1
tp1772
g12
I00
S'{\xf9\xda\xb0G\xe8\x85@'
p1773
tp1774
bag2
(g3
(I0
tp1775
g5
tp1776
Rp1777
(I1
(I1
tp1778
g12
I00
S'u\x84\xe1L\xda\xde\x85@'
p1779
tp1780
bag2
(g3
(I0
tp1781
g5
tp1782
Rp1783
(I1
(I1
tp1784
g12
I00
S'\xb5\xc7h\xdb!\xd5\x85@'
p1785
tp1786
bag2
(g3
(I0
tp1787
g5
tp1788
Rp1789
(I1
(I1
tp1790
g12
I00
S'\xf5<,\x13r\xca\x85@'
p1791
tp1792
bag2
(g3
(I0
tp1793
g5
tp1794
Rp1795
(I1
(I1
tp1796
g12
I00
S'\xafu\xf1\x08\xdc\xbf\x85@'
p1797
tp1798
bag2
(g3
(I0
tp1799
g5
tp1800
Rp1801
(I1
(I1
tp1802
g12
I00
S'B\xe5\x0c\xcaX\xb4\x85@'
p1803
tp1804
bag2
(g3
(I0
tp1805
g5
tp1806
Rp1807
(I1
(I1
tp1808
g12
I00
S'\x0c\xef#s\xe1\xa8\x85@'
p1809
tp1810
bag2
(g3
(I0
tp1811
g5
tp1812
Rp1813
(I1
(I1
tp1814
g12
I00
S'\xc5C*\xab\x85\x9c\x85@'
p1815
tp1816
bag2
(g3
(I0
tp1817
g5
tp1818
Rp1819
(I1
(I1
tp1820
g12
I00
S'9^O\xa3*\x90\x85@'
p1821
tp1822
bag2
(g3
(I0
tp1823
g5
tp1824
Rp1825
(I1
(I1
tp1826
g12
I00
S'\xf9\x13{l\xf2\x82\x85@'
p1827
tp1828
bag2
(g3
(I0
tp1829
g5
tp1830
Rp1831
(I1
(I1
tp1832
g12
I00
S'\xfe\x10\x12\xd8\xb1u\x85@'
p1833
tp1834
bag2
(g3
(I0
tp1835
g5
tp1836
Rp1837
(I1
(I1
tp1838
g12
I00
S'\n\xb9\xe7f\x9ag\x85@'
p1839
tp1840
bag2
(g3
(I0
tp1841
g5
tp1842
Rp1843
(I1
(I1
tp1844
g12
I00
S'\x89\xf9\xa6\xcedY\x85@'
p1845
tp1846
bag2
(g3
(I0
tp1847
g5
tp1848
Rp1849
(I1
(I1
tp1850
g12
I00
S'\xa6\x8a(\xcdlJ\x85@'
p1851
tp1852
bag2
(g3
(I0
tp1853
g5
tp1854
Rp1855
(I1
(I1
tp1856
g12
I00
S'yfC\xe6\xb3:\x85@'
p1857
tp1858
bag2
(g3
(I0
tp1859
g5
tp1860
Rp1861
(I1
(I1
tp1862
g12
I00
S'\xd2\x08?\xb0\xe0*\x85@'
p1863
tp1864
bag2
(g3
(I0
tp1865
g5
tp1866
Rp1867
(I1
(I1
tp1868
g12
I00
S'\x1f\xfc\x1d\xdd\x85\x1a\x85@'
p1869
tp1870
bag2
(g3
(I0
tp1871
g5
tp1872
Rp1873
(I1
(I1
tp1874
g12
I00
S'.\xb74\xb9_\n\x85@'
p1875
tp1876
bag2
(g3
(I0
tp1877
g5
tp1878
Rp1879
(I1
(I1
tp1880
g12
I00
S'\xd0X\xa6\x8b\xf3\xf9\x84@'
p1881
tp1882
bag2
(g3
(I0
tp1883
g5
tp1884
Rp1885
(I1
(I1
tp1886
g12
I00
S'(U\x13J\xde\xe9\x84@'
p1887
tp1888
bag2
(g3
(I0
tp1889
g5
tp1890
Rp1891
(I1
(I1
tp1892
g12
I00
S'\xd8\xe4Ha\x89\xd9\x84@'
p1893
tp1894
bag2
(g3
(I0
tp1895
g5
tp1896
Rp1897
(I1
(I1
tp1898
g12
I00
S"@\xd4'I\xce\xc9\x84@"
p1899
tp1900
bag2
(g3
(I0
tp1901
g5
tp1902
Rp1903
(I1
(I1
tp1904
g12
I00
S'\xc1\xd7\xdd\xcc\xd2\xba\x84@'
p1905
tp1906
bag2
(g3
(I0
tp1907
g5
tp1908
Rp1909
(I1
(I1
tp1910
g12
I00
S'\x08r\x0e\xea(\xab\x84@'
p1911
tp1912
bag2
(g3
(I0
tp1913
g5
tp1914
Rp1915
(I1
(I1
tp1916
g12
I00
S'\xc2\xb9R\x96\xf6\x9a\x84@'
p1917
tp1918
bag2
(g3
(I0
tp1919
g5
tp1920
Rp1921
(I1
(I1
tp1922
g12
I00
S'F\x99\xe8\xd9z\x8a\x84@'
p1923
tp1924
bag2
(g3
(I0
tp1925
g5
tp1926
Rp1927
(I1
(I1
tp1928
g12
I00
S'5,m6\xedy\x84@'
p1929
tp1930
bag2
(g3
(I0
tp1931
g5
tp1932
Rp1933
(I1
(I1
tp1934
g12
I00
S'0\x91\xbd\xfa\xb8i\x84@'
p1935
tp1936
bag2
(g3
(I0
tp1937
g5
tp1938
Rp1939
(I1
(I1
tp1940
g12
I00
S'\x05\xf7\xf9\x04\xe1Y\x84@'
p1941
tp1942
bag2
(g3
(I0
tp1943
g5
tp1944
Rp1945
(I1
(I1
tp1946
g12
I00
S'\x08\xb5\xa0<\x82J\x84@'
p1947
tp1948
bag2
(g3
(I0
tp1949
g5
tp1950
Rp1951
(I1
(I1
tp1952
g12
I00
S'HB\xf9F\xb2;\x84@'
p1953
tp1954
bag2
(g3
(I0
tp1955
g5
tp1956
Rp1957
(I1
(I1
tp1958
g12
I00
S'6N\xcb\x8a\x81-\x84@'
p1959
tp1960
bag2
(g3
(I0
tp1961
g5
tp1962
Rp1963
(I1
(I1
tp1964
g12
I00
S'@}\x89Dt\x1f\x84@'
p1965
tp1966
bag2
(g3
(I0
tp1967
g5
tp1968
Rp1969
(I1
(I1
tp1970
g12
I00
S'\xc6\x8f\xea>\x9f\x11\x84@'
p1971
tp1972
bag2
(g3
(I0
tp1973
g5
tp1974
Rp1975
(I1
(I1
tp1976
g12
I00
S"~'\xcb\x07\x03\x04\x84@"
p1977
tp1978
bag2
(g3
(I0
tp1979
g5
tp1980
Rp1981
(I1
(I1
tp1982
g12
I00
S'\x9b\xf0OX\xaf\xf6\x83@'
p1983
tp1984
bag2
(g3
(I0
tp1985
g5
tp1986
Rp1987
(I1
(I1
tp1988
g12
I00
S'S\x9f\xd3\xfe\xb4\xe9\x83@'
p1989
tp1990
bag2
(g3
(I0
tp1991
g5
tp1992
Rp1993
(I1
(I1
tp1994
g12
I00
S'~\xafi\x1a\x13\xdd\x83@'
p1995
tp1996
bag2
(g3
(I0
tp1997
g5
tp1998
Rp1999
(I1
(I1
tp2000
g12
I00
S'\xeey\xb1\xf1\xc2\xd0\x83@'
p2001
tp2002
bag2
(g3
(I0
tp2003
g5
tp2004
Rp2005
(I1
(I1
tp2006
g12
I00
S'Y\x8e]|\xbc\xc4\x83@'
p2007
tp2008
bag2
(g3
(I0
tp2009
g5
tp2010
Rp2011
(I1
(I1
tp2012
g12
I00
S'7\x9aa\xbb\xf7\xb8\x83@'
p2013
tp2014
bag2
(g3
(I0
tp2015
g5
tp2016
Rp2017
(I1
(I1
tp2018
g12
I00
S"S\x7f'\nl\xad\x83@"
p2019
tp2020
bag2
(g3
(I0
tp2021
g5
tp2022
Rp2023
(I1
(I1
tp2024
g12
I00
S'\xd5\x13\xbe\xf0\x10\xa2\x83@'
p2025
tp2026
bag2
(g3
(I0
tp2027
g5
tp2028
Rp2029
(I1
(I1
tp2030
g12
I00
S'nu;w\xdf\x96\x83@'
p2031
tp2032
bag2
(g3
(I0
tp2033
g5
tp2034
Rp2035
(I1
(I1
tp2036
g12
I00
S'\xbe\xa8\xfc\x01\xd1\x8b\x83@'
p2037
tp2038
bag2
(g3
(I0
tp2039
g5
tp2040
Rp2041
(I1
(I1
tp2042
g12
I00
S'\xcb\xc6\x9f\xfe\xde\x80\x83@'
p2043
tp2044
bag2
(g3
(I0
tp2045
g5
tp2046
Rp2047
(I1
(I1
tp2048
g12
I00
S'Z\x97\x0f\xdd\x04v\x83@'
p2049
tp2050
bag2
(g3
(I0
tp2051
g5
tp2052
Rp2053
(I1
(I1
tp2054
g12
I00
S'\x0e\xa3\xac">k\x83@'
p2055
tp2056
bag2
(g3
(I0
tp2057
g5
tp2058
Rp2059
(I1
(I1
tp2060
g12
I00
S'\x1a\xaa&\x93\x86`\x83@'
p2061
tp2062
bag2
(g3
(I0
tp2063
g5
tp2064
Rp2065
(I1
(I1
tp2066
g12
I00
S'\x95K\xd9\x9a\xdaU\x83@'
p2067
tp2068
bag2
(g3
(I0
tp2069
g5
tp2070
Rp2071
(I1
(I1
tp2072
g12
I00
S'\x9a\x03\x12\xd47K\x83@'
p2073
tp2074
bag2
(g3
(I0
tp2075
g5
tp2076
Rp2077
(I1
(I1
tp2078
g12
I00
S'\xda\xf3\xc5\x88\x9b@\x83@'
p2079
tp2080
bag2
(g3
(I0
tp2081
g5
tp2082
Rp2083
(I1
(I1
tp2084
g12
I00
S'`e\x90\x01\x046\x83@'
p2085
tp2086
bag2
(g3
(I0
tp2087
g5
tp2088
Rp2089
(I1
(I1
tp2090
g12
I00
S'\x1e\xc3&\x89o+\x83@'
p2091
tp2092
bag2
(g3
(I0
tp2093
g5
tp2094
Rp2095
(I1
(I1
tp2096
g12
I00
S'4F\x93r\xdc \x83@'
p2097
tp2098
bag2
(g3
(I0
tp2099
g5
tp2100
Rp2101
(I1
(I1
tp2102
g12
I00
S'"\xa5\xcb\xa2I\x16\x83@'
p2103
tp2104
bag2
(g3
(I0
tp2105
g5
tp2106
Rp2107
(I1
(I1
tp2108
g12
I00
S'\xbaB\xc1\xfd\xb5\x0b\x83@'
p2109
tp2110
bag2
(g3
(I0
tp2111
g5
tp2112
Rp2113
(I1
(I1
tp2114
g12
I00
S'\xa4`<\x18!\x01\x83@'
p2115
tp2116
bag2
(g3
(I0
tp2117
g5
tp2118
Rp2119
(I1
(I1
tp2120
g12
I00
S'\xd3D\xa7\xfa\x89\xf6\x82@'
p2121
tp2122
bag2
(g3
(I0
tp2123
g5
tp2124
Rp2125
(I1
(I1
tp2126
g12
I00
S'\x1a\xca\xde\xd2\xef\xeb\x82@'
p2127
tp2128
bag2
(g3
(I0
tp2129
g5
tp2130
Rp2131
(I1
(I1
tp2132
g12
I00
S'j\x14\xa1wR\xe1\x82@'
p2133
tp2134
bag2
(g3
(I0
tp2135
g5
tp2136
Rp2137
(I1
(I1
tp2138
g12
I00
S'\x8b"\x05x\xb1\xd6\x82@'
p2139
tp2140
bag2
(g3
(I0
tp2141
g5
tp2142
Rp2143
(I1
(I1
tp2144
g12
I00
S'\x1fB\xd5\x91\x12\xcc\x82@'
p2145
tp2146
bag2
(g3
(I0
tp2147
g5
tp2148
Rp2149
(I1
(I1
tp2150
g12
I00
S'\xf0\x85\x8c\xa9h\xc1\x82@'
p2151
tp2152
bag2
(g3
(I0
tp2153
g5
tp2154
Rp2155
(I1
(I1
tp2156
g12
I00
S'f\xd8.k\xd5\xb6\x82@'
p2157
tp2158
bag2
(g3
(I0
tp2159
g5
tp2160
Rp2161
(I1
(I1
tp2162
g12
I00
S'\xed@7\xedy\xac\x82@'
p2163
tp2164
bag2
(g3
(I0
tp2165
g5
tp2166
Rp2167
(I1
(I1
tp2168
g12
I00
S'\x08!O\xb8z\xa1\x82@'
p2169
tp2170
bag2
(g3
(I0
tp2171
g5
tp2172
Rp2173
(I1
(I1
tp2174
g12
I00
S's\xbe3\x926\x96\x82@'
p2175
tp2176
bag2
(g3
(I0
tp2177
g5
tp2178
Rp2179
(I1
(I1
tp2180
g12
I00
S'\x9co\xc0\xd9\x8a\x88\x82@'
p2181
tp2182
bag2
(g3
(I0
tp2183
g5
tp2184
Rp2185
(I1
(I1
tp2186
g12
I00
S'\x01\xf6\xc8\xfb(z\x82@'
p2187
tp2188
bag2
(g3
(I0
tp2189
g5
tp2190
Rp2191
(I1
(I1
tp2192
g12
I00
S'9\xd1(\x1c\xb5j\x82@'
p2193
tp2194
bag2
(g3
(I0
tp2195
g5
tp2196
Rp2197
(I1
(I1
tp2198
g12
I00
S'F<t5p[\x82@'
p2199
tp2200
bag2
(g3
(I0
tp2201
g5
tp2202
Rp2203
(I1
(I1
tp2204
g12
I00
S'\xf53\xcaB\xceL\x82@'
p2205
tp2206
bag2
(g3
(I0
tp2207
g5
tp2208
Rp2209
(I1
(I1
tp2210
g12
I00
S'$\xa8\x01\xbd(>\x82@'
p2211
tp2212
bag2
(g3
(I0
tp2213
g5
tp2214
Rp2215
(I1
(I1
tp2216
g12
I00
S'\x97\xe3A}\xe7/\x82@'
p2217
tp2218
bag2
(g3
(I0
tp2219
g5
tp2220
Rp2221
(I1
(I1
tp2222
g12
I00
S'0\x166\xec\xf7!\x82@'
p2223
tp2224
bag2
(g3
(I0
tp2225
g5
tp2226
Rp2227
(I1
(I1
tp2228
g12
I00
S'\x02$\xec\xe9A\x14\x82@'
p2229
tp2230
bag2
(g3
(I0
tp2231
g5
tp2232
Rp2233
(I1
(I1
tp2234
g12
I00
S'\x99\x1c\xb2\xc9\xcb\x05\x82@'
p2235
tp2236
bag2
(g3
(I0
tp2237
g5
tp2238
Rp2239
(I1
(I1
tp2240
g12
I00
S'@\x05\xc8\xc7\xc0\xf6\x81@'
p2241
tp2242
bag2
(g3
(I0
tp2243
g5
tp2244
Rp2245
(I1
(I1
tp2246
g12
I00
S'.zRW\xb6\xe7\x81@'
p2247
tp2248
bag2
(g3
(I0
tp2249
g5
tp2250
Rp2251
(I1
(I1
tp2252
g12
I00
S'\x80\xac\xf3\x89\x04\xd8\x81@'
p2253
tp2254
bag2
(g3
(I0
tp2255
g5
tp2256
Rp2257
(I1
(I1
tp2258
g12
I00
S'5\x125\xe4\x8a\xc6\x81@'
p2259
tp2260
bag2
(g3
(I0
tp2261
g5
tp2262
Rp2263
(I1
(I1
tp2264
g12
I00
S'H\xe6\xd7m\xfe\xb4\x81@'
p2265
tp2266
bag2
(g3
(I0
tp2267
g5
tp2268
Rp2269
(I1
(I1
tp2270
g12
I00
S'\xee\xe3\xbe\xb6:\xa3\x81@'
p2271
tp2272
bag2
(g3
(I0
tp2273
g5
tp2274
Rp2275
(I1
(I1
tp2276
g12
I00
S'Y\xa5\xff0F\x91\x81@'
p2277
tp2278
bag2
(g3
(I0
tp2279
g5
tp2280
Rp2281
(I1
(I1
tp2282
g12
I00
S'\x10\x9a\xfa\x99\x0f\x7f\x81@'
p2283
tp2284
bag2
(g3
(I0
tp2285
g5
tp2286
Rp2287
(I1
(I1
tp2288
g12
I00
S'\x87|LH\x9el\x81@'
p2289
tp2290
bag2
(g3
(I0
tp2291
g5
tp2292
Rp2293
(I1
(I1
tp2294
g12
I00
S'\x0c7!\xbc\x0cZ\x81@'
p2295
tp2296
bag2
(g3
(I0
tp2297
g5
tp2298
Rp2299
(I1
(I1
tp2300
g12
I00
S'\xdb\x82\xd7\xf4uG\x81@'
p2301
tp2302
bag2
(g3
(I0
tp2303
g5
tp2304
Rp2305
(I1
(I1
tp2306
g12
I00
S".\x0fy'\xfc4\x81@"
p2307
tp2308
bag2
(g3
(I0
tp2309
g5
tp2310
Rp2311
(I1
(I1
tp2312
g12
I00
S'\xb3\xde\xa0\xdb\xa7"\x81@'
p2313
tp2314
bag2
(g3
(I0
tp2315
g5
tp2316
Rp2317
(I1
(I1
tp2318
g12
I00
S'q\xe0=\xed~\x10\x81@'
p2319
tp2320
bag2
(g3
(I0
tp2321
g5
tp2322
Rp2323
(I1
(I1
tp2324
g12
I00
S'&\xc6\r\x11\xcf\xfe\x80@'
p2325
tp2326
bag2
(g3
(I0
tp2327
g5
tp2328
Rp2329
(I1
(I1
tp2330
g12
I00
S'-\xf7RDC\xed\x80@'
p2331
tp2332
bag2
(g3
(I0
tp2333
g5
tp2334
Rp2335
(I1
(I1
tp2336
g12
I00
S'\xf0A~\x02\xe6\xdb\x80@'
p2337
tp2338
bag2
(g3
(I0
tp2339
g5
tp2340
Rp2341
(I1
(I1
tp2342
g12
I00
S'\xc8\xa9\xb4l\xc9\xca\x80@'
p2343
tp2344
bag2
(g3
(I0
tp2345
g5
tp2346
Rp2347
(I1
(I1
tp2348
g12
I00
S'\xdc@\x9fH\x17\xba\x80@'
p2349
tp2350
bag2
(g3
(I0
tp2351
g5
tp2352
Rp2353
(I1
(I1
tp2354
g12
I00
S'\x834T\xc3\xae\xa9\x80@'
p2355
tp2356
bag2
(g3
(I0
tp2357
g5
tp2358
Rp2359
(I1
(I1
tp2360
g12
I00
S'\x82Z \xf8o\x99\x80@'
p2361
tp2362
bag2
(g3
(I0
tp2363
g5
tp2364
Rp2365
(I1
(I1
tp2366
g12
I00
S'4\xca\xaf\x9dO\x89\x80@'
p2367
tp2368
bag2
(g3
(I0
tp2369
g5
tp2370
Rp2371
(I1
(I1
tp2372
g12
I00
S'g\xd2\xe7H!{\x80@'
p2373
tp2374
bag2
(g3
(I0
tp2375
g5
tp2376
Rp2377
(I1
(I1
tp2378
g12
I00
S'`\xda\xe8:\x82l\x80@'
p2379
tp2380
bag2
(g3
(I0
tp2381
g5
tp2382
Rp2383
(I1
(I1
tp2384
g12
I00
S"\xebA'h\xcf]\x80@"
p2385
tp2386
bag2
(g3
(I0
tp2387
g5
tp2388
Rp2389
(I1
(I1
tp2390
g12
I00
S'O\x80\x1e\xe1IO\x80@'
p2391
tp2392
bag2
(g3
(I0
tp2393
g5
tp2394
Rp2395
(I1
(I1
tp2396
g12
I00
S'>\xa3\xdd\x11\x05A\x80@'
p2397
tp2398
bag2
(g3
(I0
tp2399
g5
tp2400
Rp2401
(I1
(I1
tp2402
g12
I00
S'\xcdnn\xc1\x083\x80@'
p2403
tp2404
bag2
(g3
(I0
tp2405
g5
tp2406
Rp2407
(I1
(I1
tp2408
g12
I00
S'\x91\xcc\x89\xaf\xae%\x80@'
p2409
tp2410
bag2
(g3
(I0
tp2411
g5
tp2412
Rp2413
(I1
(I1
tp2414
g12
I00
S'\xb8q\x0f\x8a4\x18\x80@'
p2415
tp2416
bag2
(g3
(I0
tp2417
g5
tp2418
Rp2419
(I1
(I1
tp2420
g12
I00
S'w\xd8\x87xi\x0b\x80@'
p2421
tp2422
bag2
(g3
(I0
tp2423
g5
tp2424
Rp2425
(I1
(I1
tp2426
g12
I00
S'\xba;\no\x19\xff\x7f@'
p2427
tp2428
bag2
(g3
(I0
tp2429
g5
tp2430
Rp2431
(I1
(I1
tp2432
g12
I00
S'{\x84\x95;s\xe8\x7f@'
p2433
tp2434
bag2
(g3
(I0
tp2435
g5
tp2436
Rp2437
(I1
(I1
tp2438
g12
I00
S'\xc6\xc6\x97\x89\x03\xce\x7f@'
p2439
tp2440
bag2
(g3
(I0
tp2441
g5
tp2442
Rp2443
(I1
(I1
tp2444
g12
I00
S'\x90\xcf\xa4\x0f\x1f\xb1\x7f@'
p2445
tp2446
bag2
(g3
(I0
tp2447
g5
tp2448
Rp2449
(I1
(I1
tp2450
g12
I00
S'\xb1\x99\x02C\xd2\x95\x7f@'
p2451
tp2452
bag2
(g3
(I0
tp2453
g5
tp2454
Rp2455
(I1
(I1
tp2456
g12
I00
S',\xb0R\x06\xf6{\x7f@'
p2457
tp2458
bag2
(g3
(I0
tp2459
g5
tp2460
Rp2461
(I1
(I1
tp2462
g12
I00
S'\xf2\xd4|\xaf\x87a\x7f@'
p2463
tp2464
bag2
(g3
(I0
tp2465
g5
tp2466
Rp2467
(I1
(I1
tp2468
g12
I00
S'R\xdb\xbeZ\xcaF\x7f@'
p2469
tp2470
bag2
(g3
(I0
tp2471
g5
tp2472
Rp2473
(I1
(I1
tp2474
g12
I00
S'\x12\xec\xa7\xe8%,\x7f@'
p2475
tp2476
bag2
(g3
(I0
tp2477
g5
tp2478
Rp2479
(I1
(I1
tp2480
g12
I00
S'\xdesO/\xc4\x11\x7f@'
p2481
tp2482
bag2
(g3
(I0
tp2483
g5
tp2484
Rp2485
(I1
(I1
tp2486
g12
I00
S'@\x0e\x02\xd5\xbf\xf6~@'
p2487
tp2488
bag2
(g3
(I0
tp2489
g5
tp2490
Rp2491
(I1
(I1
tp2492
g12
I00
S'wV.\xc1\x8d\xdd~@'
p2493
tp2494
bag2
(g3
(I0
tp2495
g5
tp2496
Rp2497
(I1
(I1
tp2498
g12
I00
S'\x1e\xcf\x82.\x0e\xc6~@'
p2499
tp2500
bag2
(g3
(I0
tp2501
g5
tp2502
Rp2503
(I1
(I1
tp2504
g12
I00
S'\x9c,\x93\xa8R\xad~@'
p2505
tp2506
bag2
(g3
(I0
tp2507
g5
tp2508
Rp2509
(I1
(I1
tp2510
g12
I00
S'\x07/\xcd*\x80\x97~@'
p2511
tp2512
bag2
(g3
(I0
tp2513
g5
tp2514
Rp2515
(I1
(I1
tp2516
g12
I00
S'\x02\x8a<\xb4\xa2\x84~@'
p2517
tp2518
bag2
(g3
(I0
tp2519
g5
tp2520
Rp2521
(I1
(I1
tp2522
g12
I00
S'\x1b~\xbam\xd6t~@'
p2523
tp2524
bag2
(g3
(I0
tp2525
g5
tp2526
Rp2527
(I1
(I1
tp2528
g12
I00
S'\xf4\x0e\xbb\xff\x81h~@'
p2529
tp2530
bag2
(g3
(I0
tp2531
g5
tp2532
Rp2533
(I1
(I1
tp2534
g12
I00
S'f\x90cfu_~@'
p2535
tp2536
bag2
(g3
(I0
tp2537
g5
tp2538
Rp2539
(I1
(I1
tp2540
g12
I00
S'\xaa\xa9\xc4\xafqY~@'
p2541
tp2542
bag2
(g3
(I0
tp2543
g5
tp2544
Rp2545
(I1
(I1
tp2546
g12
I00
S"9\xb8p'hQ~@"
p2547
tp2548
bag2
(g3
(I0
tp2549
g5
tp2550
Rp2551
(I1
(I1
tp2552
g12
I00
S'\xf6,\xe9\xf5nG~@'
p2553
tp2554
bag2
(g3
(I0
tp2555
g5
tp2556
Rp2557
(I1
(I1
tp2558
g12
I00
S'Q\xe3\xad\xd5\xa3;~@'
p2559
tp2560
bag2
(g3
(I0
tp2561
g5
tp2562
Rp2563
(I1
(I1
tp2564
g12
I00
S'\x06H@\xa5\xf4-~@'
p2565
tp2566
bag2
(g3
(I0
tp2567
g5
tp2568
Rp2569
(I1
(I1
tp2570
g12
I00
S'2\x06\x8fP;\x1e~@'
p2571
tp2572
bag2
(g3
(I0
tp2573
g5
tp2574
Rp2575
(I1
(I1
tp2576
g12
I00
S'_\x8b\xf6\xf4c\x0c~@'
p2577
tp2578
bag2
(g3
(I0
tp2579
g5
tp2580
Rp2581
(I1
(I1
tp2582
g12
I00
S'\xffM\xa6:m\xf8}@'
p2583
tp2584
bag2
(g3
(I0
tp2585
g5
tp2586
Rp2587
(I1
(I1
tp2588
g12
I00
S']a"\xcf\x9e\xe2}@'
p2589
tp2590
bag2
(g3
(I0
tp2591
g5
tp2592
Rp2593
(I1
(I1
tp2594
g12
I00
S'\xa6\xcaS\x7fD\xcb}@'
p2595
tp2596
bag2
(g3
(I0
tp2597
g5
tp2598
Rp2599
(I1
(I1
tp2600
g12
I00
S'\x85\x8b:\xd4\x19\xb7}@'
p2601
tp2602
bag2
(g3
(I0
tp2603
g5
tp2604
Rp2605
(I1
(I1
tp2606
g12
I00
S']\x95\xbc\x84\xe2\xa4}@'
p2607
tp2608
bag2
(g3
(I0
tp2609
g5
tp2610
Rp2611
(I1
(I1
tp2612
g12
I00
S'\x9a \xec\xbd\x8b\x94}@'
p2613
tp2614
bag2
(g3
(I0
tp2615
g5
tp2616
Rp2617
(I1
(I1
tp2618
g12
I00
S'\x14p?X\xc1\x82}@'
p2619
tp2620
bag2
(g3
(I0
tp2621
g5
tp2622
Rp2623
(I1
(I1
tp2624
g12
I00
S'`Z\xcbM2o}@'
p2625
tp2626
bag2
(g3
(I0
tp2627
g5
tp2628
Rp2629
(I1
(I1
tp2630
g12
I00
S'\x03:\x9e#\xc0Y}@'
p2631
tp2632
bag2
(g3
(I0
tp2633
g5
tp2634
Rp2635
(I1
(I1
tp2636
g12
I00
S'\x16\xedn\xda\xdeB}@'
p2637
tp2638
bag2
(g3
(I0
tp2639
g5
tp2640
Rp2641
(I1
(I1
tp2642
g12
I00
S'P,\xd3xj+}@'
p2643
tp2644
bag2
(g3
(I0
tp2645
g5
tp2646
Rp2647
(I1
(I1
tp2648
g12
I00
S'bSQ{\xc4\x13}@'
p2649
tp2650
bag2
(g3
(I0
tp2651
g5
tp2652
Rp2653
(I1
(I1
tp2654
g12
I00
S'\xc1w9;~\xfc|@'
p2655
tp2656
bag2
(g3
(I0
tp2657
g5
tp2658
Rp2659
(I1
(I1
tp2660
g12
I00
S':\xb2\xfa)9\xe1|@'
p2661
tp2662
bag2
(g3
(I0
tp2663
g5
tp2664
Rp2665
(I1
(I1
tp2666
g12
I00
S'\x889\x05\xc5[\xcb|@'
p2667
tp2668
bag2
(g3
(I0
tp2669
g5
tp2670
Rp2671
(I1
(I1
tp2672
g12
I00
S'hBe\xb1W\xb6|@'
p2673
tp2674
bag2
(g3
(I0
tp2675
g5
tp2676
Rp2677
(I1
(I1
tp2678
g12
I00
S'\x81\xe3W\x84\xfb\xa1|@'
p2679
tp2680
bag2
(g3
(I0
tp2681
g5
tp2682
Rp2683
(I1
(I1
tp2684
g12
I00
S'Mh\xc6\xaa\xd1\x8d|@'
p2685
tp2686
bag2
(g3
(I0
tp2687
g5
tp2688
Rp2689
(I1
(I1
tp2690
g12
I00
S'@Od\xfcky|@'
p2691
tp2692
bag2
(g3
(I0
tp2693
g5
tp2694
Rp2695
(I1
(I1
tp2696
g12
I00
S'\xea\x1d\xd4d\x12e|@'
p2697
tp2698
bag2
(g3
(I0
tp2699
g5
tp2700
Rp2701
(I1
(I1
tp2702
g12
I00
S'\xf4\xf5e\x02\x84Q|@'
p2703
tp2704
bag2
(g3
(I0
tp2705
g5
tp2706
Rp2707
(I1
(I1
tp2708
g12
I00
S'p\xebl\xff\x8c8|@'
p2709
tp2710
bag2
(g3
(I0
tp2711
g5
tp2712
Rp2713
(I1
(I1
tp2714
g12
I00
S'}W\x94]\x82"|@'
p2715
tp2716
bag2
(g3
(I0
tp2717
g5
tp2718
Rp2719
(I1
(I1
tp2720
g12
I00
S'z\xb0#6L\x08|@'
p2721
tp2722
bag2
(g3
(I0
tp2723
g5
tp2724
Rp2725
(I1
(I1
tp2726
g12
I00
S'\x85\xca7\x0c_\xf5{@'
p2727
tp2728
bag2
(g3
(I0
tp2729
g5
tp2730
Rp2731
(I1
(I1
tp2732
g12
I00
S'\xbbD\xab\x87\xbc\xe0{@'
p2733
tp2734
bag2
(g3
(I0
tp2735
g5
tp2736
Rp2737
(I1
(I1
tp2738
g12
I00
S'\x86&\xba\xcc\xf8\xc9{@'
p2739
tp2740
bag2
(g3
(I0
tp2741
g5
tp2742
Rp2743
(I1
(I1
tp2744
g12
I00
S'\x12@\xe8\xd7r\xb5{@'
p2745
tp2746
bag2
(g3
(I0
tp2747
g5
tp2748
Rp2749
(I1
(I1
tp2750
g12
I00
S'\xac\xfdb\xde]\xa3{@'
p2751
tp2752
bag2
(g3
(I0
tp2753
g5
tp2754
Rp2755
(I1
(I1
tp2756
g12
I00
S'&"Q\x7f;\x94{@'
p2757
tp2758
bag2
(g3
(I0
tp2759
g5
tp2760
Rp2761
(I1
(I1
tp2762
g12
I00
S'[\xcf\x1f\x94\x9f~{@'
p2763
tp2764
bag2
(g3
(I0
tp2765
g5
tp2766
Rp2767
(I1
(I1
tp2768
g12
I00
S'\xf7\xaa9\x07{m{@'
p2769
tp2770
bag2
(g3
(I0
tp2771
g5
tp2772
Rp2773
(I1
(I1
tp2774
g12
I00
S'\xa05\x02p\xadZ{@'
p2775
tp2776
bag2
(g3
(I0
tp2777
g5
tp2778
Rp2779
(I1
(I1
tp2780
g12
I00
S'\xdf^\x04\xd6\xdbE{@'
p2781
tp2782
bag2
(g3
(I0
tp2783
g5
tp2784
Rp2785
(I1
(I1
tp2786
g12
I00
S'\xba:\xbf\xcc\xcc.{@'
p2787
tp2788
bag2
(g3
(I0
tp2789
g5
tp2790
Rp2791
(I1
(I1
tp2792
g12
I00
S'8r\xf6k\x0f\x1a{@'
p2793
tp2794
bag2
(g3
(I0
tp2795
g5
tp2796
Rp2797
(I1
(I1
tp2798
g12
I00
S'\x80\xc1\x86\xab\xda\x07{@'
p2799
tp2800
bag2
(g3
(I0
tp2801
g5
tp2802
Rp2803
(I1
(I1
tp2804
g12
I00
S'6\x0f\xea2\xc1\xf8z@'
p2805
tp2806
bag2
(g3
(I0
tp2807
g5
tp2808
Rp2809
(I1
(I1
tp2810
g12
I00
S'Y\xe6\xf5\x0c\xed\xecz@'
p2811
tp2812
bag2
(g3
(I0
tp2813
g5
tp2814
Rp2815
(I1
(I1
tp2816
g12
I00
S'\xd2)\x08\xaa9\xe4z@'
p2817
tp2818
bag2
(g3
(I0
tp2819
g5
tp2820
Rp2821
(I1
(I1
tp2822
g12
I00
S'\x0e\x03\x0b?R\xd4z@'
p2823
tp2824
bag2
(g3
(I0
tp2825
g5
tp2826
Rp2827
(I1
(I1
tp2828
g12
I00
S'(>;Zc\xc8z@'
p2829
tp2830
bag2
(g3
(I0
tp2831
g5
tp2832
Rp2833
(I1
(I1
tp2834
g12
I00
S'\xc4\xd8H\xb6,\xb6z@'
p2835
tp2836
bag2
(g3
(I0
tp2837
g5
tp2838
Rp2839
(I1
(I1
tp2840
g12
I00
S'\xfcS\xf5F\xa5\xa8z@'
p2841
tp2842
bag2
(g3
(I0
tp2843
g5
tp2844
Rp2845
(I1
(I1
tp2846
g12
I00
S'\xa0\x89|\xc7T\x95z@'
p2847
tp2848
bag2
(g3
(I0
tp2849
g5
tp2850
Rp2851
(I1
(I1
tp2852
g12
I00
S'\x9e\xfc\xd0\x11p}z@'
p2853
tp2854
bag2
(g3
(I0
tp2855
g5
tp2856
Rp2857
(I1
(I1
tp2858
g12
I00
S']\x05\x89\xaf\x93kz@'
p2859
tp2860
bag2
(g3
(I0
tp2861
g5
tp2862
Rp2863
(I1
(I1
tp2864
g12
I00
S'2\xa8bN\x05Uz@'
p2865
tp2866
bag2
(g3
(I0
tp2867
g5
tp2868
Rp2869
(I1
(I1
tp2870
g12
I00
S'\x19\x14\xfc\xb3iDz@'
p2871
tp2872
bag2
(g3
(I0
tp2873
g5
tp2874
Rp2875
(I1
(I1
tp2876
g12
I00
S'A\x82\xaa(\x06/z@'
p2877
tp2878
bag2
(g3
(I0
tp2879
g5
tp2880
Rp2881
(I1
(I1
tp2882
g12
I00
S'\xc1+w\xca\xe5\x15z@'
p2883
tp2884
bag2
(g3
(I0
tp2885
g5
tp2886
Rp2887
(I1
(I1
tp2888
g12
I00
S'\xd0\xd2\xbb\x83R\x03z@'
p2889
tp2890
bag2
(g3
(I0
tp2891
g5
tp2892
Rp2893
(I1
(I1
tp2894
g12
I00
S'x\xdcU\x8br\xecy@'
p2895
tp2896
bag2
(g3
(I0
tp2897
g5
tp2898
Rp2899
(I1
(I1
tp2900
g12
I00
S'C\xb4w;F\xd2y@'
p2901
tp2902
bag2
(g3
(I0
tp2903
g5
tp2904
Rp2905
(I1
(I1
tp2906
g12
I00
S'\x18\xa3%1\xe4\xbey@'
p2907
tp2908
bag2
(g3
(I0
tp2909
g5
tp2910
Rp2911
(I1
(I1
tp2912
g12
I00
S'\x00\x11\x1e\xdcj\xa7y@'
p2913
tp2914
bag2
(g3
(I0
tp2915
g5
tp2916
Rp2917
(I1
(I1
tp2918
g12
I00
S'\xc0\r\x08<\xd4\x8cy@'
p2919
tp2920
bag2
(g3
(I0
tp2921
g5
tp2922
Rp2923
(I1
(I1
tp2924
g12
I00
S'\xc3-\xca,$yy@'
p2925
tp2926
bag2
(g3
(I0
tp2927
g5
tp2928
Rp2929
(I1
(I1
tp2930
g12
I00
S'Hx\xdc\x9eoay@'
p2931
tp2932
bag2
(g3
(I0
tp2933
g5
tp2934
Rp2935
(I1
(I1
tp2936
g12
I00
S']\xe8\xd0\x8e(Py@'
p2937
tp2938
bag2
(g3
(I0
tp2939
g5
tp2940
Rp2941
(I1
(I1
tp2942
g12
I00
S' \x88>\xb3|:y@'
p2943
tp2944
bag2
(g3
(I0
tp2945
g5
tp2946
Rp2947
(I1
(I1
tp2948
g12
I00
S'e-\xf8\x93t!y@'
p2949
tp2950
bag2
(g3
(I0
tp2951
g5
tp2952
Rp2953
(I1
(I1
tp2954
g12
I00
S'|>A\x193\x0fy@'
p2955
tp2956
bag2
(g3
(I0
tp2957
g5
tp2958
Rp2959
(I1
(I1
tp2960
g12
I00
S'\x82\xa9n\xff\xcc\xf8x@'
p2961
tp2962
bag2
(g3
(I0
tp2963
g5
tp2964
Rp2965
(I1
(I1
tp2966
g12
I00
S'%\xa2\x15\xfeB\xdfx@'
p2967
tp2968
bag2
(g3
(I0
tp2969
g5
tp2970
Rp2971
(I1
(I1
tp2972
g12
I00
S'M\xa2i\xb3\x9f\xccx@'
p2973
tp2974
bag2
(g3
(I0
tp2975
g5
tp2976
Rp2977
(I1
(I1
tp2978
g12
I00
S')\x8elt\xed\xb5x@'
p2979
tp2980
bag2
(g3
(I0
tp2981
g5
tp2982
Rp2983
(I1
(I1
tp2984
g12
I00
S'u\x14I.\xa3\xa5x@'
p2985
tp2986
bag2
(g3
(I0
tp2987
g5
tp2988
Rp2989
(I1
(I1
tp2990
g12
I00
S'&\x7f\x12~\xe5\x90x@'
p2991
tp2992
bag2
(g3
(I0
tp2993
g5
tp2994
Rp2995
(I1
(I1
tp2996
g12
I00
S'\xb5\n\x8a\xcd\xc3xx@'
p2997
tp2998
bag2
(g3
(I0
tp2999
g5
tp3000
Rp3001
(I1
(I1
tp3002
g12
I00
S'\x13O\x16\xacggx@'
p3003
tp3004
bag2
(g3
(I0
tp3005
g5
tp3006
Rp3007
(I1
(I1
tp3008
g12
I00
S'\xe99\xdd\xb3\xdaQx@'
p3009
tp3010
bag2
(g3
(I0
tp3011
g5
tp3012
Rp3013
(I1
(I1
tp3014
g12
I00
S'T\xae\xdf\xe9\x9dBx@'
p3015
tp3016
bag2
(g3
(I0
tp3017
g5
tp3018
Rp3019
(I1
(I1
tp3020
g12
I00
S'm\x86\x91\xef\xd2.x@'
p3021
tp3022
baa(lp3023
g2
(g3
(I0
tp3024
g5
tp3025
Rp3026
(I1
(I1
tp3027
g12
I00
S'\x00\x00\x00\x00\x00\xf4u@'
p3028
tp3029
bag2
(g3
(I0
tp3030
g5
tp3031
Rp3032
(I1
(I1
tp3033
g12
I00
S'\x00\x00\x00\x00\x00\xf4u@'
p3034
tp3035
bag2
(g3
(I0
tp3036
g5
tp3037
Rp3038
(I1
(I1
tp3039
g12
I00
S'\x00\x00\x00\x00\x00\xf4u@'
p3040
tp3041
bag2
(g3
(I0
tp3042
g5
tp3043
Rp3044
(I1
(I1
tp3045
g12
I00
S'\xc1\xf7\xa7\xb5\xed\xedu@'
p3046
tp3047
bag2
(g3
(I0
tp3048
g5
tp3049
Rp3050
(I1
(I1
tp3051
g12
I00
S'\xc5\x0f\xb7:\xc7\xe1u@'
p3052
tp3053
bag2
(g3
(I0
tp3054
g5
tp3055
Rp3056
(I1
(I1
tp3057
g12
I00
S'\x9e\xbc\xbf\xbfV\xcfu@'
p3058
tp3059
bag2
(g3
(I0
tp3060
g5
tp3061
Rp3062
(I1
(I1
tp3063
g12
I00
S'\xb6\xe9!\x85\xfd\xb6u@'
p3064
tp3065
bag2
(g3
(I0
tp3066
g5
tp3067
Rp3068
(I1
(I1
tp3069
g12
I00
S',k\xbfS4\xa5u@'
p3070
tp3071
bag2
(g3
(I0
tp3072
g5
tp3073
Rp3074
(I1
(I1
tp3075
g12
I00
S'\x84\x82\xd4hq\x99u@'
p3076
tp3077
bag2
(g3
(I0
tp3078
g5
tp3079
Rp3080
(I1
(I1
tp3081
g12
I00
S'\xad\xe0\x8c;\xd2\x93u@'
p3082
tp3083
bag2
(g3
(I0
tp3084
g5
tp3085
Rp3086
(I1
(I1
tp3087
g12
I00
S'\xba\x05\xd5\xe4\xfb\x93u@'
p3088
tp3089
bag2
(g3
(I0
tp3090
g5
tp3091
Rp3092
(I1
(I1
tp3093
g12
I00
S'$\xcf\xc2\xd8\xee\x99u@'
p3094
tp3095
bag2
(g3
(I0
tp3096
g5
tp3097
Rp3098
(I1
(I1
tp3099
g12
I00
S'\xf5\xe7\xe8\x19\xc2\xa5u@'
p3100
tp3101
bag2
(g3
(I0
tp3102
g5
tp3103
Rp3104
(I1
(I1
tp3105
g12
I00
S'\xafOce\x93\xb7u@'
p3106
tp3107
bag2
(g3
(I0
tp3108
g5
tp3109
Rp3110
(I1
(I1
tp3111
g12
I00
S'O\xa9X\x0e\xe2\xcfu@'
p3112
tp3113
bag2
(g3
(I0
tp3114
g5
tp3115
Rp3116
(I1
(I1
tp3117
g12
I00
S'=j\xcc3[\xedu@'
p3118
tp3119
bag2
(g3
(I0
tp3120
g5
tp3121
Rp3122
(I1
(I1
tp3123
g12
I00
S'\xe6\x9f&H\xb4\x0bv@'
p3124
tp3125
bag2
(g3
(I0
tp3126
g5
tp3127
Rp3128
(I1
(I1
tp3129
g12
I00
S"#x\xe8j\x9e'v@"
p3130
tp3131
bag2
(g3
(I0
tp3132
g5
tp3133
Rp3134
(I1
(I1
tp3135
g12
I00
S'\xe0T\xa0\xcaD@v@'
p3136
tp3137
bag2
(g3
(I0
tp3138
g5
tp3139
Rp3140
(I1
(I1
tp3141
g12
I00
S'\xcf\xd0\x9e\x0eXTv@'
p3142
tp3143
bag2
(g3
(I0
tp3144
g5
tp3145
Rp3146
(I1
(I1
tp3147
g12
I00
S'\x8d\t\xe6\x9f\x1fdv@'
p3148
tp3149
bag2
(g3
(I0
tp3150
g5
tp3151
Rp3152
(I1
(I1
tp3153
g12
I00
S'"\xd8\xb2\x97+pv@'
p3154
tp3155
bag2
(g3
(I0
tp3156
g5
tp3157
Rp3158
(I1
(I1
tp3159
g12
I00
S'\x88\xa08-!xv@'
p3160
tp3161
bag2
(g3
(I0
tp3162
g5
tp3163
Rp3164
(I1
(I1
tp3165
g12
I00
S'\xe4Gn\x0fS}v@'
p3166
tp3167
bag2
(g3
(I0
tp3168
g5
tp3169
Rp3170
(I1
(I1
tp3171
g12
I00
S'\xf1\xc7p\xd1u\x80v@'
p3172
tp3173
bag2
(g3
(I0
tp3174
g5
tp3175
Rp3176
(I1
(I1
tp3177
g12
I00
S'\xa61s\xc8\n\x81v@'
p3178
tp3179
bag2
(g3
(I0
tp3180
g5
tp3181
Rp3182
(I1
(I1
tp3183
g12
I00
S'6\xe0\xd9\xfcL\x80v@'
p3184
tp3185
bag2
(g3
(I0
tp3186
g5
tp3187
Rp3188
(I1
(I1
tp3189
g12
I00
S'\x0c\x1b\x85I\x89~v@'
p3190
tp3191
bag2
(g3
(I0
tp3192
g5
tp3193
Rp3194
(I1
(I1
tp3195
g12
I00
S'@za`\xeazv@'
p3196
tp3197
bag2
(g3
(I0
tp3198
g5
tp3199
Rp3200
(I1
(I1
tp3201
g12
I00
S'\x00^n\xf2\xc1vv@'
p3202
tp3203
bag2
(g3
(I0
tp3204
g5
tp3205
Rp3206
(I1
(I1
tp3207
g12
I00
S'\x83\xeeu\x82\nqv@'
p3208
tp3209
bag2
(g3
(I0
tp3210
g5
tp3211
Rp3212
(I1
(I1
tp3213
g12
I00
S'9@Y\x82"kv@'
p3214
tp3215
bag2
(g3
(I0
tp3216
g5
tp3217
Rp3218
(I1
(I1
tp3219
g12
I00
S'\xdfau\xd6\xd6cv@'
p3220
tp3221
bag2
(g3
(I0
tp3222
g5
tp3223
Rp3224
(I1
(I1
tp3225
g12
I00
S'\x8e\x1a\x87\xca\x96\\v@'
p3226
tp3227
bag2
(g3
(I0
tp3228
g5
tp3229
Rp3230
(I1
(I1
tp3231
g12
I00
S'\x95\x16l\x95DUv@'
p3232
tp3233
bag2
(g3
(I0
tp3234
g5
tp3235
Rp3236
(I1
(I1
tp3237
g12
I00
S'\x98\x15\xa1\xb8\x8eLv@'
p3238
tp3239
bag2
(g3
(I0
tp3240
g5
tp3241
Rp3242
(I1
(I1
tp3243
g12
I00
S'\xc8\xcaV\x85\xfdCv@'
p3244
tp3245
bag2
(g3
(I0
tp3246
g5
tp3247
Rp3248
(I1
(I1
tp3249
g12
I00
S'\xc5|w8\x83;v@'
p3250
tp3251
bag2
(g3
(I0
tp3252
g5
tp3253
Rp3254
(I1
(I1
tp3255
g12
I00
S'\xe3\x87 \xdf\xa21v@'
p3256
tp3257
bag2
(g3
(I0
tp3258
g5
tp3259
Rp3260
(I1
(I1
tp3261
g12
I00
S'Z_\xe7[\xf9)v@'
p3262
tp3263
bag2
(g3
(I0
tp3264
g5
tp3265
Rp3266
(I1
(I1
tp3267
g12
I00
S'L^\xba\x86\xa5 v@'
p3268
tp3269
bag2
(g3
(I0
tp3270
g5
tp3271
Rp3272
(I1
(I1
tp3273
g12
I00
S'J\xe2\xeaU\x8f\x19v@'
p3274
tp3275
bag2
(g3
(I0
tp3276
g5
tp3277
Rp3278
(I1
(I1
tp3279
g12
I00
S'\x9a\xd7\xdc\xf9\xda\x12v@'
p3280
tp3281
bag2
(g3
(I0
tp3282
g5
tp3283
Rp3284
(I1
(I1
tp3285
g12
I00
S'\xb2V\x1f\x10\x89\x0cv@'
p3286
tp3287
bag2
(g3
(I0
tp3288
g5
tp3289
Rp3290
(I1
(I1
tp3291
g12
I00
S'\xd7\x08\xe9?{\x08v@'
p3292
tp3293
bag2
(g3
(I0
tp3294
g5
tp3295
Rp3296
(I1
(I1
tp3297
g12
I00
S'\x92\x0b\xf8 k\x02v@'
p3298
tp3299
bag2
(g3
(I0
tp3300
g5
tp3301
Rp3302
(I1
(I1
tp3303
g12
I00
S'"H\xed\xff\xbd\xfau@'
p3304
tp3305
bag2
(g3
(I0
tp3306
g5
tp3307
Rp3308
(I1
(I1
tp3309
g12
I00
S'l1\xe4\xa8\xa2\xf6u@'
p3310
tp3311
bag2
(g3
(I0
tp3312
g5
tp3313
Rp3314
(I1
(I1
tp3315
g12
I00
S'\xca\x0b\n\x9f\xec\xf5u@'
p3316
tp3317
bag2
(g3
(I0
tp3318
g5
tp3319
Rp3320
(I1
(I1
tp3321
g12
I00
S'\x80l\x92\t\xf8\xf5u@'
p3322
tp3323
bag2
(g3
(I0
tp3324
g5
tp3325
Rp3326
(I1
(I1
tp3327
g12
I00
S'[\x03|\xbf\\\xf6u@'
p3328
tp3329
bag2
(g3
(I0
tp3330
g5
tp3331
Rp3332
(I1
(I1
tp3333
g12
I00
S'l\x0ew\xcf\xfc\xf6u@'
p3334
tp3335
bag2
(g3
(I0
tp3336
g5
tp3337
Rp3338
(I1
(I1
tp3339
g12
I00
S'y\x01!*\x7f\xf9u@'
p3340
tp3341
bag2
(g3
(I0
tp3342
g5
tp3343
Rp3344
(I1
(I1
tp3345
g12
I00
S'\xc7\x86\x17\xd6f\xfau@'
p3346
tp3347
bag2
(g3
(I0
tp3348
g5
tp3349
Rp3350
(I1
(I1
tp3351
g12
I00
S'1t\x86\xf2\xd0\xfbu@'
p3352
tp3353
bag2
(g3
(I0
tp3354
g5
tp3355
Rp3356
(I1
(I1
tp3357
g12
I00
S'\xb4]5\xd1\xf9\xfbu@'
p3358
tp3359
bag2
(g3
(I0
tp3360
g5
tp3361
Rp3362
(I1
(I1
tp3363
g12
I00
S'\xb7\x8d\xf8b\xc9\xfdu@'
p3364
tp3365
bag2
(g3
(I0
tp3366
g5
tp3367
Rp3368
(I1
(I1
tp3369
g12
I00
S'\x15\x82bE\x18\x00v@'
p3370
tp3371
bag2
(g3
(I0
tp3372
g5
tp3373
Rp3374
(I1
(I1
tp3375
g12
I00
S'\x9e\xd0\x0c\xa6O\x01v@'
p3376
tp3377
bag2
(g3
(I0
tp3378
g5
tp3379
Rp3380
(I1
(I1
tp3381
g12
I00
S'>\xa4\x1f\xb3z\x01v@'
p3382
tp3383
bag2
(g3
(I0
tp3384
g5
tp3385
Rp3386
(I1
(I1
tp3387
g12
I00
S'\x04B\xbc9\xf9\x04v@'
p3388
tp3389
bag2
(g3
(I0
tp3390
g5
tp3391
Rp3392
(I1
(I1
tp3393
g12
I00
S'$\xf3\xe6\xc1s\x07v@'
p3394
tp3395
bag2
(g3
(I0
tp3396
g5
tp3397
Rp3398
(I1
(I1
tp3399
g12
I00
S'o\xd4\xab\x89\x90\nv@'
p3400
tp3401
bag2
(g3
(I0
tp3402
g5
tp3403
Rp3404
(I1
(I1
tp3405
g12
I00
S'\xbc\xda)Z[\x0fv@'
p3406
tp3407
bag2
(g3
(I0
tp3408
g5
tp3409
Rp3410
(I1
(I1
tp3411
g12
I00
S',\xfay?.\x13v@'
p3412
tp3413
bag2
(g3
(I0
tp3414
g5
tp3415
Rp3416
(I1
(I1
tp3417
g12
I00
S'\x82I\xb8KM\x1av@'
p3418
tp3419
bag2
(g3
(I0
tp3420
g5
tp3421
Rp3422
(I1
(I1
tp3423
g12
I00
S'DH\x11\xf0x v@'
p3424
tp3425
bag2
(g3
(I0
tp3426
g5
tp3427
Rp3428
(I1
(I1
tp3429
g12
I00
S'\x95\xee3\x83\xea)v@'
p3430
tp3431
bag2
(g3
(I0
tp3432
g5
tp3433
Rp3434
(I1
(I1
tp3435
g12
I00
S'\xa2\x7fy>n2v@'
p3436
tp3437
bag2
(g3
(I0
tp3438
g5
tp3439
Rp3440
(I1
(I1
tp3441
g12
I00
S'M_$_\x93<v@'
p3442
tp3443
bag2
(g3
(I0
tp3444
g5
tp3445
Rp3446
(I1
(I1
tp3447
g12
I00
S'F\xf3\x98\x9arGv@'
p3448
tp3449
bag2
(g3
(I0
tp3450
g5
tp3451
Rp3452
(I1
(I1
tp3453
g12
I00
S'"\xb4\xa81\xe8Sv@'
p3454
tp3455
bag2
(g3
(I0
tp3456
g5
tp3457
Rp3458
(I1
(I1
tp3459
g12
I00
S'\xfd^\xd1\xf7\x83_v@'
p3460
tp3461
bag2
(g3
(I0
tp3462
g5
tp3463
Rp3464
(I1
(I1
tp3465
g12
I00
S'\xeao\x85CRnv@'
p3466
tp3467
bag2
(g3
(I0
tp3468
g5
tp3469
Rp3470
(I1
(I1
tp3471
g12
I00
S'\x1a\xafW\xc2\xa8~v@'
p3472
tp3473
bag2
(g3
(I0
tp3474
g5
tp3475
Rp3476
(I1
(I1
tp3477
g12
I00
S'\xb6L#\x8a\xcb\x8fv@'
p3478
tp3479
bag2
(g3
(I0
tp3480
g5
tp3481
Rp3482
(I1
(I1
tp3483
g12
I00
S'q\nP\xd1d\xa2v@'
p3484
tp3485
bag2
(g3
(I0
tp3486
g5
tp3487
Rp3488
(I1
(I1
tp3489
g12
I00
S"(7'\x7fC\xb4v@"
p3490
tp3491
bag2
(g3
(I0
tp3492
g5
tp3493
Rp3494
(I1
(I1
tp3495
g12
I00
S'g\xd5\xc2\xda*\xc9v@'
p3496
tp3497
bag2
(g3
(I0
tp3498
g5
tp3499
Rp3500
(I1
(I1
tp3501
g12
I00
S's\xa0\xb2\xe3b\xddv@'
p3502
tp3503
bag2
(g3
(I0
tp3504
g5
tp3505
Rp3506
(I1
(I1
tp3507
g12
I00
S'\xd2\xcb\x86\x82\xf1\xf0v@'
p3508
tp3509
bag2
(g3
(I0
tp3510
g5
tp3511
Rp3512
(I1
(I1
tp3513
g12
I00
S'\x90\t\xd6J}\x07w@'
p3514
tp3515
bag2
(g3
(I0
tp3516
g5
tp3517
Rp3518
(I1
(I1
tp3519
g12
I00
S'\x8c*\x9d\x07\xfb w@'
p3520
tp3521
bag2
(g3
(I0
tp3522
g5
tp3523
Rp3524
(I1
(I1
tp3525
g12
I00
S'\xde\r\xba{H=w@'
p3526
tp3527
bag2
(g3
(I0
tp3528
g5
tp3529
Rp3530
(I1
(I1
tp3531
g12
I00
S'4\xa1\x0e-\x84Zw@'
p3532
tp3533
bag2
(g3
(I0
tp3534
g5
tp3535
Rp3536
(I1
(I1
tp3537
g12
I00
S'\xec6d\xf1Rzw@'
p3538
tp3539
bag2
(g3
(I0
tp3540
g5
tp3541
Rp3542
(I1
(I1
tp3543
g12
I00
S'\xd7\x13\x85\xc9~\x9cw@'
p3544
tp3545
bag2
(g3
(I0
tp3546
g5
tp3547
Rp3548
(I1
(I1
tp3549
g12
I00
S'^\x08\xfeT\xf0\xbfw@'
p3550
tp3551
bag2
(g3
(I0
tp3552
g5
tp3553
Rp3554
(I1
(I1
tp3555
g12
I00
S'\xf2\xddr\xda\xbb\xe3w@'
p3556
tp3557
bag2
(g3
(I0
tp3558
g5
tp3559
Rp3560
(I1
(I1
tp3561
g12
I00
S'\x02\xf4\x84)\x1d\x07x@'
p3562
tp3563
bag2
(g3
(I0
tp3564
g5
tp3565
Rp3566
(I1
(I1
tp3567
g12
I00
S'\xc9\xe6F\x1c\xab)x@'
p3568
tp3569
bag2
(g3
(I0
tp3570
g5
tp3571
Rp3572
(I1
(I1
tp3573
g12
I00
S'0(Fm\xb8Jx@'
p3574
tp3575
bag2
(g3
(I0
tp3576
g5
tp3577
Rp3578
(I1
(I1
tp3579
g12
I00
S'\xf67\xf6\xebGjx@'
p3580
tp3581
bag2
(g3
(I0
tp3582
g5
tp3583
Rp3584
(I1
(I1
tp3585
g12
I00
S'\x03\xc6\xcc\xdd[\x88x@'
p3586
tp3587
bag2
(g3
(I0
tp3588
g5
tp3589
Rp3590
(I1
(I1
tp3591
g12
I00
S'ZI8\xa6\xe6\xa4x@'
p3592
tp3593
bag2
(g3
(I0
tp3594
g5
tp3595
Rp3596
(I1
(I1
tp3597
g12
I00
S'6\xd1ZT\xd6\xbfx@'
p3598
tp3599
bag2
(g3
(I0
tp3600
g5
tp3601
Rp3602
(I1
(I1
tp3603
g12
I00
S'\xb6\x0c\xfe\x11\x16\xd9x@'
p3604
tp3605
bag2
(g3
(I0
tp3606
g5
tp3607
Rp3608
(I1
(I1
tp3609
g12
I00
S'\x9b<\xe4A\x93\xf0x@'
p3610
tp3611
bag2
(g3
(I0
tp3612
g5
tp3613
Rp3614
(I1
(I1
tp3615
g12
I00
S'\xbfd{\xf3:\x06y@'
p3616
tp3617
bag2
(g3
(I0
tp3618
g5
tp3619
Rp3620
(I1
(I1
tp3621
g12
I00
S'\xe4J\xfb\x8e\xfd\x19y@'
p3622
tp3623
bag2
(g3
(I0
tp3624
g5
tp3625
Rp3626
(I1
(I1
tp3627
g12
I00
S'\t\xa2~\x12\xce+y@'
p3628
tp3629
bag2
(g3
(I0
tp3630
g5
tp3631
Rp3632
(I1
(I1
tp3633
g12
I00
S'\xdf\xbf\xda\xcc\xe1;y@'
p3634
tp3635
bag2
(g3
(I0
tp3636
g5
tp3637
Rp3638
(I1
(I1
tp3639
g12
I00
S'M\xefs,\x7fJy@'
p3640
tp3641
bag2
(g3
(I0
tp3642
g5
tp3643
Rp3644
(I1
(I1
tp3645
g12
I00
S'z,\x88#\xccWy@'
p3646
tp3647
bag2
(g3
(I0
tp3648
g5
tp3649
Rp3650
(I1
(I1
tp3651
g12
I00
S'wKA\x9b\xe1cy@'
p3652
tp3653
bag2
(g3
(I0
tp3654
g5
tp3655
Rp3656
(I1
(I1
tp3657
g12
I00
S'6\xb1\x1bnhny@'
p3658
tp3659
bag2
(g3
(I0
tp3660
g5
tp3661
Rp3662
(I1
(I1
tp3663
g12
I00
S'\xd2`ie\x9bwy@'
p3664
tp3665
bag2
(g3
(I0
tp3666
g5
tp3667
Rp3668
(I1
(I1
tp3669
g12
I00
S'\xc0\xb2\x8b|\xca\x7fy@'
p3670
tp3671
bag2
(g3
(I0
tp3672
g5
tp3673
Rp3674
(I1
(I1
tp3675
g12
I00
S'\x89~\xb7\xf4s\x85y@'
p3676
tp3677
bag2
(g3
(I0
tp3678
g5
tp3679
Rp3680
(I1
(I1
tp3681
g12
I00
S'\x049,\x89\xc1\x88y@'
p3682
tp3683
bag2
(g3
(I0
tp3684
g5
tp3685
Rp3686
(I1
(I1
tp3687
g12
I00
S'0i\x91\x9d\xb1\x8by@'
p3688
tp3689
bag2
(g3
(I0
tp3690
g5
tp3691
Rp3692
(I1
(I1
tp3693
g12
I00
S'\xe2j\xd2\xc7N\x8ey@'
p3694
tp3695
bag2
(g3
(I0
tp3696
g5
tp3697
Rp3698
(I1
(I1
tp3699
g12
I00
S'\xe8\xb8\xa9\x02\x9e\x90y@'
p3700
tp3701
bag2
(g3
(I0
tp3702
g5
tp3703
Rp3704
(I1
(I1
tp3705
g12
I00
S'\xeef\x89\xdc\x9e\x92y@'
p3706
tp3707
bag2
(g3
(I0
tp3708
g5
tp3709
Rp3710
(I1
(I1
tp3711
g12
I00
S'\xe6\xf2\x8aEL\x94y@'
p3712
tp3713
bag2
(g3
(I0
tp3714
g5
tp3715
Rp3716
(I1
(I1
tp3717
g12
I00
S'\xea!0\xe2\x9c\x95y@'
p3718
tp3719
bag2
(g3
(I0
tp3720
g5
tp3721
Rp3722
(I1
(I1
tp3723
g12
I00
S'\x80u\xac\xfa7\x96y@'
p3724
tp3725
bag2
(g3
(I0
tp3726
g5
tp3727
Rp3728
(I1
(I1
tp3729
g12
I00
S'\xc2\xef\x98\x1fo\x96y@'
p3730
tp3731
bag2
(g3
(I0
tp3732
g5
tp3733
Rp3734
(I1
(I1
tp3735
g12
I00
S'p\x81\xf2\xa7\x0e\x96y@'
p3736
tp3737
bag2
(g3
(I0
tp3738
g5
tp3739
Rp3740
(I1
(I1
tp3741
g12
I00
S'\x0e\x88\xf0\xd9C\x95y@'
p3742
tp3743
bag2
(g3
(I0
tp3744
g5
tp3745
Rp3746
(I1
(I1
tp3747
g12
I00
S'\xe5Q\x1f\xb6\xff\x93y@'
p3748
tp3749
bag2
(g3
(I0
tp3750
g5
tp3751
Rp3752
(I1
(I1
tp3753
g12
I00
S'\xa5[\x9a\xbeN\x92y@'
p3754
tp3755
bag2
(g3
(I0
tp3756
g5
tp3757
Rp3758
(I1
(I1
tp3759
g12
I00
S'j\xabC\xa3.\x90y@'
p3760
tp3761
bag2
(g3
(I0
tp3762
g5
tp3763
Rp3764
(I1
(I1
tp3765
g12
I00
S'\x9b\xae\xfc\xcb\x9f\x8dy@'
p3766
tp3767
bag2
(g3
(I0
tp3768
g5
tp3769
Rp3770
(I1
(I1
tp3771
g12
I00
S'\x9a4\x9bv\xef\x8dy@'
p3772
tp3773
bag2
(g3
(I0
tp3774
g5
tp3775
Rp3776
(I1
(I1
tp3777
g12
I00
S'\x15\x9bZ\x1d2\x91y@'
p3778
tp3779
bag2
(g3
(I0
tp3780
g5
tp3781
Rp3782
(I1
(I1
tp3783
g12
I00
S's\nm>\x8e\x93y@'
p3784
tp3785
bag2
(g3
(I0
tp3786
g5
tp3787
Rp3788
(I1
(I1
tp3789
g12
I00
S'Jb~V\n\x95y@'
p3790
tp3791
bag2
(g3
(I0
tp3792
g5
tp3793
Rp3794
(I1
(I1
tp3795
g12
I00
S'\x96\x17\xfb\x94\xd6\x95y@'
p3796
tp3797
bag2
(g3
(I0
tp3798
g5
tp3799
Rp3800
(I1
(I1
tp3801
g12
I00
S'\xcdHY2\xd8\x95y@'
p3802
tp3803
bag2
(g3
(I0
tp3804
g5
tp3805
Rp3806
(I1
(I1
tp3807
g12
I00
S'\xfe\xe1!\x13,\x95y@'
p3808
tp3809
bag2
(g3
(I0
tp3810
g5
tp3811
Rp3812
(I1
(I1
tp3813
g12
I00
S'<\x9d\xf1 y\x97y@'
p3814
tp3815
bag2
(g3
(I0
tp3816
g5
tp3817
Rp3818
(I1
(I1
tp3819
g12
I00
S'>\xce\xe0\x03\x9d\x9cy@'
p3820
tp3821
bag2
(g3
(I0
tp3822
g5
tp3823
Rp3824
(I1
(I1
tp3825
g12
I00
S'\xd9Ko\xbd\x08\xa0y@'
p3826
tp3827
bag2
(g3
(I0
tp3828
g5
tp3829
Rp3830
(I1
(I1
tp3831
g12
I00
S'gdY,\xe9\xa6y@'
p3832
tp3833
bag2
(g3
(I0
tp3834
g5
tp3835
Rp3836
(I1
(I1
tp3837
g12
I00
S'l\xbb(\xaf\xda\xb0y@'
p3838
tp3839
bag2
(g3
(I0
tp3840
g5
tp3841
Rp3842
(I1
(I1
tp3843
g12
I00
S'G$\x9e\x02\x01\xb9y@'
p3844
tp3845
bag2
(g3
(I0
tp3846
g5
tp3847
Rp3848
(I1
(I1
tp3849
g12
I00
S'\xc7\x99{e4\xc4y@'
p3850
tp3851
bag2
(g3
(I0
tp3852
g5
tp3853
Rp3854
(I1
(I1
tp3855
g12
I00
S' \xe9B\xcc\x17\xd3y@'
p3856
tp3857
bag2
(g3
(I0
tp3858
g5
tp3859
Rp3860
(I1
(I1
tp3861
g12
I00
S'\xe3?\x8d\xd9"\xe3y@'
p3862
tp3863
bag2
(g3
(I0
tp3864
g5
tp3865
Rp3866
(I1
(I1
tp3867
g12
I00
S'\x14\xb1\x02zi\xf6y@'
p3868
tp3869
bag2
(g3
(I0
tp3870
g5
tp3871
Rp3872
(I1
(I1
tp3873
g12
I00
S'4p\x80+\xbb\x07z@'
p3874
tp3875
bag2
(g3
(I0
tp3876
g5
tp3877
Rp3878
(I1
(I1
tp3879
g12
I00
S'\xc6\xd2Zo\xe2\x1cz@'
p3880
tp3881
bag2
(g3
(I0
tp3882
g5
tp3883
Rp3884
(I1
(I1
tp3885
g12
I00
S'\x10P,h\xfb/z@'
p3886
tp3887
bag2
(g3
(I0
tp3888
g5
tp3889
Rp3890
(I1
(I1
tp3891
g12
I00
S'\xce\x7f\x05\xe4\xfeFz@'
p3892
tp3893
bag2
(g3
(I0
tp3894
g5
tp3895
Rp3896
(I1
(I1
tp3897
g12
I00
S'\xdb\xb8gv\xe6[z@'
p3898
tp3899
bag2
(g3
(I0
tp3900
g5
tp3901
Rp3902
(I1
(I1
tp3903
g12
I00
S'\x0bk\xcb:xtz@'
p3904
tp3905
bag2
(g3
(I0
tp3906
g5
tp3907
Rp3908
(I1
(I1
tp3909
g12
I00
S'\x98}\xf5\x19\xa8\x8az@'
p3910
tp3911
bag2
(g3
(I0
tp3912
g5
tp3913
Rp3914
(I1
(I1
tp3915
g12
I00
S"'\xb6\xf0\xbfF\x9ez@"
p3916
tp3917
bag2
(g3
(I0
tp3918
g5
tp3919
Rp3920
(I1
(I1
tp3921
g12
I00
S'\xe5\x1e\xd2\x98\x11\xb5z@'
p3922
tp3923
bag2
(g3
(I0
tp3924
g5
tp3925
Rp3926
(I1
(I1
tp3927
g12
I00
S'\x12l\x03\xed\x0e\xc9z@'
p3928
tp3929
bag2
(g3
(I0
tp3930
g5
tp3931
Rp3932
(I1
(I1
tp3933
g12
I00
S'J\x1c\xb6\xc04\xe0z@'
p3934
tp3935
bag2
(g3
(I0
tp3936
g5
tp3937
Rp3938
(I1
(I1
tp3939
g12
I00
S'\t3\x8a\xb3\x7f\xf4z@'
p3940
tp3941
bag2
(g3
(I0
tp3942
g5
tp3943
Rp3944
(I1
(I1
tp3945
g12
I00
S'\x9e\xb4\xcez(\x06{@'
p3946
tp3947
bag2
(g3
(I0
tp3948
g5
tp3949
Rp3950
(I1
(I1
tp3951
g12
I00
S'\xe0{\xa4\x12\x1b\x15{@'
p3952
tp3953
bag2
(g3
(I0
tp3954
g5
tp3955
Rp3956
(I1
(I1
tp3957
g12
I00
S"L\xd6\xc8\x0f\xa4'{@"
p3958
tp3959
bag2
(g3
(I0
tp3960
g5
tp3961
Rp3962
(I1
(I1
tp3963
g12
I00
S'\xce/\xc9\tJ7{@'
p3964
tp3965
bag2
(g3
(I0
tp3966
g5
tp3967
Rp3968
(I1
(I1
tp3969
g12
I00
S'\xd1\x9a\xc5\xc3*D{@'
p3970
tp3971
bag2
(g3
(I0
tp3972
g5
tp3973
Rp3974
(I1
(I1
tp3975
g12
I00
S'\xfcO0\xc0,[{@'
p3976
tp3977
bag2
(g3
(I0
tp3978
g5
tp3979
Rp3980
(I1
(I1
tp3981
g12
I00
S'\xca\xd1\xe0\xbc\xdat{@'
p3982
tp3983
bag2
(g3
(I0
tp3984
g5
tp3985
Rp3986
(I1
(I1
tp3987
g12
I00
S'\x8a\xd5Fg\xbf\x90{@'
p3988
tp3989
bag2
(g3
(I0
tp3990
g5
tp3991
Rp3992
(I1
(I1
tp3993
g12
I00
S'f;\xcei_\xae{@'
p3994
tp3995
bag2
(g3
(I0
tp3996
g5
tp3997
Rp3998
(I1
(I1
tp3999
g12
I00
S'P\xd408E\xcd{@'
p4000
tp4001
bag2
(g3
(I0
tp4002
g5
tp4003
Rp4004
(I1
(I1
tp4005
g12
I00
S"\\'\x0e\x10\x0c\xed{@"
p4006
tp4007
bag2
(g3
(I0
tp4008
g5
tp4009
Rp4010
(I1
(I1
tp4011
g12
I00
S']\xa6\xfa\xd4\xe5\r|@'
p4012
tp4013
bag2
(g3
(I0
tp4014
g5
tp4015
Rp4016
(I1
(I1
tp4017
g12
I00
S'\x99m\x1aUG,|@'
p4018
tp4019
bag2
(g3
(I0
tp4020
g5
tp4021
Rp4022
(I1
(I1
tp4023
g12
I00
S'\x1b9.\x11\xd3G|@'
p4024
tp4025
bag2
(g3
(I0
tp4026
g5
tp4027
Rp4028
(I1
(I1
tp4029
g12
I00
S'B\x8d\xc7V\xa1f|@'
p4030
tp4031
bag2
(g3
(I0
tp4032
g5
tp4033
Rp4034
(I1
(I1
tp4035
g12
I00
S'"Qg@\xfb\x82|@'
p4036
tp4037
bag2
(g3
(I0
tp4038
g5
tp4039
Rp4040
(I1
(I1
tp4041
g12
I00
S'\xba\xe5\xaax}\x9c|@'
p4042
tp4043
bag2
(g3
(I0
tp4044
g5
tp4045
Rp4046
(I1
(I1
tp4047
g12
I00
S'\xa5!\x1b\xd0\x95\xb3|@'
p4048
tp4049
bag2
(g3
(I0
tp4050
g5
tp4051
Rp4052
(I1
(I1
tp4053
g12
I00
S"p\xa4\x99R'\xc8|@"
p4054
tp4055
bag2
(g3
(I0
tp4056
g5
tp4057
Rp4058
(I1
(I1
tp4059
g12
I00
S'R&\x8c\xb0\xb3\xd9|@'
p4060
tp4061
bag2
(g3
(I0
tp4062
g5
tp4063
Rp4064
(I1
(I1
tp4065
g12
I00
S'\xcc\xd3\x0e\x9c\xee\xee|@'
p4066
tp4067
bag2
(g3
(I0
tp4068
g5
tp4069
Rp4070
(I1
(I1
tp4071
g12
I00
S'\xfb\x03\x80;\xdc\x00}@'
p4072
tp4073
bag2
(g3
(I0
tp4074
g5
tp4075
Rp4076
(I1
(I1
tp4077
g12
I00
S'M\x87\xa1U\xa4\x0f}@'
p4078
tp4079
bag2
(g3
(I0
tp4080
g5
tp4081
Rp4082
(I1
(I1
tp4083
g12
I00
S'\xbc\xec\xae\x05p\x1b}@'
p4084
tp4085
bag2
(g3
(I0
tp4086
g5
tp4087
Rp4088
(I1
(I1
tp4089
g12
I00
S'8\xf1\xd9\x05%$}@'
p4090
tp4091
bag2
(g3
(I0
tp4092
g5
tp4093
Rp4094
(I1
(I1
tp4095
g12
I00
S'\xc2\x085\x0c+1}@'
p4096
tp4097
bag2
(g3
(I0
tp4098
g5
tp4099
Rp4100
(I1
(I1
tp4101
g12
I00
S'\xb5\xb0\x1a|\xe6:}@'
p4102
tp4103
bag2
(g3
(I0
tp4104
g5
tp4105
Rp4106
(I1
(I1
tp4107
g12
I00
S'0\xedG\x07\xe9H}@'
p4108
tp4109
bag2
(g3
(I0
tp4110
g5
tp4111
Rp4112
(I1
(I1
tp4113
g12
I00
S'\x9d\t\xc6\xd7uS}@'
p4114
tp4115
bag2
(g3
(I0
tp4116
g5
tp4117
Rp4118
(I1
(I1
tp4119
g12
I00
S'\xe8\xa2\xf8nVb}@'
p4120
tp4121
bag2
(g3
(I0
tp4122
g5
tp4123
Rp4124
(I1
(I1
tp4125
g12
I00
S'\x88\x19:;\x93m}@'
p4126
tp4127
bag2
(g3
(I0
tp4128
g5
tp4129
Rp4130
(I1
(I1
tp4131
g12
I00
S'\x94\xf5\xdb1~u}@'
p4132
tp4133
bag2
(g3
(I0
tp4134
g5
tp4135
Rp4136
(I1
(I1
tp4137
g12
I00
S'\xaa(\x83\xa2\xd6\x81}@'
p4138
tp4139
bag2
(g3
(I0
tp4140
g5
tp4141
Rp4142
(I1
(I1
tp4143
g12
I00
S'\x06\t\xd1\x96\x9a\x8a}@'
p4144
tp4145
bag2
(g3
(I0
tp4146
g5
tp4147
Rp4148
(I1
(I1
tp4149
g12
I00
S'\xa8\xd8\x9d\xf6\xd2\x97}@'
p4150
tp4151
bag2
(g3
(I0
tp4152
g5
tp4153
Rp4154
(I1
(I1
tp4155
g12
I00
S'\x8by}WC\xa1}@'
p4156
tp4157
bag2
(g3
(I0
tp4158
g5
tp4159
Rp4160
(I1
(I1
tp4161
g12
I00
S'\xecvV\xb2:\xaf}@'
p4162
tp4163
bag2
(g3
(I0
tp4164
g5
tp4165
Rp4166
(I1
(I1
tp4167
g12
I00
S'\\\xce+\x9eE\xb9}@'
p4168
tp4169
bag2
(g3
(I0
tp4170
g5
tp4171
Rp4172
(I1
(I1
tp4173
g12
I00
S'\x99+\x9a\x8b\xdd\xc7}@'
p4174
tp4175
bag2
(g3
(I0
tp4176
g5
tp4177
Rp4178
(I1
(I1
tp4179
g12
I00
S'\xd9\x16\xfakf\xda}@'
p4180
tp4181
bag2
(g3
(I0
tp4182
g5
tp4183
Rp4184
(I1
(I1
tp4185
g12
I00
S'H\x8d\x1a\xe2D\xf0}@'
p4186
tp4187
bag2
(g3
(I0
tp4188
g5
tp4189
Rp4190
(I1
(I1
tp4191
g12
I00
S'\x00\t\xc3\xdf_\x02~@'
p4192
tp4193
bag2
(g3
(I0
tp4194
g5
tp4195
Rp4196
(I1
(I1
tp4197
g12
I00
S'~\xb7tL\xc6\x10~@'
p4198
tp4199
bag2
(g3
(I0
tp4200
g5
tp4201
Rp4202
(I1
(I1
tp4203
g12
I00
S'\xdf\x93\xe6\x80\x16#~@'
p4204
tp4205
bag2
(g3
(I0
tp4206
g5
tp4207
Rp4208
(I1
(I1
tp4209
g12
I00
S'@(x\xbc\xb08~@'
p4210
tp4211
bag2
(g3
(I0
tp4212
g5
tp4213
Rp4214
(I1
(I1
tp4215
g12
I00
S'\x9dq\x0c\x18HJ~@'
p4216
tp4217
bag2
(g3
(I0
tp4218
g5
tp4219
Rp4220
(I1
(I1
tp4221
g12
I00
S'\\!\xc4ye_~@'
p4222
tp4223
bag2
(g3
(I0
tp4224
g5
tp4225
Rp4226
(I1
(I1
tp4227
g12
I00
S'!o\x95\xe4Gw~@'
p4228
tp4229
bag2
(g3
(I0
tp4230
g5
tp4231
Rp4232
(I1
(I1
tp4233
g12
I00
S'\x7f$\x044W\x91~@'
p4234
tp4235
bag2
(g3
(I0
tp4236
g5
tp4237
Rp4238
(I1
(I1
tp4239
g12
I00
S'\xdaQ\xf9\xf4\x11\xad~@'
p4240
tp4241
bag2
(g3
(I0
tp4242
g5
tp4243
Rp4244
(I1
(I1
tp4245
g12
I00
S'\xd0\x89\x7f\xb0\x07\xca~@'
p4246
tp4247
bag2
(g3
(I0
tp4248
g5
tp4249
Rp4250
(I1
(I1
tp4251
g12
I00
S'4\x86\xcfM\xdd\xe7~@'
p4252
tp4253
bag2
(g3
(I0
tp4254
g5
tp4255
Rp4256
(I1
(I1
tp4257
g12
I00
S'\xef\xf7\x1b,K\x06\x7f@'
p4258
tp4259
bag2
(g3
(I0
tp4260
g5
tp4261
Rp4262
(I1
(I1
tp4263
g12
I00
S'}\x9fhI\xfa$\x7f@'
p4264
tp4265
bag2
(g3
(I0
tp4266
g5
tp4267
Rp4268
(I1
(I1
tp4269
g12
I00
S'V\x8b\x8c\xd4\xe1C\x7f@'
p4270
tp4271
bag2
(g3
(I0
tp4272
g5
tp4273
Rp4274
(I1
(I1
tp4275
g12
I00
S'\x15\xa2\x93\xbd\xfcb\x7f@'
p4276
tp4277
bag2
(g3
(I0
tp4278
g5
tp4279
Rp4280
(I1
(I1
tp4281
g12
I00
S'lX\xba#D\x82\x7f@'
p4282
tp4283
bag2
(g3
(I0
tp4284
g5
tp4285
Rp4286
(I1
(I1
tp4287
g12
I00
S'Q\x9a\x009%\xa3\x7f@'
p4288
tp4289
bag2
(g3
(I0
tp4290
g5
tp4291
Rp4292
(I1
(I1
tp4293
g12
I00
S'\x9b\xbc\xfa:>\xc0\x7f@'
p4294
tp4295
bag2
(g3
(I0
tp4296
g5
tp4297
Rp4298
(I1
(I1
tp4299
g12
I00
S'\x00Q\x98d\xbb\xd9\x7f@'
p4300
tp4301
bag2
(g3
(I0
tp4302
g5
tp4303
Rp4304
(I1
(I1
tp4305
g12
I00
S'\xf8y\x8c\xb3\xa3\xef\x7f@'
p4306
tp4307
bag2
(g3
(I0
tp4308
g5
tp4309
Rp4310
(I1
(I1
tp4311
g12
I00
S'6\x8d\xee\xb3\xf0\x00\x80@'
p4312
tp4313
bag2
(g3
(I0
tp4314
g5
tp4315
Rp4316
(I1
(I1
tp4317
g12
I00
S'\xd1\x9a4\x0e?\x08\x80@'
p4318
tp4319
bag2
(g3
(I0
tp4320
g5
tp4321
Rp4322
(I1
(I1
tp4323
g12
I00
S'\xb1\x87g\x05\x98\r\x80@'
p4324
tp4325
bag2
(g3
(I0
tp4326
g5
tp4327
Rp4328
(I1
(I1
tp4329
g12
I00
S's\xf0\x93\xa0}\x15\x80@'
p4330
tp4331
bag2
(g3
(I0
tp4332
g5
tp4333
Rp4334
(I1
(I1
tp4335
g12
I00
S'\x89\x10\xeey\x91\x1b\x80@'
p4336
tp4337
bag2
(g3
(I0
tp4338
g5
tp4339
Rp4340
(I1
(I1
tp4341
g12
I00
S"'t\\\xdf\xa4\x1f\x80@"
p4342
tp4343
bag2
(g3
(I0
tp4344
g5
tp4345
Rp4346
(I1
(I1
tp4347
g12
I00
S'`\xadRs\xd7!\x80@'
p4348
tp4349
bag2
(g3
(I0
tp4350
g5
tp4351
Rp4352
(I1
(I1
tp4353
g12
I00
S'\xa4O\x93Y&"\x80@'
p4354
tp4355
bag2
(g3
(I0
tp4356
g5
tp4357
Rp4358
(I1
(I1
tp4359
g12
I00
S'.o}\xa8\n%\x80@'
p4360
tp4361
bag2
(g3
(I0
tp4362
g5
tp4363
Rp4364
(I1
(I1
tp4365
g12
I00
S'\x95Sqh\xed%\x80@'
p4366
tp4367
bag2
(g3
(I0
tp4368
g5
tp4369
Rp4370
(I1
(I1
tp4371
g12
I00
S'\xe5\xf9\x1d \xe2$\x80@'
p4372
tp4373
bag2
(g3
(I0
tp4374
g5
tp4375
Rp4376
(I1
(I1
tp4377
g12
I00
S'\x81\xeb\x89\x1a\xcb!\x80@'
p4378
tp4379
bag2
(g3
(I0
tp4380
g5
tp4381
Rp4382
(I1
(I1
tp4383
g12
I00
S'\xdc \x91\x9cT!\x80@'
p4384
tp4385
bag2
(g3
(I0
tp4386
g5
tp4387
Rp4388
(I1
(I1
tp4389
g12
I00
S'Ml\xd4\xb1\xf0\x1e\x80@'
p4390
tp4391
bag2
(g3
(I0
tp4392
g5
tp4393
Rp4394
(I1
(I1
tp4395
g12
I00
S'\x85c\x001,\x1f\x80@'
p4396
tp4397
bag2
(g3
(I0
tp4398
g5
tp4399
Rp4400
(I1
(I1
tp4401
g12
I00
S'A\x80CY\x16"\x80@'
p4402
tp4403
bag2
(g3
(I0
tp4404
g5
tp4405
Rp4406
(I1
(I1
tp4407
g12
I00
S'\x7f\x9b\xa9\xd7\xd5"\x80@'
p4408
tp4409
bag2
(g3
(I0
tp4410
g5
tp4411
Rp4412
(I1
(I1
tp4413
g12
I00
S'^\xf1l\x02\xaa!\x80@'
p4414
tp4415
bag2
(g3
(I0
tp4416
g5
tp4417
Rp4418
(I1
(I1
tp4419
g12
I00
S'hF\xfa\x8c\xb9\x1e\x80@'
p4420
tp4421
bag2
(g3
(I0
tp4422
g5
tp4423
Rp4424
(I1
(I1
tp4425
g12
I00
S'\xee\x9a\xf3\x16\\\x1e\x80@'
p4426
tp4427
bag2
(g3
(I0
tp4428
g5
tp4429
Rp4430
(I1
(I1
tp4431
g12
I00
S'\xec\x08+\x99\x00\x1c\x80@'
p4432
tp4433
bag2
(g3
(I0
tp4434
g5
tp4435
Rp4436
(I1
(I1
tp4437
g12
I00
S'\x18\x01\x08"\t\x1c\x80@'
p4438
tp4439
bag2
(g3
(I0
tp4440
g5
tp4441
Rp4442
(I1
(I1
tp4443
g12
I00
S'\x99\x11\xde\x9f6\x1e\x80@'
p4444
tp4445
bag2
(g3
(I0
tp4446
g5
tp4447
Rp4448
(I1
(I1
tp4449
g12
I00
S'd\xaa\x8c;^"\x80@'
p4450
tp4451
bag2
(g3
(I0
tp4452
g5
tp4453
Rp4454
(I1
(I1
tp4455
g12
I00
S'\x96to\x12L(\x80@'
p4456
tp4457
bag2
(g3
(I0
tp4458
g5
tp4459
Rp4460
(I1
(I1
tp4461
g12
I00
S'\xe5\xe2?^\xd2/\x80@'
p4462
tp4463
bag2
(g3
(I0
tp4464
g5
tp4465
Rp4466
(I1
(I1
tp4467
g12
I00
S'\xce\xdc;\x05\xb88\x80@'
p4468
tp4469
bag2
(g3
(I0
tp4470
g5
tp4471
Rp4472
(I1
(I1
tp4473
g12
I00
S'>\xdd\x89\x93\xb9B\x80@'
p4474
tp4475
bag2
(g3
(I0
tp4476
g5
tp4477
Rp4478
(I1
(I1
tp4479
g12
I00
S'\xae\xc4fG\xb0M\x80@'
p4480
tp4481
bag2
(g3
(I0
tp4482
g5
tp4483
Rp4484
(I1
(I1
tp4485
g12
I00
S'oZ\xb63{Y\x80@'
p4486
tp4487
bag2
(g3
(I0
tp4488
g5
tp4489
Rp4490
(I1
(I1
tp4491
g12
I00
S'\xc0.\xcb*\xf9e\x80@'
p4492
tp4493
bag2
(g3
(I0
tp4494
g5
tp4495
Rp4496
(I1
(I1
tp4497
g12
I00
S'G\xe7O\x8c\ts\x80@'
p4498
tp4499
bag2
(g3
(I0
tp4500
g5
tp4501
Rp4502
(I1
(I1
tp4503
g12
I00
S'\xe3qk\xd7\x8f\x80\x80@'
p4504
tp4505
bag2
(g3
(I0
tp4506
g5
tp4507
Rp4508
(I1
(I1
tp4509
g12
I00
S'\xe6>\x16\x90r\x8e\x80@'
p4510
tp4511
bag2
(g3
(I0
tp4512
g5
tp4513
Rp4514
(I1
(I1
tp4515
g12
I00
S'\xb6\xa4Z\xe4\x9d\x9c\x80@'
p4516
tp4517
bag2
(g3
(I0
tp4518
g5
tp4519
Rp4520
(I1
(I1
tp4521
g12
I00
S'\x1a\x14\x95w\x02\xab\x80@'
p4522
tp4523
bag2
(g3
(I0
tp4524
g5
tp4525
Rp4526
(I1
(I1
tp4527
g12
I00
S'\xd0IH\xfa\x93\xb9\x80@'
p4528
tp4529
bag2
(g3
(I0
tp4530
g5
tp4531
Rp4532
(I1
(I1
tp4533
g12
I00
S'\xd7\x81\x81\x11I\xc8\x80@'
p4534
tp4535
bag2
(g3
(I0
tp4536
g5
tp4537
Rp4538
(I1
(I1
tp4539
g12
I00
S'I\x91\x93\x02\x19\xd7\x80@'
p4540
tp4541
bag2
(g3
(I0
tp4542
g5
tp4543
Rp4544
(I1
(I1
tp4545
g12
I00
S'\x0c\xd6N\xcc\xff\xe5\x80@'
p4546
tp4547
bag2
(g3
(I0
tp4548
g5
tp4549
Rp4550
(I1
(I1
tp4551
g12
I00
S'\x9f\xcf\x85\x9f\xf7\xf4\x80@'
p4552
tp4553
bag2
(g3
(I0
tp4554
g5
tp4555
Rp4556
(I1
(I1
tp4557
g12
I00
S'\xc9\xff\xb2q\xfd\x03\x81@'
p4558
tp4559
bag2
(g3
(I0
tp4560
g5
tp4561
Rp4562
(I1
(I1
tp4563
g12
I00
S'\xa2s\xee\xa3\r\x13\x81@'
p4564
tp4565
bag2
(g3
(I0
tp4566
g5
tp4567
Rp4568
(I1
(I1
tp4569
g12
I00
S'\x92\x12\x1a\xe2&"\x81@'
p4570
tp4571
bag2
(g3
(I0
tp4572
g5
tp4573
Rp4574
(I1
(I1
tp4575
g12
I00
S'\xc0\x89=\xdfF1\x81@'
p4576
tp4577
bag2
(g3
(I0
tp4578
g5
tp4579
Rp4580
(I1
(I1
tp4581
g12
I00
S'Z\x9f-\xd5k@\x81@'
p4582
tp4583
bag2
(g3
(I0
tp4584
g5
tp4585
Rp4586
(I1
(I1
tp4587
g12
I00
S'|\xfb?\xb1\x95O\x81@'
p4588
tp4589
bag2
(g3
(I0
tp4590
g5
tp4591
Rp4592
(I1
(I1
tp4593
g12
I00
S'\x1b\x12\xf8y\xc2^\x81@'
p4594
tp4595
bag2
(g3
(I0
tp4596
g5
tp4597
Rp4598
(I1
(I1
tp4599
g12
I00
S'\x12\xf8\xd4\x91\xf1m\x81@'
p4600
tp4601
bag2
(g3
(I0
tp4602
g5
tp4603
Rp4604
(I1
(I1
tp4605
g12
I00
S'6)\xd9b"}\x81@'
p4606
tp4607
bag2
(g3
(I0
tp4608
g5
tp4609
Rp4610
(I1
(I1
tp4611
g12
I00
S'\x15\x8d\x84~S\x8c\x81@'
p4612
tp4613
bag2
(g3
(I0
tp4614
g5
tp4615
Rp4616
(I1
(I1
tp4617
g12
I00
S'\x05\xd31\xaa\x86\x9b\x81@'
p4618
tp4619
bag2
(g3
(I0
tp4620
g5
tp4621
Rp4622
(I1
(I1
tp4623
g12
I00
S'\xfe\xa0HY\xb9\xaa\x81@'
p4624
tp4625
bag2
(g3
(I0
tp4626
g5
tp4627
Rp4628
(I1
(I1
tp4629
g12
I00
S'\xa2\x1aky\xec\xb9\x81@'
p4630
tp4631
bag2
(g3
(I0
tp4632
g5
tp4633
Rp4634
(I1
(I1
tp4635
g12
I00
S'J\xa0\x0c\xe3\x1e\xc9\x81@'
p4636
tp4637
bag2
(g3
(I0
tp4638
g5
tp4639
Rp4640
(I1
(I1
tp4641
g12
I00
S'\xf7\x0f\xc7\xfeP\xd8\x81@'
p4642
tp4643
bag2
(g3
(I0
tp4644
g5
tp4645
Rp4646
(I1
(I1
tp4647
g12
I00
S'Y\xfa\xdb#\x82\xe7\x81@'
p4648
tp4649
bag2
(g3
(I0
tp4650
g5
tp4651
Rp4652
(I1
(I1
tp4653
g12
I00
S'\xfd\xc5m-\xb2\xf6\x81@'
p4654
tp4655
bag2
(g3
(I0
tp4656
g5
tp4657
Rp4658
(I1
(I1
tp4659
g12
I00
S'M\x96\xc2\xc5\xe1\x05\x82@'
p4660
tp4661
bag2
(g3
(I0
tp4662
g5
tp4663
Rp4664
(I1
(I1
tp4665
g12
I00
S'\xbc\xa5r3\x10\x15\x82@'
p4666
tp4667
bag2
(g3
(I0
tp4668
g5
tp4669
Rp4670
(I1
(I1
tp4671
g12
I00
S'\xf9w\xf4o=$\x82@'
p4672
tp4673
bag2
(g3
(I0
tp4674
g5
tp4675
Rp4676
(I1
(I1
tp4677
g12
I00
S'.\x0e;\xf9i3\x82@'
p4678
tp4679
bag2
(g3
(I0
tp4680
g5
tp4681
Rp4682
(I1
(I1
tp4683
g12
I00
S'\xc6\xcc\xc8$\x95B\x82@'
p4684
tp4685
bag2
(g3
(I0
tp4686
g5
tp4687
Rp4688
(I1
(I1
tp4689
g12
I00
S'\xb4\xb9~ \xbfQ\x82@'
p4690
tp4691
bag2
(g3
(I0
tp4692
g5
tp4693
Rp4694
(I1
(I1
tp4695
g12
I00
S'U\xcd(\xc7\xe7`\x82@'
p4696
tp4697
bag2
(g3
(I0
tp4698
g5
tp4699
Rp4700
(I1
(I1
tp4701
g12
I00
S'\x1e\xa3\xb0!\x10p\x82@'
p4702
tp4703
bag2
(g3
(I0
tp4704
g5
tp4705
Rp4706
(I1
(I1
tp4707
g12
I00
S'E~0.7\x7f\x82@'
p4708
tp4709
bag2
(g3
(I0
tp4710
g5
tp4711
Rp4712
(I1
(I1
tp4713
g12
I00
S'\xefN\x89\x06]\x8e\x82@'
p4714
tp4715
bag2
(g3
(I0
tp4716
g5
tp4717
Rp4718
(I1
(I1
tp4719
g12
I00
S'\xd8-\x8e\xc0i\x9e\x82@'
p4720
tp4721
bag2
(g3
(I0
tp4722
g5
tp4723
Rp4724
(I1
(I1
tp4725
g12
I00
S'UF\xd45\xfa\xae\x82@'
p4726
tp4727
bag2
(g3
(I0
tp4728
g5
tp4729
Rp4730
(I1
(I1
tp4731
g12
I00
S'\x10H\xd9`\r\xbf\x82@'
p4732
tp4733
bag2
(g3
(I0
tp4734
g5
tp4735
Rp4736
(I1
(I1
tp4737
g12
I00
S'\xde\x960\xc4z\xcf\x82@'
p4738
tp4739
bag2
(g3
(I0
tp4740
g5
tp4741
Rp4742
(I1
(I1
tp4743
g12
I00
S'N\xe52\x80\xc9\xdf\x82@'
p4744
tp4745
bag2
(g3
(I0
tp4746
g5
tp4747
Rp4748
(I1
(I1
tp4749
g12
I00
S'\x14\x14\x89\xd9\x95\xed\x82@'
p4750
tp4751
bag2
(g3
(I0
tp4752
g5
tp4753
Rp4754
(I1
(I1
tp4755
g12
I00
S'V\xca7\xecl\xf9\x82@'
p4756
tp4757
bag2
(g3
(I0
tp4758
g5
tp4759
Rp4760
(I1
(I1
tp4761
g12
I00
S'\xc2cK\xd2\xb4\x02\x83@'
p4762
tp4763
bag2
(g3
(I0
tp4764
g5
tp4765
Rp4766
(I1
(I1
tp4767
g12
I00
S'\xc6N\xe37\xdf\t\x83@'
p4768
tp4769
bag2
(g3
(I0
tp4770
g5
tp4771
Rp4772
(I1
(I1
tp4773
g12
I00
S'\xfeY\xb7\xbb\xea\x0e\x83@'
p4774
tp4775
bag2
(g3
(I0
tp4776
g5
tp4777
Rp4778
(I1
(I1
tp4779
g12
I00
S'_\x16\xbf\x8c\xd7\x11\x83@'
p4780
tp4781
bag2
(g3
(I0
tp4782
g5
tp4783
Rp4784
(I1
(I1
tp4785
g12
I00
S'26\x8a\xea6\x12\x83@'
p4786
tp4787
bag2
(g3
(I0
tp4788
g5
tp4789
Rp4790
(I1
(I1
tp4791
g12
I00
S'\xcbUoUv\x10\x83@'
p4792
tp4793
bag2
(g3
(I0
tp4794
g5
tp4795
Rp4796
(I1
(I1
tp4797
g12
I00
S'\x01,\xa0\xcb\x94\x0c\x83@'
p4798
tp4799
bag2
(g3
(I0
tp4800
g5
tp4801
Rp4802
(I1
(I1
tp4803
g12
I00
S'3\x8b\xfc\xcc\x1f\x06\x83@'
p4804
tp4805
bag2
(g3
(I0
tp4806
g5
tp4807
Rp4808
(I1
(I1
tp4809
g12
I00
S'\x1a\xde\xde\x0f{\x02\x83@'
p4810
tp4811
bag2
(g3
(I0
tp4812
g5
tp4813
Rp4814
(I1
(I1
tp4815
g12
I00
S'\xb1\xfb\x00\x17H\xfc\x82@'
p4816
tp4817
bag2
(g3
(I0
tp4818
g5
tp4819
Rp4820
(I1
(I1
tp4821
g12
I00
S'e\x07S]\xe2\xf8\x82@'
p4822
tp4823
bag2
(g3
(I0
tp4824
g5
tp4825
Rp4826
(I1
(I1
tp4827
g12
I00
S'\xb0z\xef\xe2\xec\xf2\x82@'
p4828
tp4829
bag2
(g3
(I0
tp4830
g5
tp4831
Rp4832
(I1
(I1
tp4833
g12
I00
S'\xc2\xc6\xd4\x90\xc3\xef\x82@'
p4834
tp4835
bag2
(g3
(I0
tp4836
g5
tp4837
Rp4838
(I1
(I1
tp4839
g12
I00
S'\xa3\x9f\xad\x00\n\xea\x82@'
p4840
tp4841
bag2
(g3
(I0
tp4842
g5
tp4843
Rp4844
(I1
(I1
tp4845
g12
I00
S'\x0c\xf1vK\x1b\xe7\x82@'
p4846
tp4847
bag2
(g3
(I0
tp4848
g5
tp4849
Rp4850
(I1
(I1
tp4851
g12
I00
S'\x88\x9ezu\x9c\xe1\x82@'
p4852
tp4853
bag2
(g3
(I0
tp4854
g5
tp4855
Rp4856
(I1
(I1
tp4857
g12
I00
S'\xcf\xe3"1\xf1\xd9\x82@'
p4858
tp4859
bag2
(g3
(I0
tp4860
g5
tp4861
Rp4862
(I1
(I1
tp4863
g12
I00
S'\xcc\xf7,\xf2\xa1\xd4\x82@'
p4864
tp4865
bag2
(g3
(I0
tp4866
g5
tp4867
Rp4868
(I1
(I1
tp4869
g12
I00
S'*k.R\xb2\xcc\x82@'
p4870
tp4871
bag2
(g3
(I0
tp4872
g5
tp4873
Rp4874
(I1
(I1
tp4875
g12
I00
S'\x0b\xef\xb0\xd4\x92\xc7\x82@'
p4876
tp4877
bag2
(g3
(I0
tp4878
g5
tp4879
Rp4880
(I1
(I1
tp4881
g12
I00
S'\xbd\xa3\xff\xc4\xf4\xbf\x82@'
p4882
tp4883
bag2
(g3
(I0
tp4884
g5
tp4885
Rp4886
(I1
(I1
tp4887
g12
I00
S'S\x16%\x07Y\xbb\x82@'
p4888
tp4889
bag2
(g3
(I0
tp4890
g5
tp4891
Rp4892
(I1
(I1
tp4893
g12
I00
S'\xc4\x85\xda\x8eW\xb4\x82@'
p4894
tp4895
bag2
(g3
(I0
tp4896
g5
tp4897
Rp4898
(I1
(I1
tp4899
g12
I00
S'\x08g\xb6va\xb0\x82@'
p4900
tp4901
bag2
(g3
(I0
tp4902
g5
tp4903
Rp4904
(I1
(I1
tp4905
g12
I00
S'\xda~\xd9\x10\xeb\xa9\x82@'
p4906
tp4907
bag2
(g3
(I0
tp4908
g5
tp4909
Rp4910
(I1
(I1
tp4911
g12
I00
S' \x85\xdb\xa7\xbf\xa1\x82@'
p4912
tp4913
bag2
(g3
(I0
tp4914
g5
tp4915
Rp4916
(I1
(I1
tp4917
g12
I00
S'\xae\x04O \x14\x98\x82@'
p4918
tp4919
bag2
(g3
(I0
tp4920
g5
tp4921
Rp4922
(I1
(I1
tp4923
g12
I00
S'\xc7\x99^\xfb\xed\x90\x82@'
p4924
tp4925
bag2
(g3
(I0
tp4926
g5
tp4927
Rp4928
(I1
(I1
tp4929
g12
I00
S'\xabQ\x99\xbb?\x8c\x82@'
p4930
tp4931
bag2
(g3
(I0
tp4932
g5
tp4933
Rp4934
(I1
(I1
tp4935
g12
I00
S'+-\xbd\xb1\xfb\x89\x82@'
p4936
tp4937
bag2
(g3
(I0
tp4938
g5
tp4939
Rp4940
(I1
(I1
tp4941
g12
I00
S'\xc0\xfc\xfe:\xf6\x89\x82@'
p4942
tp4943
bag2
(g3
(I0
tp4944
g5
tp4945
Rp4946
(I1
(I1
tp4947
g12
I00
S'\xfe\x8c\xd9\x1d\x02\x8c\x82@'
p4948
tp4949
bag2
(g3
(I0
tp4950
g5
tp4951
Rp4952
(I1
(I1
tp4953
g12
I00
S'\x94\x91\xd7\xd1\x02\x90\x82@'
p4954
tp4955
bag2
(g3
(I0
tp4956
g5
tp4957
Rp4958
(I1
(I1
tp4959
g12
I00
S'G\xa2\x90\x85\xcc\x95\x82@'
p4960
tp4961
bag2
(g3
(I0
tp4962
g5
tp4963
Rp4964
(I1
(I1
tp4965
g12
I00
S'\x8b\\"`\x16\x9d\x82@'
p4966
tp4967
bag2
(g3
(I0
tp4968
g5
tp4969
Rp4970
(I1
(I1
tp4971
g12
I00
S'\xba\xbd\x02\x8c\x9c\xa5\x82@'
p4972
tp4973
bag2
(g3
(I0
tp4974
g5
tp4975
Rp4976
(I1
(I1
tp4977
g12
I00
S'{\x99\x95\n\xc3\xae\x82@'
p4978
tp4979
bag2
(g3
(I0
tp4980
g5
tp4981
Rp4982
(I1
(I1
tp4983
g12
I00
S'7\xf3\x11kG\xb8\x82@'
p4984
tp4985
bag2
(g3
(I0
tp4986
g5
tp4987
Rp4988
(I1
(I1
tp4989
g12
I00
S'apV\xca\x07\xc2\x82@'
p4990
tp4991
bag2
(g3
(I0
tp4992
g5
tp4993
Rp4994
(I1
(I1
tp4995
g12
I00
S'(}I\x14\xf8\xcb\x82@'
p4996
tp4997
bag2
(g3
(I0
tp4998
g5
tp4999
Rp5000
(I1
(I1
tp5001
g12
I00
S'\xf6\x8f\x89\x04\x1a\xd6\x82@'
p5002
tp5003
bag2
(g3
(I0
tp5004
g5
tp5005
Rp5006
(I1
(I1
tp5007
g12
I00
S'\x04/\xff\xabv\xe0\x82@'
p5008
tp5009
bag2
(g3
(I0
tp5010
g5
tp5011
Rp5012
(I1
(I1
tp5013
g12
I00
S'T\x12\xb93\x11\xeb\x82@'
p5014
tp5015
bag2
(g3
(I0
tp5016
g5
tp5017
Rp5018
(I1
(I1
tp5019
g12
I00
S'P&\xcb`\xe6\xf5\x82@'
p5020
tp5021
bag2
(g3
(I0
tp5022
g5
tp5023
Rp5024
(I1
(I1
tp5025
g12
I00
S'\xdb\x11\xfa\x15\xf3\x00\x83@'
p5026
tp5027
bag2
(g3
(I0
tp5028
g5
tp5029
Rp5030
(I1
(I1
tp5031
g12
I00
S') \x81\x8d/\x0c\x83@'
p5032
tp5033
bag2
(g3
(I0
tp5034
g5
tp5035
Rp5036
(I1
(I1
tp5037
g12
I00
S'`!\x11n\x94\x17\x83@'
p5038
tp5039
bag2
(g3
(I0
tp5040
g5
tp5041
Rp5042
(I1
(I1
tp5043
g12
I00
S'\xcf\xed7\x1a\x1c#\x83@'
p5044
tp5045
bag2
(g3
(I0
tp5046
g5
tp5047
Rp5048
(I1
(I1
tp5049
g12
I00
S' \x19\x8b\xf5\xc0.\x83@'
p5050
tp5051
bag2
(g3
(I0
tp5052
g5
tp5053
Rp5054
(I1
(I1
tp5055
g12
I00
S'!\xd7oa}:\x83@'
p5056
tp5057
bag2
(g3
(I0
tp5058
g5
tp5059
Rp5060
(I1
(I1
tp5061
g12
I00
S'\xfa\xffX\xf5LF\x83@'
p5062
tp5063
bag2
(g3
(I0
tp5064
g5
tp5065
Rp5066
(I1
(I1
tp5067
g12
I00
S' \x00\x0c\xa8+R\x83@'
p5068
tp5069
bag2
(g3
(I0
tp5070
g5
tp5071
Rp5072
(I1
(I1
tp5073
g12
I00
S'\x0f\xdc\xd8\xad\x15^\x83@'
p5074
tp5075
bag2
(g3
(I0
tp5076
g5
tp5077
Rp5078
(I1
(I1
tp5079
g12
I00
S'\xfdF\xe6\xc3\tj\x83@'
p5080
tp5081
bag2
(g3
(I0
tp5082
g5
tp5083
Rp5084
(I1
(I1
tp5085
g12
I00
S'}\xbd\xbe\x91\x03v\x83@'
p5086
tp5087
bag2
(g3
(I0
tp5088
g5
tp5089
Rp5090
(I1
(I1
tp5091
g12
I00
S'\xa8\x08\xf7\x94\x02\x82\x83@'
p5092
tp5093
bag2
(g3
(I0
tp5094
g5
tp5095
Rp5096
(I1
(I1
tp5097
g12
I00
S'\xad\xe6+K\x04\x8e\x83@'
p5098
tp5099
bag2
(g3
(I0
tp5100
g5
tp5101
Rp5102
(I1
(I1
tp5103
g12
I00
S'\x07\xe2\x855\x07\x9a\x83@'
p5104
tp5105
bag2
(g3
(I0
tp5106
g5
tp5107
Rp5108
(I1
(I1
tp5109
g12
I00
S'\xc6MKv\n\xa6\x83@'
p5110
tp5111
bag2
(g3
(I0
tp5112
g5
tp5113
Rp5114
(I1
(I1
tp5115
g12
I00
S'\x93\xf8\xbf\x92\r\xb2\x83@'
p5116
tp5117
bag2
(g3
(I0
tp5118
g5
tp5119
Rp5120
(I1
(I1
tp5121
g12
I00
S'\x05V{r\x0e\xbe\x83@'
p5122
tp5123
bag2
(g3
(I0
tp5124
g5
tp5125
Rp5126
(I1
(I1
tp5127
g12
I00
S'GuUc\r\xca\x83@'
p5128
tp5129
bag2
(g3
(I0
tp5130
g5
tp5131
Rp5132
(I1
(I1
tp5133
g12
I00
S'X;Z\xcc\t\xd6\x83@'
p5134
tp5135
bag2
(g3
(I0
tp5136
g5
tp5137
Rp5138
(I1
(I1
tp5139
g12
I00
S'\xdfcH\xdc\x02\xe2\x83@'
p5140
tp5141
bag2
(g3
(I0
tp5142
g5
tp5143
Rp5144
(I1
(I1
tp5145
g12
I00
S'\x8c\x01fR\xf8\xed\x83@'
p5146
tp5147
bag2
(g3
(I0
tp5148
g5
tp5149
Rp5150
(I1
(I1
tp5151
g12
I00
S')\x0e\xf5\x9d\xe9\xf9\x83@'
p5152
tp5153
bag2
(g3
(I0
tp5154
g5
tp5155
Rp5156
(I1
(I1
tp5157
g12
I00
S'\xf6\x10\xd7(\xce\x06\x84@'
p5158
tp5159
bag2
(g3
(I0
tp5160
g5
tp5161
Rp5162
(I1
(I1
tp5163
g12
I00
S'\xf2\x1aP\xb5?\x14\x84@'
p5164
tp5165
bag2
(g3
(I0
tp5166
g5
tp5167
Rp5168
(I1
(I1
tp5169
g12
I00
S'\x13\x0f\x8bD\xca!\x84@'
p5170
tp5171
bag2
(g3
(I0
tp5172
g5
tp5173
Rp5174
(I1
(I1
tp5175
g12
I00
S'Q\xfe\xb6\x1f</\x84@'
p5176
tp5177
bag2
(g3
(I0
tp5178
g5
tp5179
Rp5180
(I1
(I1
tp5181
g12
I00
S'\x92\xf3(g6<\x84@'
p5182
tp5183
bag2
(g3
(I0
tp5184
g5
tp5185
Rp5186
(I1
(I1
tp5187
g12
I00
S'.\t/\xb6\x91>\x84@'
p5188
tp5189
bag2
(g3
(I0
tp5190
g5
tp5191
Rp5192
(I1
(I1
tp5193
g12
I00
S'b\xaa)\xce\x13A\x84@'
p5194
tp5195
bag2
(g3
(I0
tp5196
g5
tp5197
Rp5198
(I1
(I1
tp5199
g12
I00
S'I\xc6\xdc\xec)D\x84@'
p5200
tp5201
bag2
(g3
(I0
tp5202
g5
tp5203
Rp5204
(I1
(I1
tp5205
g12
I00
S'~YL\xea\xa4G\x84@'
p5206
tp5207
bag2
(g3
(I0
tp5208
g5
tp5209
Rp5210
(I1
(I1
tp5211
g12
I00
S'1\x8d\x12\x1afM\x84@'
p5212
tp5213
bag2
(g3
(I0
tp5214
g5
tp5215
Rp5216
(I1
(I1
tp5217
g12
I00
S'\\!Nf\xe1U\x84@'
p5218
tp5219
bag2
(g3
(I0
tp5220
g5
tp5221
Rp5222
(I1
(I1
tp5223
g12
I00
S'\x19\x00\xc2\x99\x1b_\x84@'
p5224
tp5225
bag2
(g3
(I0
tp5226
g5
tp5227
Rp5228
(I1
(I1
tp5229
g12
I00
S'\xd0ML\x9d\xfbf\x84@'
p5230
tp5231
bag2
(g3
(I0
tp5232
g5
tp5233
Rp5234
(I1
(I1
tp5235
g12
I00
S'^\x14\x9aTNo\x84@'
p5236
tp5237
bag2
(g3
(I0
tp5238
g5
tp5239
Rp5240
(I1
(I1
tp5241
g12
I00
S'X\xa4S\xa8Ex\x84@'
p5242
tp5243
bag2
(g3
(I0
tp5244
g5
tp5245
Rp5246
(I1
(I1
tp5247
g12
I00
S'\xfe\xf0\xb3\xac\xbd|\x84@'
p5248
tp5249
bag2
(g3
(I0
tp5250
g5
tp5251
Rp5252
(I1
(I1
tp5253
g12
I00
S'M\xd3\xdc\xe9\xf9\x81\x84@'
p5254
tp5255
bag2
(g3
(I0
tp5256
g5
tp5257
Rp5258
(I1
(I1
tp5259
g12
I00
S'3"\t\xc5\xa3\x88\x84@'
p5260
tp5261
bag2
(g3
(I0
tp5262
g5
tp5263
Rp5264
(I1
(I1
tp5265
g12
I00
S'\xc9p+\xa9\xf1\x8a\x84@'
p5266
tp5267
bag2
(g3
(I0
tp5268
g5
tp5269
Rp5270
(I1
(I1
tp5271
g12
I00
S'\x8e\x94o]@\x8c\x84@'
p5272
tp5273
bag2
(g3
(I0
tp5274
g5
tp5275
Rp5276
(I1
(I1
tp5277
g12
I00
S'\xe93H\xbc\x9a\x8d\x84@'
p5278
tp5279
bag2
(g3
(I0
tp5280
g5
tp5281
Rp5282
(I1
(I1
tp5283
g12
I00
S'&D\xebg\x1b\x8f\x84@'
p5284
tp5285
bag2
(g3
(I0
tp5286
g5
tp5287
Rp5288
(I1
(I1
tp5289
g12
I00
S'Eg\xfb\xd1\x87\x8f\x84@'
p5290
tp5291
bag2
(g3
(I0
tp5292
g5
tp5293
Rp5294
(I1
(I1
tp5295
g12
I00
S'LB,\xb6\xeb\x8e\x84@'
p5296
tp5297
bag2
(g3
(I0
tp5298
g5
tp5299
Rp5300
(I1
(I1
tp5301
g12
I00
S'\x02\x8c#\xb3{\x8d\x84@'
p5302
tp5303
bag2
(g3
(I0
tp5304
g5
tp5305
Rp5306
(I1
(I1
tp5307
g12
I00
S'\x8a\x03V\xdd(\x8b\x84@'
p5308
tp5309
bag2
(g3
(I0
tp5310
g5
tp5311
Rp5312
(I1
(I1
tp5313
g12
I00
S'\xd3%\xfa\xf0)\x88\x84@'
p5314
tp5315
bag2
(g3
(I0
tp5316
g5
tp5317
Rp5318
(I1
(I1
tp5319
g12
I00
S'c\xce\xf1\x1e\n\x85\x84@'
p5320
tp5321
bag2
(g3
(I0
tp5322
g5
tp5323
Rp5324
(I1
(I1
tp5325
g12
I00
S'\xec\x0b\xb6Q\xfc\x80\x84@'
p5326
tp5327
bag2
(g3
(I0
tp5328
g5
tp5329
Rp5330
(I1
(I1
tp5331
g12
I00
S'\xe1\x96\xe3\xeb\xf5}\x84@'
p5332
tp5333
bag2
(g3
(I0
tp5334
g5
tp5335
Rp5336
(I1
(I1
tp5337
g12
I00
S'o\xce6iez\x84@'
p5338
tp5339
bag2
(g3
(I0
tp5340
g5
tp5341
Rp5342
(I1
(I1
tp5343
g12
I00
S'\xf6\x02\xae\x08!w\x84@'
p5344
tp5345
bag2
(g3
(I0
tp5346
g5
tp5347
Rp5348
(I1
(I1
tp5349
g12
I00
S'N\x1a\x8e\xcd\\t\x84@'
p5350
tp5351
bag2
(g3
(I0
tp5352
g5
tp5353
Rp5354
(I1
(I1
tp5355
g12
I00
S'\\\xc2/\xf5\xe0r\x84@'
p5356
tp5357
bag2
(g3
(I0
tp5358
g5
tp5359
Rp5360
(I1
(I1
tp5361
g12
I00
S'o\x91`tSr\x84@'
p5362
tp5363
bag2
(g3
(I0
tp5364
g5
tp5365
Rp5366
(I1
(I1
tp5367
g12
I00
S'g\xf1\xc9}\xa7r\x84@'
p5368
tp5369
bag2
(g3
(I0
tp5370
g5
tp5371
Rp5372
(I1
(I1
tp5373
g12
I00
S'\x0c\x00AS\xf3s\x84@'
p5374
tp5375
bag2
(g3
(I0
tp5376
g5
tp5377
Rp5378
(I1
(I1
tp5379
g12
I00
S'\xe5\x7f\t]av\x84@'
p5380
tp5381
bag2
(g3
(I0
tp5382
g5
tp5383
Rp5384
(I1
(I1
tp5385
g12
I00
S'a\xca\xab\x8f\xfb~\x84@'
p5386
tp5387
bag2
(g3
(I0
tp5388
g5
tp5389
Rp5390
(I1
(I1
tp5391
g12
I00
S'\x9c\xae\xf6\xe2\x17\x8a\x84@'
p5392
tp5393
bag2
(g3
(I0
tp5394
g5
tp5395
Rp5396
(I1
(I1
tp5397
g12
I00
S'\x1c\xd4\xccn\xef\x96\x84@'
p5398
tp5399
bag2
(g3
(I0
tp5400
g5
tp5401
Rp5402
(I1
(I1
tp5403
g12
I00
S'u26\x1e\xf3\xa4\x84@'
p5404
tp5405
bag2
(g3
(I0
tp5406
g5
tp5407
Rp5408
(I1
(I1
tp5409
g12
I00
S'L\x90\x9b\xa3\xb4\xb3\x84@'
p5410
tp5411
bag2
(g3
(I0
tp5412
g5
tp5413
Rp5414
(I1
(I1
tp5415
g12
I00
S'\xae>\xdb \xe5\xc2\x84@'
p5416
tp5417
bag2
(g3
(I0
tp5418
g5
tp5419
Rp5420
(I1
(I1
tp5421
g12
I00
S'`\xabUU\x1f\xcf\x84@'
p5422
tp5423
bag2
(g3
(I0
tp5424
g5
tp5425
Rp5426
(I1
(I1
tp5427
g12
I00
S'\xd1\x01\xe4\\\xab\xdc\x84@'
p5428
tp5429
bag2
(g3
(I0
tp5430
g5
tp5431
Rp5432
(I1
(I1
tp5433
g12
I00
S'\xc5\xef\x19\xaf\xfd\xe6\x84@'
p5434
tp5435
bag2
(g3
(I0
tp5436
g5
tp5437
Rp5438
(I1
(I1
tp5439
g12
I00
S'\x15\x1c\xf1\xcd\x1a\xf0\x84@'
p5440
tp5441
bag2
(g3
(I0
tp5442
g5
tp5443
Rp5444
(I1
(I1
tp5445
g12
I00
S'\xcd\na\x8eX\xf5\x84@'
p5446
tp5447
bag2
(g3
(I0
tp5448
g5
tp5449
Rp5450
(I1
(I1
tp5451
g12
I00
S'!\x8a*)\xe3\xf4\x84@'
p5452
tp5453
bag2
(g3
(I0
tp5454
g5
tp5455
Rp5456
(I1
(I1
tp5457
g12
I00
S'_\xd4`\xb4p\xf2\x84@'
p5458
tp5459
bag2
(g3
(I0
tp5460
g5
tp5461
Rp5462
(I1
(I1
tp5463
g12
I00
S'-\xd2\xf0\xb92\xf8\x84@'
p5464
tp5465
bag2
(g3
(I0
tp5466
g5
tp5467
Rp5468
(I1
(I1
tp5469
g12
I00
S"\xff\xa1'4\xb2\x03\x85@"
p5470
tp5471
bag2
(g3
(I0
tp5472
g5
tp5473
Rp5474
(I1
(I1
tp5475
g12
I00
S'\xc8W\xa7u\xf7\x0e\x85@'
p5476
tp5477
bag2
(g3
(I0
tp5478
g5
tp5479
Rp5480
(I1
(I1
tp5481
g12
I00
S'\xa3^\x18\xd3\xf7\x19\x85@'
p5482
tp5483
bag2
(g3
(I0
tp5484
g5
tp5485
Rp5486
(I1
(I1
tp5487
g12
I00
S'\xd4\xdd\x83\\\xc6$\x85@'
p5488
tp5489
bag2
(g3
(I0
tp5490
g5
tp5491
Rp5492
(I1
(I1
tp5493
g12
I00
S'Z\xb4l:\x81/\x85@'
p5494
tp5495
bag2
(g3
(I0
tp5496
g5
tp5497
Rp5498
(I1
(I1
tp5499
g12
I00
S'\xdd"=\xb1 :\x85@'
p5500
tp5501
bag2
(g3
(I0
tp5502
g5
tp5503
Rp5504
(I1
(I1
tp5505
g12
I00
S'\x178\xe5X\xbaE\x85@'
p5506
tp5507
bag2
(g3
(I0
tp5508
g5
tp5509
Rp5510
(I1
(I1
tp5511
g12
I00
S'\xfd\xf8\xea}\xfeQ\x85@'
p5512
tp5513
bag2
(g3
(I0
tp5514
g5
tp5515
Rp5516
(I1
(I1
tp5517
g12
I00
S'\xd7\x10\xe1\xd3\x19^\x85@'
p5518
tp5519
bag2
(g3
(I0
tp5520
g5
tp5521
Rp5522
(I1
(I1
tp5523
g12
I00
S'\xb0\xf9\xf8N\xa2j\x85@'
p5524
tp5525
bag2
(g3
(I0
tp5526
g5
tp5527
Rp5528
(I1
(I1
tp5529
g12
I00
S'tP\xb3}\x94w\x85@'
p5530
tp5531
bag2
(g3
(I0
tp5532
g5
tp5533
Rp5534
(I1
(I1
tp5535
g12
I00
S'i\xa3\xac@\xe6\x84\x85@'
p5536
tp5537
bag2
(g3
(I0
tp5538
g5
tp5539
Rp5540
(I1
(I1
tp5541
g12
I00
S'\r#\xbf\x962\x8f\x85@'
p5542
tp5543
bag2
(g3
(I0
tp5544
g5
tp5545
Rp5546
(I1
(I1
tp5547
g12
I00
S'\xaf\xb5:\xa5\xa9\x96\x85@'
p5548
tp5549
bag2
(g3
(I0
tp5550
g5
tp5551
Rp5552
(I1
(I1
tp5553
g12
I00
S'UH\xf2\x7f/\x9b\x85@'
p5554
tp5555
bag2
(g3
(I0
tp5556
g5
tp5557
Rp5558
(I1
(I1
tp5559
g12
I00
S'\x85\xcaNfN\xa2\x85@'
p5560
tp5561
bag2
(g3
(I0
tp5562
g5
tp5563
Rp5564
(I1
(I1
tp5565
g12
I00
S'\x99\xa1\x92/\x07\xac\x85@'
p5566
tp5567
bag2
(g3
(I0
tp5568
g5
tp5569
Rp5570
(I1
(I1
tp5571
g12
I00
S'\xfa\xf5\xacG\\\xb8\x85@'
p5572
tp5573
bag2
(g3
(I0
tp5574
g5
tp5575
Rp5576
(I1
(I1
tp5577
g12
I00
S'3\xd1(\xfe\x10\xc6\x85@'
p5578
tp5579
bag2
(g3
(I0
tp5580
g5
tp5581
Rp5582
(I1
(I1
tp5583
g12
I00
S'H\x0c\x9e%D\xd4\x85@'
p5584
tp5585
bag2
(g3
(I0
tp5586
g5
tp5587
Rp5588
(I1
(I1
tp5589
g12
I00
S'\xec\x93\x8e\x86\x93\xe2\x85@'
p5590
tp5591
bag2
(g3
(I0
tp5592
g5
tp5593
Rp5594
(I1
(I1
tp5595
g12
I00
S'B\x10\x84M\xd9\xf0\x85@'
p5596
tp5597
bag2
(g3
(I0
tp5598
g5
tp5599
Rp5600
(I1
(I1
tp5601
g12
I00
S'\xa0\xf0x\x92\xd0\xfe\x85@'
p5602
tp5603
bag2
(g3
(I0
tp5604
g5
tp5605
Rp5606
(I1
(I1
tp5607
g12
I00
S'\x01\x9a9\xb9p\x0c\x86@'
p5608
tp5609
bag2
(g3
(I0
tp5610
g5
tp5611
Rp5612
(I1
(I1
tp5613
g12
I00
S'\x94\xe9\xec\xe2<\x1a\x86@'
p5614
tp5615
bag2
(g3
(I0
tp5616
g5
tp5617
Rp5618
(I1
(I1
tp5619
g12
I00
S'\xcf\x14\xb7\xdb\xad$\x86@'
p5620
tp5621
bag2
(g3
(I0
tp5622
g5
tp5623
Rp5624
(I1
(I1
tp5625
g12
I00
S'2\xa9\x1ff\x00,\x86@'
p5626
tp5627
bag2
(g3
(I0
tp5628
g5
tp5629
Rp5630
(I1
(I1
tp5631
g12
I00
S'\xfd\x84\xe74,6\x86@'
p5632
tp5633
bag2
(g3
(I0
tp5634
g5
tp5635
Rp5636
(I1
(I1
tp5637
g12
I00
S'\xcd\xdd\xa3\xab\x9aB\x86@'
p5638
tp5639
bag2
(g3
(I0
tp5640
g5
tp5641
Rp5642
(I1
(I1
tp5643
g12
I00
S'\x18\x07\xb5\xdb\x0cP\x86@'
p5644
tp5645
bag2
(g3
(I0
tp5646
g5
tp5647
Rp5648
(I1
(I1
tp5649
g12
I00
S'\xd8\xe5\xa56\xb6]\x86@'
p5650
tp5651
bag2
(g3
(I0
tp5652
g5
tp5653
Rp5654
(I1
(I1
tp5655
g12
I00
S'M\xfe5gIk\x86@'
p5656
tp5657
bag2
(g3
(I0
tp5658
g5
tp5659
Rp5660
(I1
(I1
tp5661
g12
I00
S'\xe6\xaen\xb9\xa4x\x86@'
p5662
tp5663
bag2
(g3
(I0
tp5664
g5
tp5665
Rp5666
(I1
(I1
tp5667
g12
I00
S'\x83\x13\x87\x86\x0b\x86\x86@'
p5668
tp5669
bag2
(g3
(I0
tp5670
g5
tp5671
Rp5672
(I1
(I1
tp5673
g12
I00
S'\xbfx\xfb\xb1\x0b\x90\x86@'
p5674
tp5675
bag2
(g3
(I0
tp5676
g5
tp5677
Rp5678
(I1
(I1
tp5679
g12
I00
S'\x01\xb2.\x1f]\x9b\x86@'
p5680
tp5681
bag2
(g3
(I0
tp5682
g5
tp5683
Rp5684
(I1
(I1
tp5685
g12
I00
S'2b\xf2@\x95\xa3\x86@'
p5686
tp5687
bag2
(g3
(I0
tp5688
g5
tp5689
Rp5690
(I1
(I1
tp5691
g12
I00
S'~\x1cOJ\xc4\xa8\x86@'
p5692
tp5693
bag2
(g3
(I0
tp5694
g5
tp5695
Rp5696
(I1
(I1
tp5697
g12
I00
S'\xddU\x0b\xd1$\xb1\x86@'
p5698
tp5699
bag2
(g3
(I0
tp5700
g5
tp5701
Rp5702
(I1
(I1
tp5703
g12
I00
S'\xe6\x8fme\xd0\xbb\x86@'
p5704
tp5705
bag2
(g3
(I0
tp5706
g5
tp5707
Rp5708
(I1
(I1
tp5709
g12
I00
S"'7z\xf0\xf1\xc7\x86@"
p5710
tp5711
bag2
(g3
(I0
tp5712
g5
tp5713
Rp5714
(I1
(I1
tp5715
g12
I00
S'\xc3\xa44\x84\xce\xd4\x86@'
p5716
tp5717
bag2
(g3
(I0
tp5718
g5
tp5719
Rp5720
(I1
(I1
tp5721
g12
I00
S'\x00\xd5\x96\xba\x18\xdf\x86@'
p5722
tp5723
bag2
(g3
(I0
tp5724
g5
tp5725
Rp5726
(I1
(I1
tp5727
g12
I00
S'[B\xa1\xe5\xee\xea\x86@'
p5728
tp5729
bag2
(g3
(I0
tp5730
g5
tp5731
Rp5732
(I1
(I1
tp5733
g12
I00
S'\xf7\xe9\xcbw\x93\xf4\x86@'
p5734
tp5735
bag2
(g3
(I0
tp5736
g5
tp5737
Rp5738
(I1
(I1
tp5739
g12
I00
S'"\x10\x9e\xbb\x14\xff\x86@'
p5740
tp5741
bag2
(g3
(I0
tp5742
g5
tp5743
Rp5744
(I1
(I1
tp5745
g12
I00
S'\x170\x1fG\x87\x06\x87@'
p5746
tp5747
bag2
(g3
(I0
tp5748
g5
tp5749
Rp5750
(I1
(I1
tp5751
g12
I00
S'\xdc\x9c\xf3\xac\x06\x0b\x87@'
p5752
tp5753
bag2
(g3
(I0
tp5754
g5
tp5755
Rp5756
(I1
(I1
tp5757
g12
I00
S'\t\xee\x91\x01m\x12\x87@'
p5758
tp5759
bag2
(g3
(I0
tp5760
g5
tp5761
Rp5762
(I1
(I1
tp5763
g12
I00
S'\x1fN\x11hk\x1c\x87@'
p5764
tp5765
bag2
(g3
(I0
tp5766
g5
tp5767
Rp5768
(I1
(I1
tp5769
g12
I00
S"\x1a\xf4K\xb6\xc0'\x87@"
p5770
tp5771
bag2
(g3
(I0
tp5772
g5
tp5773
Rp5774
(I1
(I1
tp5775
g12
I00
S'\xdc\x1eq8\x8d1\x87@'
p5776
tp5777
bag2
(g3
(I0
tp5778
g5
tp5779
Rp5780
(I1
(I1
tp5781
g12
I00
S'\xbe\xe9T\x91\x9e<\x87@'
p5782
tp5783
bag2
(g3
(I0
tp5784
g5
tp5785
Rp5786
(I1
(I1
tp5787
g12
I00
S'\xc4B&\xb1\xb6D\x87@'
p5788
tp5789
bag2
(g3
(I0
tp5790
g5
tp5791
Rp5792
(I1
(I1
tp5793
g12
I00
S'?G\xa0\xf6\x04J\x87@'
p5794
tp5795
bag2
(g3
(I0
tp5796
g5
tp5797
Rp5798
(I1
(I1
tp5799
g12
I00
S'O\x87\x03\x92\xa9L\x87@'
p5800
tp5801
bag2
(g3
(I0
tp5802
g5
tp5803
Rp5804
(I1
(I1
tp5805
g12
I00
S'\xe2\xc4\xa4c\xe8Q\x87@'
p5806
tp5807
bag2
(g3
(I0
tp5808
g5
tp5809
Rp5810
(I1
(I1
tp5811
g12
I00
S'\x03\tm\xc4\xb7Y\x87@'
p5812
tp5813
bag2
(g3
(I0
tp5814
g5
tp5815
Rp5816
(I1
(I1
tp5817
g12
I00
S'\xc5\xcc\xf3\x85xc\x87@'
p5818
tp5819
bag2
(g3
(I0
tp5820
g5
tp5821
Rp5822
(I1
(I1
tp5823
g12
I00
S'\xf2\x80\xf0Sin\x87@'
p5824
tp5825
bag2
(g3
(I0
tp5826
g5
tp5827
Rp5828
(I1
(I1
tp5829
g12
I00
S'\xf7\x01\xb0\xde\xf6y\x87@'
p5830
tp5831
bag2
(g3
(I0
tp5832
g5
tp5833
Rp5834
(I1
(I1
tp5835
g12
I00
S'\x1e\xbaV\x92\xa8\x84\x87@'
p5836
tp5837
bag2
(g3
(I0
tp5838
g5
tp5839
Rp5840
(I1
(I1
tp5841
g12
I00
S'\x8c\xb9Cc+\x90\x87@'
p5842
tp5843
bag2
(g3
(I0
tp5844
g5
tp5845
Rp5846
(I1
(I1
tp5847
g12
I00
S'\xb78\xb3\xb5%\x9b\x87@'
p5848
tp5849
bag2
(g3
(I0
tp5850
g5
tp5851
Rp5852
(I1
(I1
tp5853
g12
I00
S'qG\xc4f\xdd\xa6\x87@'
p5854
tp5855
bag2
(g3
(I0
tp5856
g5
tp5857
Rp5858
(I1
(I1
tp5859
g12
I00
S':$1\xbb%\xb2\x87@'
p5860
tp5861
bag2
(g3
(I0
tp5862
g5
tp5863
Rp5864
(I1
(I1
tp5865
g12
I00
S'%e\xe2\xcd\x1d\xbd\x87@'
p5866
tp5867
bag2
(g3
(I0
tp5868
g5
tp5869
Rp5870
(I1
(I1
tp5871
g12
I00
S'm\xb26\xd3\xda\xc8\x87@'
p5872
tp5873
bag2
(g3
(I0
tp5874
g5
tp5875
Rp5876
(I1
(I1
tp5877
g12
I00
S'r\xa1shI\xd4\x87@'
p5878
tp5879
bag2
(g3
(I0
tp5880
g5
tp5881
Rp5882
(I1
(I1
tp5883
g12
I00
S'~\x1e\xdd\xc4[\xe0\x87@'
p5884
tp5885
bag2
(g3
(I0
tp5886
g5
tp5887
Rp5888
(I1
(I1
tp5889
g12
I00
S'-\xa4\x80l$\xec\x87@'
p5890
tp5891
bag2
(g3
(I0
tp5892
g5
tp5893
Rp5894
(I1
(I1
tp5895
g12
I00
S'T\x85E4\xa3\xf7\x87@'
p5896
tp5897
bag2
(g3
(I0
tp5898
g5
tp5899
Rp5900
(I1
(I1
tp5901
g12
I00
S'T\xbeW\x9b\xbb\x03\x88@'
p5902
tp5903
bag2
(g3
(I0
tp5904
g5
tp5905
Rp5906
(I1
(I1
tp5907
g12
I00
S'\xf4\x1fw\x90\x99\x0f\x88@'
p5908
tp5909
bag2
(g3
(I0
tp5910
g5
tp5911
Rp5912
(I1
(I1
tp5913
g12
I00
S'\xd0\x89J\x146\x1b\x88@'
p5914
tp5915
bag2
(g3
(I0
tp5916
g5
tp5917
Rp5918
(I1
(I1
tp5919
g12
I00
S"\xec\x87\xb1\x18c'\x88@"
p5920
tp5921
bag2
(g3
(I0
tp5922
g5
tp5923
Rp5924
(I1
(I1
tp5925
g12
I00
S'j\xd3f\xae`3\x88@'
p5926
tp5927
bag2
(g3
(I0
tp5928
g5
tp5929
Rp5930
(I1
(I1
tp5931
g12
I00
S'\x91\x90\x1e\x17"?\x88@'
p5932
tp5933
bag2
(g3
(I0
tp5934
g5
tp5935
Rp5936
(I1
(I1
tp5937
g12
I00
S'\x0cJ\x91*mK\x88@'
p5938
tp5939
bag2
(g3
(I0
tp5940
g5
tp5941
Rp5942
(I1
(I1
tp5943
g12
I00
S'@\xb5B\x11\x8fW\x88@'
p5944
tp5945
bag2
(g3
(I0
tp5946
g5
tp5947
Rp5948
(I1
(I1
tp5949
g12
I00
S"\x86\x8f\xb5\x84'd\x88@"
p5950
tp5951
bag2
(g3
(I0
tp5952
g5
tp5953
Rp5954
(I1
(I1
tp5955
g12
I00
S'\x7f,\x08p\x9ap\x88@'
p5956
tp5957
bag2
(g3
(I0
tp5958
g5
tp5959
Rp5960
(I1
(I1
tp5961
g12
I00
S'\x87o\x1d\x11\xd8|\x88@'
p5962
tp5963
bag2
(g3
(I0
tp5964
g5
tp5965
Rp5966
(I1
(I1
tp5967
g12
I00
S'\xe8n\xa1\x1c\x7f\x89\x88@'
p5968
tp5969
bag2
(g3
(I0
tp5970
g5
tp5971
Rp5972
(I1
(I1
tp5973
g12
I00
S'V\x96\xac\xae\t\x96\x88@'
p5974
tp5975
bag2
(g3
(I0
tp5976
g5
tp5977
Rp5978
(I1
(I1
tp5979
g12
I00
S'\xda\x81\x91Cf\xa2\x88@'
p5980
tp5981
bag2
(g3
(I0
tp5982
g5
tp5983
Rp5984
(I1
(I1
tp5985
g12
I00
S'\xed\xde(L&\xaf\x88@'
p5986
tp5987
bag2
(g3
(I0
tp5988
g5
tp5989
Rp5990
(I1
(I1
tp5991
g12
I00
S'.O\x82\x0b\xd2\xbb\x88@'
p5992
tp5993
bag2
(g3
(I0
tp5994
g5
tp5995
Rp5996
(I1
(I1
tp5997
g12
I00
S'\x1b\xc4\xe3\xc5\xd4\xc8\x88@'
p5998
tp5999
bag2
(g3
(I0
tp6000
g5
tp6001
Rp6002
(I1
(I1
tp6003
g12
I00
S'0I\xc5\x10\xcb\xd5\x88@'
p6004
tp6005
bag2
(g3
(I0
tp6006
g5
tp6007
Rp6008
(I1
(I1
tp6009
g12
I00
S'\xd9|\xc2\xa4\x9d\xe2\x88@'
p6010
tp6011
bag2
(g3
(I0
tp6012
g5
tp6013
Rp6014
(I1
(I1
tp6015
g12
I00
S"\xed\x14'8\xb8\xef\x88@"
p6016
tp6017
bag2
(g3
(I0
tp6018
g5
tp6019
Rp6020
(I1
(I1
tp6021
g12
I00
S'wo\x0c\xc6\xcd\xfc\x88@'
p6022
tp6023
bag2
(g3
(I0
tp6024
g5
tp6025
Rp6026
(I1
(I1
tp6027
g12
I00
S'\x8b\x11=S"\n\x89@'
p6028
tp6029
bag2
(g3
(I0
tp6030
g5
tp6031
Rp6032
(I1
(I1
tp6033
g12
I00
S';\x00[F|\x17\x89@'
p6034
tp6035
baa.