(lp0
(lp1
cnumpy.core.multiarray
scalar
p2
(cnumpy
dtype
p3
(S'f8'
p4
I0
I1
tp5
Rp6
(I3
S'<'
p7
NNNI-1
I-1
I0
tp8
bS'q\xfa3\x0b\xcb\xbc2@'
p9
tp10
Rp11
ag2
(g6
S'wR\\d8\xcd2@'
p12
tp13
Rp14
ag2
(g6
S't\xb3\xc5\xdb\x11\xbb2@'
p15
tp16
Rp17
ag2
(g6
S'\xc5*W\x02\xffh=@'
p18
tp19
Rp20
ag2
(g6
S'\xfdSc\x8d\xa4\xba2@'
p21
tp22
Rp23
ag2
(g6
S'\x1e\x95\xded\xe0\xbc3@'
p24
tp25
Rp26
aa(lp27
aI1
aI0
aI2
aI3
a.