(lp0
(lp1
cnumpy.core.multiarray
_reconstruct
p2
(cnumpy
ndarray
p3
(I0
tp4
S'b'
p5
tp6
Rp7
(I1
(I1
tp8
cnumpy
dtype
p9
(S'f8'
p10
I0
I1
tp11
Rp12
(I3
S'<'
p13
NNNI-1
I-1
I0
tp14
bI00
S'\x00\x00\x00\x00\x00\xc4\x90@'
p15
tp16
bag2
(g3
(I0
tp17
g5
tp18
Rp19
(I1
(I1
tp20
g12
I00
S'\x00\x00\x00\x00\x00\xc4\x90@'
p21
tp22
bag2
(g3
(I0
tp23
g5
tp24
Rp25
(I1
(I1
tp26
g12
I00
S'\x00\x00\x00\x00\x00\xc4\x90@'
p27
tp28
bag2
(g3
(I0
tp29
g5
tp30
Rp31
(I1
(I1
tp32
g12
I00
S'_ql\xeb\xf9\xc3\x90@'
p33
tp34
bag2
(g3
(I0
tp35
g5
tp36
Rp37
(I1
(I1
tp38
g12
I00
S'\xcf\xc2\xa3\x14\xc9\xc3\x90@'
p39
tp40
bag2
(g3
(I0
tp41
g5
tp42
Rp43
(I1
(I1
tp44
g12
I00
S'\xa2j]\x19\x7f\xc3\x90@'
p45
tp46
bag2
(g3
(I0
tp47
g5
tp48
Rp49
(I1
(I1
tp50
g12
I00
S'\x13Z\xc2\xc5A\xc3\x90@'
p51
tp52
bag2
(g3
(I0
tp53
g5
tp54
Rp55
(I1
(I1
tp56
g12
I00
S'\x1f\x183\xb7:\xc3\x90@'
p57
tp58
bag2
(g3
(I0
tp59
g5
tp60
Rp61
(I1
(I1
tp62
g12
I00
S'\x1d\xcd\xde\xd1m\xc3\x90@'
p63
tp64
bag2
(g3
(I0
tp65
g5
tp66
Rp67
(I1
(I1
tp68
g12
I00
S'\xdbT\xcdN\xbe\xc3\x90@'
p69
tp70
bag2
(g3
(I0
tp71
g5
tp72
Rp73
(I1
(I1
tp74
g12
I00
S'\xa90J\xb5\xf4\xc3\x90@'
p75
tp76
bag2
(g3
(I0
tp77
g5
tp78
Rp79
(I1
(I1
tp80
g12
I00
S'^\xf2t\xce\xbc\xc3\x90@'
p81
tp82
bag2
(g3
(I0
tp83
g5
tp84
Rp85
(I1
(I1
tp86
g12
I00
S'\x1f\xefk\xf1\xa7\xc2\x90@'
p87
tp88
bag2
(g3
(I0
tp89
g5
tp90
Rp91
(I1
(I1
tp92
g12
I00
S'\x10\x1c\xf2\xf6p\xc0\x90@'
p93
tp94
bag2
(g3
(I0
tp95
g5
tp96
Rp97
(I1
(I1
tp98
g12
I00
S'\xec\xff\ti\x04\xbd\x90@'
p99
tp100
bag2
(g3
(I0
tp101
g5
tp102
Rp103
(I1
(I1
tp104
g12
I00
S'\x92\xbb-\xa6\x1b\xb8\x90@'
p105
tp106
bag2
(g3
(I0
tp107
g5
tp108
Rp109
(I1
(I1
tp110
g12
I00
S'\xcfT^\x99\x1d\xb2\x90@'
p111
tp112
bag2
(g3
(I0
tp113
g5
tp114
Rp115
(I1
(I1
tp116
g12
I00
S'\xf0c^\xb2l\xab\x90@'
p117
tp118
bag2
(g3
(I0
tp119
g5
tp120
Rp121
(I1
(I1
tp122
g12
I00
S'\xe7\xcf\x81\xd6P\xa4\x90@'
p123
tp124
bag2
(g3
(I0
tp125
g5
tp126
Rp127
(I1
(I1
tp128
g12
I00
S'\xb6\xb0\x8d\xf4\\\x9c\x90@'
p129
tp130
bag2
(g3
(I0
tp131
g5
tp132
Rp133
(I1
(I1
tp134
g12
I00
S'a\xd2C\xcfM\x94\x90@'
p135
tp136
bag2
(g3
(I0
tp137
g5
tp138
Rp139
(I1
(I1
tp140
g12
I00
S'\xae\xef\x9e\xc9I\x8c\x90@'
p141
tp142
bag2
(g3
(I0
tp143
g5
tp144
Rp145
(I1
(I1
tp146
g12
I00
S'\xbfC7\xbd\xf7\x83\x90@'
p147
tp148
bag2
(g3
(I0
tp149
g5
tp150
Rp151
(I1
(I1
tp152
g12
I00
S'u\x8e\x8fd\xca{\x90@'
p153
tp154
bag2
(g3
(I0
tp155
g5
tp156
Rp157
(I1
(I1
tp158
g12
I00
S'\xe1\x17$\x93qs\x90@'
p159
tp160
bag2
(g3
(I0
tp161
g5
tp162
Rp163
(I1
(I1
tp164
g12
I00
S'c27\x89Dk\x90@'
p165
tp166
bag2
(g3
(I0
tp167
g5
tp168
Rp169
(I1
(I1
tp170
g12
I00
S'O!\x9a\x8e.c\x90@'
p171
tp172
bag2
(g3
(I0
tp173
g5
tp174
Rp175
(I1
(I1
tp176
g12
I00
S'\t2\x0f\xb5\xf2Z\x90@'
p177
tp178
bag2
(g3
(I0
tp179
g5
tp180
Rp181
(I1
(I1
tp182
g12
I00
S'|c\x90\xc1\xd9R\x90@'
p183
tp184
bag2
(g3
(I0
tp185
g5
tp186
Rp187
(I1
(I1
tp188
g12
I00
S'Z(\xa0J\xa4J\x90@'
p189
tp190
bag2
(g3
(I0
tp191
g5
tp192
Rp193
(I1
(I1
tp194
g12
I00
S'\xadu\x9e\xc6\x8cB\x90@'
p195
tp196
bag2
(g3
(I0
tp197
g5
tp198
Rp199
(I1
(I1
tp200
g12
I00
S'F\xef\xea\x91\x81:\x90@'
p201
tp202
bag2
(g3
(I0
tp203
g5
tp204
Rp205
(I1
(I1
tp206
g12
I00
S'[\xa0\xbb\x82^2\x90@'
p207
tp208
bag2
(g3
(I0
tp209
g5
tp210
Rp211
(I1
(I1
tp212
g12
I00
S'.\x88I\x1aS*\x90@'
p213
tp214
bag2
(g3
(I0
tp215
g5
tp216
Rp217
(I1
(I1
tp218
g12
I00
S'\xc5\xac`\xba7"\x90@'
p219
tp220
bag2
(g3
(I0
tp221
g5
tp222
Rp223
(I1
(I1
tp224
g12
I00
S'\x0f\x10\xc9\xaa.\x1a\x90@'
p225
tp226
bag2
(g3
(I0
tp227
g5
tp228
Rp229
(I1
(I1
tp230
g12
I00
S'\x99zr\x824\x12\x90@'
p231
tp232
bag2
(g3
(I0
tp233
g5
tp234
Rp235
(I1
(I1
tp236
g12
I00
S'h\xd2\xe8\x1f&\n\x90@'
p237
tp238
bag2
(g3
(I0
tp239
g5
tp240
Rp241
(I1
(I1
tp242
g12
I00
S'/\x8f\xe9\xbaZ\x02\x90@'
p243
tp244
bag2
(g3
(I0
tp245
g5
tp246
Rp247
(I1
(I1
tp248
g12
I00
S'\xd8\\\xa4\x04\xfc\xf4\x8f@'
p249
tp250
bag2
(g3
(I0
tp251
g5
tp252
Rp253
(I1
(I1
tp254
g12
I00
S'\x08\x96>\xf3\x84\xe5\x8f@'
p255
tp256
bag2
(g3
(I0
tp257
g5
tp258
Rp259
(I1
(I1
tp260
g12
I00
S'/!H\x17\xd5\xd5\x8f@'
p261
tp262
bag2
(g3
(I0
tp263
g5
tp264
Rp265
(I1
(I1
tp266
g12
I00
S'\x16\x99\xc24\xf4\xc5\x8f@'
p267
tp268
bag2
(g3
(I0
tp269
g5
tp270
Rp271
(I1
(I1
tp272
g12
I00
S'Y\x8b\xe5@D\xb6\x8f@'
p273
tp274
bag2
(g3
(I0
tp275
g5
tp276
Rp277
(I1
(I1
tp278
g12
I00
S'X\xd2"\x18b\xa6\x8f@'
p279
tp280
bag2
(g3
(I0
tp281
g5
tp282
Rp283
(I1
(I1
tp284
g12
I00
S'\xa8\x89\xfa?\xab\x96\x8f@'
p285
tp286
bag2
(g3
(I0
tp287
g5
tp288
Rp289
(I1
(I1
tp290
g12
I00
S'#2\xea\x02\xc8\x86\x8f@'
p291
tp292
bag2
(g3
(I0
tp293
g5
tp294
Rp295
(I1
(I1
tp296
g12
I00
S'\xfc\x84$\xf7\xbav\x8f@'
p297
tp298
bag2
(g3
(I0
tp299
g5
tp300
Rp301
(I1
(I1
tp302
g12
I00
S'0y\x1cRhi\x8f@'
p303
tp304
bag2
(g3
(I0
tp305
g5
tp306
Rp307
(I1
(I1
tp308
g12
I00
S'P\xc4\xc6\x83X^\x8f@'
p309
tp310
bag2
(g3
(I0
tp311
g5
tp312
Rp313
(I1
(I1
tp314
g12
I00
S'\xa3m\xae\x1d\xabU\x8f@'
p315
tp316
bag2
(g3
(I0
tp317
g5
tp318
Rp319
(I1
(I1
tp320
g12
I00
S'7\xfa!q\x08K\x8f@'
p321
tp322
bag2
(g3
(I0
tp323
g5
tp324
Rp325
(I1
(I1
tp326
g12
I00
S'\x98*[\xd5\xf2B\x8f@'
p327
tp328
bag2
(g3
(I0
tp329
g5
tp330
Rp331
(I1
(I1
tp332
g12
I00
S'\x11\x1c%\xfeg=\x8f@'
p333
tp334
bag2
(g3
(I0
tp335
g5
tp336
Rp337
(I1
(I1
tp338
g12
I00
S'j\x89M\xc6v:\x8f@'
p339
tp340
bag2
(g3
(I0
tp341
g5
tp342
Rp343
(I1
(I1
tp344
g12
I00
S'\xec\x15\xfeB}5\x8f@'
p345
tp346
bag2
(g3
(I0
tp347
g5
tp348
Rp349
(I1
(I1
tp350
g12
I00
S'|\x95:9\x113\x8f@'
p351
tp352
bag2
(g3
(I0
tp353
g5
tp354
Rp355
(I1
(I1
tp356
g12
I00
S'\x94\x9a\xcc\xf4\x98.\x8f@'
p357
tp358
bag2
(g3
(I0
tp359
g5
tp360
Rp361
(I1
(I1
tp362
g12
I00
S'\xe1`\x89\x11\x0f(\x8f@'
p363
tp364
bag2
(g3
(I0
tp365
g5
tp366
Rp367
(I1
(I1
tp368
g12
I00
S'\xb3\xf4\xd4(!$\x8f@'
p369
tp370
bag2
(g3
(I0
tp371
g5
tp372
Rp373
(I1
(I1
tp374
g12
I00
S'\x19\x84\xb2f#\x1e\x8f@'
p375
tp376
bag2
(g3
(I0
tp377
g5
tp378
Rp379
(I1
(I1
tp380
g12
I00
S'\xd7M\xb8\xd9\x08\x16\x8f@'
p381
tp382
bag2
(g3
(I0
tp383
g5
tp384
Rp385
(I1
(I1
tp386
g12
I00
S'\r\xc5&\xce\xc5\x0b\x8f@'
p387
tp388
bag2
(g3
(I0
tp389
g5
tp390
Rp391
(I1
(I1
tp392
g12
I00
S'Y\x90EvV\xff\x8e@'
p393
tp394
bag2
(g3
(I0
tp395
g5
tp396
Rp397
(I1
(I1
tp398
g12
I00
S'\x90Nd\xaa\xa5\xf1\x8e@'
p399
tp400
bag2
(g3
(I0
tp401
g5
tp402
Rp403
(I1
(I1
tp404
g12
I00
S'\xe4\xc2\xb3p]\xe3\x8e@'
p405
tp406
bag2
(g3
(I0
tp407
g5
tp408
Rp409
(I1
(I1
tp410
g12
I00
S'\x00\x04\xbb\xe7\xbb\xd4\x8e@'
p411
tp412
bag2
(g3
(I0
tp413
g5
tp414
Rp415
(I1
(I1
tp416
g12
I00
S'\xacb\x125\xd8\xc5\x8e@'
p417
tp418
bag2
(g3
(I0
tp419
g5
tp420
Rp421
(I1
(I1
tp422
g12
I00
S'\x18e\xb5\xd0\xbe\xb6\x8e@'
p423
tp424
bag2
(g3
(I0
tp425
g5
tp426
Rp427
(I1
(I1
tp428
g12
I00
S'x\xfe\xf4Kw\xa7\x8e@'
p429
tp430
bag2
(g3
(I0
tp431
g5
tp432
Rp433
(I1
(I1
tp434
g12
I00
S'\x81\x7f\nI\x07\x98\x8e@'
p435
tp436
bag2
(g3
(I0
tp437
g5
tp438
Rp439
(I1
(I1
tp440
g12
I00
S'\x8dz\xc3\xe1p\x88\x8e@'
p441
tp442
bag2
(g3
(I0
tp443
g5
tp444
Rp445
(I1
(I1
tp446
g12
I00
S'\x0c\xed\xd4!\xb8x\x8e@'
p447
tp448
bag2
(g3
(I0
tp449
g5
tp450
Rp451
(I1
(I1
tp452
g12
I00
S's\xfe\xb1,\xe2h\x8e@'
p453
tp454
bag2
(g3
(I0
tp455
g5
tp456
Rp457
(I1
(I1
tp458
g12
I00
S'\x13\xea\xd9\x88\x02Y\x8e@'
p459
tp460
bag2
(g3
(I0
tp461
g5
tp462
Rp463
(I1
(I1
tp464
g12
I00
S'i\x1e\xe1\x17yI\x8e@'
p465
tp466
bag2
(g3
(I0
tp467
g5
tp468
Rp469
(I1
(I1
tp470
g12
I00
S'*L\xd4\x1dH:\x8e@'
p471
tp472
bag2
(g3
(I0
tp473
g5
tp474
Rp475
(I1
(I1
tp476
g12
I00
S'\xc3\xb0\x85|.*\x8e@'
p477
tp478
bag2
(g3
(I0
tp479
g5
tp480
Rp481
(I1
(I1
tp482
g12
I00
S"6=\xbf'\x92\x19\x8e@"
p483
tp484
bag2
(g3
(I0
tp485
g5
tp486
Rp487
(I1
(I1
tp488
g12
I00
S'\x8cJ\xda\x88\xae\x08\x8e@'
p489
tp490
bag2
(g3
(I0
tp491
g5
tp492
Rp493
(I1
(I1
tp494
g12
I00
S'B\x14\xc7\x9a\xb0\xf7\x8d@'
p495
tp496
bag2
(g3
(I0
tp497
g5
tp498
Rp499
(I1
(I1
tp500
g12
I00
S'\x13n\xbb9\xba\xe6\x8d@'
p501
tp502
bag2
(g3
(I0
tp503
g5
tp504
Rp505
(I1
(I1
tp506
g12
I00
S'*\xa1\xa5\xa6\xe6\xd5\x8d@'
p507
tp508
bag2
(g3
(I0
tp509
g5
tp510
Rp511
(I1
(I1
tp512
g12
I00
S'\xae\xe8[\xd7(\xc5\x8d@'
p513
tp514
bag2
(g3
(I0
tp515
g5
tp516
Rp517
(I1
(I1
tp518
g12
I00
S'\xfe\xf0\xd1\xddm\xb4\x8d@'
p519
tp520
bag2
(g3
(I0
tp521
g5
tp522
Rp523
(I1
(I1
tp524
g12
I00
S'\xfa\xd3\x96\xf6\xd7\xa3\x8d@'
p525
tp526
bag2
(g3
(I0
tp527
g5
tp528
Rp529
(I1
(I1
tp530
g12
I00
S'\xa7\xac\x9d3\x14\x93\x8d@'
p531
tp532
bag2
(g3
(I0
tp533
g5
tp534
Rp535
(I1
(I1
tp536
g12
I00
S'{\xb5\x05\xbc\x9f\x84\x8d@'
p537
tp538
bag2
(g3
(I0
tp539
g5
tp540
Rp541
(I1
(I1
tp542
g12
I00
S'a\xa7\x07\x97!x\x8d@'
p543
tp544
bag2
(g3
(I0
tp545
g5
tp546
Rp547
(I1
(I1
tp548
g12
I00
S'\xe0N\xca\xd9ti\x8d@'
p549
tp550
bag2
(g3
(I0
tp551
g5
tp552
Rp553
(I1
(I1
tp554
g12
I00
S'\xc5\xb9\xb0XH]\x8d@'
p555
tp556
bag2
(g3
(I0
tp557
g5
tp558
Rp559
(I1
(I1
tp560
g12
I00
S'R\xae\xc3\xf2\xf6N\x8d@'
p561
tp562
bag2
(g3
(I0
tp563
g5
tp564
Rp565
(I1
(I1
tp566
g12
I00
S'\xc5\x8a\x05Y)C\x8d@'
p567
tp568
bag2
(g3
(I0
tp569
g5
tp570
Rp571
(I1
(I1
tp572
g12
I00
S"'%\xd1\x03/5\x8d@"
p573
tp574
bag2
(g3
(I0
tp575
g5
tp576
Rp577
(I1
(I1
tp578
g12
I00
S'\x1ag\xd8,K%\x8d@'
p579
tp580
bag2
(g3
(I0
tp581
g5
tp582
Rp583
(I1
(I1
tp584
g12
I00
S'\xe1f\x91\x7f\x9b\x14\x8d@'
p585
tp586
bag2
(g3
(I0
tp587
g5
tp588
Rp589
(I1
(I1
tp590
g12
I00
S'\xe1\x92\xb9@+\x04\x8d@'
p591
tp592
bag2
(g3
(I0
tp593
g5
tp594
Rp595
(I1
(I1
tp596
g12
I00
S'g*\x90\xe5M\xf4\x8c@'
p597
tp598
bag2
(g3
(I0
tp599
g5
tp600
Rp601
(I1
(I1
tp602
g12
I00
S'\xe5\xc6\xdf\x18\xf0\xe4\x8c@'
p603
tp604
bag2
(g3
(I0
tp605
g5
tp606
Rp607
(I1
(I1
tp608
g12
I00
S'*\xef\xc0~\xfb\xd5\x8c@'
p609
tp610
bag2
(g3
(I0
tp611
g5
tp612
Rp613
(I1
(I1
tp614
g12
I00
S'\xce\xc8\x04\xe6H\xc6\x8c@'
p615
tp616
bag2
(g3
(I0
tp617
g5
tp618
Rp619
(I1
(I1
tp620
g12
I00
S'\x1a\xb0\x1a\xd1\xdc\xb5\x8c@'
p621
tp622
bag2
(g3
(I0
tp623
g5
tp624
Rp625
(I1
(I1
tp626
g12
I00
S'\xe0\xe3p\x04\xca\xa4\x8c@'
p627
tp628
bag2
(g3
(I0
tp629
g5
tp630
Rp631
(I1
(I1
tp632
g12
I00
S'\x9f\xd8=^e\x93\x8c@'
p633
tp634
bag2
(g3
(I0
tp635
g5
tp636
Rp637
(I1
(I1
tp638
g12
I00
S'F\x95SP\xdb\x81\x8c@'
p639
tp640
bag2
(g3
(I0
tp641
g5
tp642
Rp643
(I1
(I1
tp644
g12
I00
S'\xb73\x97\x90;p\x8c@'
p645
tp646
bag2
(g3
(I0
tp647
g5
tp648
Rp649
(I1
(I1
tp650
g12
I00
S"W$\xa8'\x8e^\x8c@"
p651
tp652
bag2
(g3
(I0
tp653
g5
tp654
Rp655
(I1
(I1
tp656
g12
I00
S'\xe9\x9e\xe9\n\xd5L\x8c@'
p657
tp658
bag2
(g3
(I0
tp659
g5
tp660
Rp661
(I1
(I1
tp662
g12
I00
S'SPw\xdbW;\x8c@'
p663
tp664
bag2
(g3
(I0
tp665
g5
tp666
Rp667
(I1
(I1
tp668
g12
I00
S'\xfc\x0ch\xd7\xa9)\x8c@'
p669
tp670
bag2
(g3
(I0
tp671
g5
tp672
Rp673
(I1
(I1
tp674
g12
I00
S'2*;u\xe8\x17\x8c@'
p675
tp676
bag2
(g3
(I0
tp677
g5
tp678
Rp679
(I1
(I1
tp680
g12
I00
S')\xbdR\x0f\\\x06\x8c@'
p681
tp682
bag2
(g3
(I0
tp683
g5
tp684
Rp685
(I1
(I1
tp686
g12
I00
S'C\x16\xaf!K\xf7\x8b@'
p687
tp688
bag2
(g3
(I0
tp689
g5
tp690
Rp691
(I1
(I1
tp692
g12
I00
S'\xfdy\x1c\x16\xa4\xe6\x8b@'
p693
tp694
bag2
(g3
(I0
tp695
g5
tp696
Rp697
(I1
(I1
tp698
g12
I00
S'\xd2\xd0\xa6Uc\xd5\x8b@'
p699
tp700
bag2
(g3
(I0
tp701
g5
tp702
Rp703
(I1
(I1
tp704
g12
I00
S'\xb8\x1aw\xd3\xf8\xc3\x8b@'
p705
tp706
bag2
(g3
(I0
tp707
g5
tp708
Rp709
(I1
(I1
tp710
g12
I00
S'N&\xd3\xe9\xa4\xb2\x8b@'
p711
tp712
bag2
(g3
(I0
tp713
g5
tp714
Rp715
(I1
(I1
tp716
g12
I00
S'\xa9\xa3a\xc8\xe9\xa1\x8b@'
p717
tp718
bag2
(g3
(I0
tp719
g5
tp720
Rp721
(I1
(I1
tp722
g12
I00
S'l^f\xff\xcf\x91\x8b@'
p723
tp724
bag2
(g3
(I0
tp725
g5
tp726
Rp727
(I1
(I1
tp728
g12
I00
S'\xfcNR\xf0\xfb\x80\x8b@'
p729
tp730
bag2
(g3
(I0
tp731
g5
tp732
Rp733
(I1
(I1
tp734
g12
I00
S'\xa8m~G\xa7o\x8b@'
p735
tp736
bag2
(g3
(I0
tp737
g5
tp738
Rp739
(I1
(I1
tp740
g12
I00
S'\x98J\x14@\x1e^\x8b@'
p741
tp742
bag2
(g3
(I0
tp743
g5
tp744
Rp745
(I1
(I1
tp746
g12
I00
S'\xa2|]\xd2{L\x8b@'
p747
tp748
bag2
(g3
(I0
tp749
g5
tp750
Rp751
(I1
(I1
tp752
g12
I00
S'\x15\x0c\xd9??=\x8b@'
p753
tp754
bag2
(g3
(I0
tp755
g5
tp756
Rp757
(I1
(I1
tp758
g12
I00
S']a\x03\xc3J,\x8b@'
p759
tp760
bag2
(g3
(I0
tp761
g5
tp762
Rp763
(I1
(I1
tp764
g12
I00
S'\x81\xca\xa7E\xa8\x1a\x8b@'
p765
tp766
bag2
(g3
(I0
tp767
g5
tp768
Rp769
(I1
(I1
tp770
g12
I00
S'\xef\xa5\x8c\x89\xd3\n\x8b@'
p771
tp772
bag2
(g3
(I0
tp773
g5
tp774
Rp775
(I1
(I1
tp776
g12
I00
S'`\xc89\x1e\x81\xfc\x8a@'
p777
tp778
bag2
(g3
(I0
tp779
g5
tp780
Rp781
(I1
(I1
tp782
g12
I00
S'(\xe7t\xda\xc2\xef\x8a@'
p783
tp784
bag2
(g3
(I0
tp785
g5
tp786
Rp787
(I1
(I1
tp788
g12
I00
S'I-\x93\xa1\x98\xe4\x8a@'
p789
tp790
bag2
(g3
(I0
tp791
g5
tp792
Rp793
(I1
(I1
tp794
g12
I00
S'Y\x1c\xb3W\xfc\xda\x8a@'
p795
tp796
bag2
(g3
(I0
tp797
g5
tp798
Rp799
(I1
(I1
tp800
g12
I00
S'\xd7uk\xbd\xe9\xd2\x8a@'
p801
tp802
bag2
(g3
(I0
tp803
g5
tp804
Rp805
(I1
(I1
tp806
g12
I00
S'Y\x0bXW\xde\xc8\x8a@'
p807
tp808
bag2
(g3
(I0
tp809
g5
tp810
Rp811
(I1
(I1
tp812
g12
I00
S'\xa3P\x8b\x83W\xbc\x8a@'
p813
tp814
bag2
(g3
(I0
tp815
g5
tp816
Rp817
(I1
(I1
tp818
g12
I00
S'\xed\x92s\xf0\xd1\xb1\x8a@'
p819
tp820
bag2
(g3
(I0
tp821
g5
tp822
Rp823
(I1
(I1
tp824
g12
I00
S'\xa0\n\x80v\xda\xa4\x8a@'
p825
tp826
bag2
(g3
(I0
tp827
g5
tp828
Rp829
(I1
(I1
tp830
g12
I00
S'\x1a\xa3V\x9e\xdb\x99\x8a@'
p831
tp832
bag2
(g3
(I0
tp833
g5
tp834
Rp835
(I1
(I1
tp836
g12
I00
S'\xa6\xa5j\xb4p\x8c\x8a@'
p837
tp838
bag2
(g3
(I0
tp839
g5
tp840
Rp841
(I1
(I1
tp842
g12
I00
S'\xed\x04\xc7\x88r\x80\x8a@'
p843
tp844
bag2
(g3
(I0
tp845
g5
tp846
Rp847
(I1
(I1
tp848
g12
I00
S'\x95\xaew-lv\x8a@'
p849
tp850
bag2
(g3
(I0
tp851
g5
tp852
Rp853
(I1
(I1
tp854
g12
I00
S'tb\xda#\xf3i\x8a@'
p855
tp856
bag2
(g3
(I0
tp857
g5
tp858
Rp859
(I1
(I1
tp860
g12
I00
S' \x0e\xf3b\xa4[\x8a@'
p861
tp862
bag2
(g3
(I0
tp863
g5
tp864
Rp865
(I1
(I1
tp866
g12
I00
S'\xe09\xe9\xdaAK\x8a@'
p867
tp868
bag2
(g3
(I0
tp869
g5
tp870
Rp871
(I1
(I1
tp872
g12
I00
S'i-\xa6\xe669\x8a@'
p873
tp874
bag2
(g3
(I0
tp875
g5
tp876
Rp877
(I1
(I1
tp878
g12
I00
S'\xf0\xc09H\x90)\x8a@'
p879
tp880
bag2
(g3
(I0
tp881
g5
tp882
Rp883
(I1
(I1
tp884
g12
I00
S'\x7f\xc4\x84Z_\x1c\x8a@'
p885
tp886
bag2
(g3
(I0
tp887
g5
tp888
Rp889
(I1
(I1
tp890
g12
I00
S'0\xe2N\x00\xff\r\x8a@'
p891
tp892
bag2
(g3
(I0
tp893
g5
tp894
Rp895
(I1
(I1
tp896
g12
I00
S'\xf4\xbd\x91j\xb6\xfe\x89@'
p897
tp898
bag2
(g3
(I0
tp899
g5
tp900
Rp901
(I1
(I1
tp902
g12
I00
S':\xa3\xb2\xbc\xcb\xee\x89@'
p903
tp904
bag2
(g3
(I0
tp905
g5
tp906
Rp907
(I1
(I1
tp908
g12
I00
S'#\xc8,-\x8d\xde\x89@'
p909
tp910
bag2
(g3
(I0
tp911
g5
tp912
Rp913
(I1
(I1
tp914
g12
I00
S'P\xdf^\xce-\xce\x89@'
p915
tp916
bag2
(g3
(I0
tp917
g5
tp918
Rp919
(I1
(I1
tp920
g12
I00
S'B\xe6\xb5\x98\xe5\xbd\x89@'
p921
tp922
bag2
(g3
(I0
tp923
g5
tp924
Rp925
(I1
(I1
tp926
g12
I00
S'xj\xc1\x14|\xac\x89@'
p927
tp928
bag2
(g3
(I0
tp929
g5
tp930
Rp931
(I1
(I1
tp932
g12
I00
S'Z\xe0K\t\x19\x9a\x89@'
p933
tp934
bag2
(g3
(I0
tp935
g5
tp936
Rp937
(I1
(I1
tp938
g12
I00
S'\x10\xdc\x89q&\x87\x89@'
p939
tp940
bag2
(g3
(I0
tp941
g5
tp942
Rp943
(I1
(I1
tp944
g12
I00
S'#$w\xa2\xc5u\x89@'
p945
tp946
bag2
(g3
(I0
tp947
g5
tp948
Rp949
(I1
(I1
tp950
g12
I00
S'`k\xb63\x0bf\x89@'
p951
tp952
bag2
(g3
(I0
tp953
g5
tp954
Rp955
(I1
(I1
tp956
g12
I00
S'\x97\x8dX\xe5pT\x89@'
p957
tp958
bag2
(g3
(I0
tp959
g5
tp960
Rp961
(I1
(I1
tp962
g12
I00
S'\x05\xdb\xc6\x01\x98A\x89@'
p963
tp964
bag2
(g3
(I0
tp965
g5
tp966
Rp967
(I1
(I1
tp968
g12
I00
S']AZf\xad0\x89@'
p969
tp970
bag2
(g3
(I0
tp971
g5
tp972
Rp973
(I1
(I1
tp974
g12
I00
S'\r-\xeb\x0c6\x1e\x89@'
p975
tp976
bag2
(g3
(I0
tp977
g5
tp978
Rp979
(I1
(I1
tp980
g12
I00
S'\xbd\xcb\x90\xf9\xee\x0c\x89@'
p981
tp982
bag2
(g3
(I0
tp983
g5
tp984
Rp985
(I1
(I1
tp986
g12
I00
S'\x1a1\xf5\xac\xa5\xfc\x88@'
p987
tp988
bag2
(g3
(I0
tp989
g5
tp990
Rp991
(I1
(I1
tp992
g12
I00
S'\xdaY\xfaU?\xee\x88@'
p993
tp994
bag2
(g3
(I0
tp995
g5
tp996
Rp997
(I1
(I1
tp998
g12
I00
S'\xec\x06\x89\x08\xf7\xdd\x88@'
p999
tp1000
bag2
(g3
(I0
tp1001
g5
tp1002
Rp1003
(I1
(I1
tp1004
g12
I00
S'\x068!n\xca\xcf\x88@'
p1005
tp1006
bag2
(g3
(I0
tp1007
g5
tp1008
Rp1009
(I1
(I1
tp1010
g12
I00
S'\x85\x8d\xd8\x10\xd0\xbf\x88@'
p1011
tp1012
bag2
(g3
(I0
tp1013
g5
tp1014
Rp1015
(I1
(I1
tp1016
g12
I00
S'=\xfe\xb2\xf9$\xae\x88@'
p1017
tp1018
bag2
(g3
(I0
tp1019
g5
tp1020
Rp1021
(I1
(I1
tp1022
g12
I00
S'\x11\x97\x853\x85\x9e\x88@'
p1023
tp1024
bag2
(g3
(I0
tp1025
g5
tp1026
Rp1027
(I1
(I1
tp1028
g12
I00
S')m\x0ev\x00\x8e\x88@'
p1029
tp1030
bag2
(g3
(I0
tp1031
g5
tp1032
Rp1033
(I1
(I1
tp1034
g12
I00
S'\xbar`\x14\x0c|\x88@'
p1035
tp1036
bag2
(g3
(I0
tp1037
g5
tp1038
Rp1039
(I1
(I1
tp1040
g12
I00
S'\xe3i\x91\x95\x0bl\x88@'
p1041
tp1042
bag2
(g3
(I0
tp1043
g5
tp1044
Rp1045
(I1
(I1
tp1046
g12
I00
S'G\xa6\xf0d|Z\x88@'
p1047
tp1048
bag2
(g3
(I0
tp1049
g5
tp1050
Rp1051
(I1
(I1
tp1052
g12
I00
S'N:VK\xe2J\x88@'
p1053
tp1054
bag2
(g3
(I0
tp1055
g5
tp1056
Rp1057
(I1
(I1
tp1058
g12
I00
S'x.\xdb\x8d\xaa9\x88@'
p1059
tp1060
bag2
(g3
(I0
tp1061
g5
tp1062
Rp1063
(I1
(I1
tp1064
g12
I00
S'\xf4\xaes\xd5g*\x88@'
p1065
tp1066
bag2
(g3
(I0
tp1067
g5
tp1068
Rp1069
(I1
(I1
tp1070
g12
I00
S'\xbe\xe8\xdfV\x86\x19\x88@'
p1071
tp1072
bag2
(g3
(I0
tp1073
g5
tp1074
Rp1075
(I1
(I1
tp1076
g12
I00
S'<\t\xb9S\xcb\t\x88@'
p1077
tp1078
bag2
(g3
(I0
tp1079
g5
tp1080
Rp1081
(I1
(I1
tp1082
g12
I00
S'K\xedg\xae0\xf9\x87@'
p1083
tp1084
bag2
(g3
(I0
tp1085
g5
tp1086
Rp1087
(I1
(I1
tp1088
g12
I00
S'[\xd0\xfeU$\xe7\x87@'
p1089
tp1090
bag2
(g3
(I0
tp1091
g5
tp1092
Rp1093
(I1
(I1
tp1094
g12
I00
S'\x93(\xae\x8c\xe5\xd6\x87@'
p1095
tp1096
bag2
(g3
(I0
tp1097
g5
tp1098
Rp1099
(I1
(I1
tp1100
g12
I00
S'\xb4d\x93\xe7/\xc5\x87@'
p1101
tp1102
bag2
(g3
(I0
tp1103
g5
tp1104
Rp1105
(I1
(I1
tp1106
g12
I00
S'\xa8\xa0\xb9T?\xb5\x87@'
p1107
tp1108
bag2
(g3
(I0
tp1109
g5
tp1110
Rp1111
(I1
(I1
tp1112
g12
I00
S'\xb2\x89\x19\xb4\xd4\xa3\x87@'
p1113
tp1114
bag2
(g3
(I0
tp1115
g5
tp1116
Rp1117
(I1
(I1
tp1118
g12
I00
S"\x1d\xdb\x0c4'\x94\x87@"
p1119
tp1120
bag2
(g3
(I0
tp1121
g5
tp1122
Rp1123
(I1
(I1
tp1124
g12
I00
S'\xb7?aH\x02\x83\x87@'
p1125
tp1126
bag2
(g3
(I0
tp1127
g5
tp1128
Rp1129
(I1
(I1
tp1130
g12
I00
S'z\x14\xa9\xaf\x8ds\x87@'
p1131
tp1132
bag2
(g3
(I0
tp1133
g5
tp1134
Rp1135
(I1
(I1
tp1136
g12
I00
S'\x1eOv\t\xa6b\x87@'
p1137
tp1138
bag2
(g3
(I0
tp1139
g5
tp1140
Rp1141
(I1
(I1
tp1142
g12
I00
S'\x02];3#Q\x87@'
p1143
tp1144
bag2
(g3
(I0
tp1145
g5
tp1146
Rp1147
(I1
(I1
tp1148
g12
I00
S'j\x0c\xca\x85V?\x87@'
p1149
tp1150
bag2
(g3
(I0
tp1151
g5
tp1152
Rp1153
(I1
(I1
tp1154
g12
I00
S'\xdc]\x19\xb2{-\x87@'
p1155
tp1156
bag2
(g3
(I0
tp1157
g5
tp1158
Rp1159
(I1
(I1
tp1160
g12
I00
S'"G\x10v\xd7\x1a\x87@'
p1161
tp1162
bag2
(g3
(I0
tp1163
g5
tp1164
Rp1165
(I1
(I1
tp1166
g12
I00
S'\xd0jC%\xc9\x08\x87@'
p1167
tp1168
bag2
(g3
(I0
tp1169
g5
tp1170
Rp1171
(I1
(I1
tp1172
g12
I00
S'#\xd82\xe6A\xf7\x86@'
p1173
tp1174
bag2
(g3
(I0
tp1175
g5
tp1176
Rp1177
(I1
(I1
tp1178
g12
I00
S'B\x89j\xcd|\xe6\x86@'
p1179
tp1180
bag2
(g3
(I0
tp1181
g5
tp1182
Rp1183
(I1
(I1
tp1184
g12
I00
S'>\x9fi9}\xd4\x86@'
p1185
tp1186
bag2
(g3
(I0
tp1187
g5
tp1188
Rp1189
(I1
(I1
tp1190
g12
I00
S'\xa6\xa2_\xb8V\xc3\x86@'
p1191
tp1192
bag2
(g3
(I0
tp1193
g5
tp1194
Rp1195
(I1
(I1
tp1196
g12
I00
S';\xff$\xc41\xb3\x86@'
p1197
tp1198
bag2
(g3
(I0
tp1199
g5
tp1200
Rp1201
(I1
(I1
tp1202
g12
I00
S'\xf0\x80+\x92\x18\xa4\x86@'
p1203
tp1204
bag2
(g3
(I0
tp1205
g5
tp1206
Rp1207
(I1
(I1
tp1208
g12
I00
S'\x05\xf3\x1d\xfb\x10\x96\x86@'
p1209
tp1210
bag2
(g3
(I0
tp1211
g5
tp1212
Rp1213
(I1
(I1
tp1214
g12
I00
S'\xcc\xda\xf4/\x18\x89\x86@'
p1215
tp1216
bag2
(g3
(I0
tp1217
g5
tp1218
Rp1219
(I1
(I1
tp1220
g12
I00
S'A-\xc0\\$}\x86@'
p1221
tp1222
bag2
(g3
(I0
tp1223
g5
tp1224
Rp1225
(I1
(I1
tp1226
g12
I00
S'z\xc3\xc2\xa85r\x86@'
p1227
tp1228
bag2
(g3
(I0
tp1229
g5
tp1230
Rp1231
(I1
(I1
tp1232
g12
I00
S'\xc5H\xa4\xde\x90h\x86@'
p1233
tp1234
bag2
(g3
(I0
tp1235
g5
tp1236
Rp1237
(I1
(I1
tp1238
g12
I00
S'\x96\x856\xe6\xd6]\x86@'
p1239
tp1240
bag2
(g3
(I0
tp1241
g5
tp1242
Rp1243
(I1
(I1
tp1244
g12
I00
S'\xeb^3:\xffS\x86@'
p1245
tp1246
bag2
(g3
(I0
tp1247
g5
tp1248
Rp1249
(I1
(I1
tp1250
g12
I00
S'\xb6\xd9\x84\xb3_I\x86@'
p1251
tp1252
bag2
(g3
(I0
tp1253
g5
tp1254
Rp1255
(I1
(I1
tp1256
g12
I00
S'\x1bkaI\xfb=\x86@'
p1257
tp1258
bag2
(g3
(I0
tp1259
g5
tp1260
Rp1261
(I1
(I1
tp1262
g12
I00
S'\x05{\xd1\xfa\xd71\x86@'
p1263
tp1264
bag2
(g3
(I0
tp1265
g5
tp1266
Rp1267
(I1
(I1
tp1268
g12
I00
S'\x06\xb3\x8c\xa0\xfa$\x86@'
p1269
tp1270
bag2
(g3
(I0
tp1271
g5
tp1272
Rp1273
(I1
(I1
tp1274
g12
I00
S'\xd7N\xe5\x98h\x17\x86@'
p1275
tp1276
bag2
(g3
(I0
tp1277
g5
tp1278
Rp1279
(I1
(I1
tp1280
g12
I00
S"\xdc\xb4T\xc3'\t\x86@"
p1281
tp1282
bag2
(g3
(I0
tp1283
g5
tp1284
Rp1285
(I1
(I1
tp1286
g12
I00
S'j\xa7\x12\x88=\xfa\x85@'
p1287
tp1288
bag2
(g3
(I0
tp1289
g5
tp1290
Rp1291
(I1
(I1
tp1292
g12
I00
S"\xaa'\x9d\xa7\x0c\xea\x85@"
p1293
tp1294
bag2
(g3
(I0
tp1295
g5
tp1296
Rp1297
(I1
(I1
tp1298
g12
I00
S'\xec\x84\xea#\xc5\xd8\x85@'
p1299
tp1300
bag2
(g3
(I0
tp1301
g5
tp1302
Rp1303
(I1
(I1
tp1304
g12
I00
S'\xc9~X\xb0\xff\xc6\x85@'
p1305
tp1306
bag2
(g3
(I0
tp1307
g5
tp1308
Rp1309
(I1
(I1
tp1310
g12
I00
S'\xcdI\x99\x99\x1b\xb5\x85@'
p1311
tp1312
bag2
(g3
(I0
tp1313
g5
tp1314
Rp1315
(I1
(I1
tp1316
g12
I00
S'/\x0e\xe6H0\xa3\x85@'
p1317
tp1318
bag2
(g3
(I0
tp1319
g5
tp1320
Rp1321
(I1
(I1
tp1322
g12
I00
S'\xd4\x80\xe3{\xaf\x91\x85@'
p1323
tp1324
bag2
(g3
(I0
tp1325
g5
tp1326
Rp1327
(I1
(I1
tp1328
g12
I00
S'\x15q\xc6w\xcf\x80\x85@'
p1329
tp1330
bag2
(g3
(I0
tp1331
g5
tp1332
Rp1333
(I1
(I1
tp1334
g12
I00
S'\xaeR\xa7\xac\xadp\x85@'
p1335
tp1336
bag2
(g3
(I0
tp1337
g5
tp1338
Rp1339
(I1
(I1
tp1340
g12
I00
S'\xf8\xcb\x04M\x7fa\x85@'
p1341
tp1342
bag2
(g3
(I0
tp1343
g5
tp1344
Rp1345
(I1
(I1
tp1346
g12
I00
S'\xeag\xf60QS\x85@'
p1347
tp1348
bag2
(g3
(I0
tp1349
g5
tp1350
Rp1351
(I1
(I1
tp1352
g12
I00
S'{\xf4\xeb\xc0\x18F\x85@'
p1353
tp1354
bag2
(g3
(I0
tp1355
g5
tp1356
Rp1357
(I1
(I1
tp1358
g12
I00
S'\x10O`@\xc29\x85@'
p1359
tp1360
bag2
(g3
(I0
tp1361
g5
tp1362
Rp1363
(I1
(I1
tp1364
g12
I00
S't\xe6\xf5\x196.\x85@'
p1365
tp1366
bag2
(g3
(I0
tp1367
g5
tp1368
Rp1369
(I1
(I1
tp1370
g12
I00
S'\x9f\xca\xae&]#\x85@'
p1371
tp1372
bag2
(g3
(I0
tp1373
g5
tp1374
Rp1375
(I1
(I1
tp1376
g12
I00
S',\xae\xd4\xd2 \x19\x85@'
p1377
tp1378
bag2
(g3
(I0
tp1379
g5
tp1380
Rp1381
(I1
(I1
tp1382
g12
I00
S'\x89\xf0\xd2\xc6\x16\x0f\x85@'
p1383
tp1384
bag2
(g3
(I0
tp1385
g5
tp1386
Rp1387
(I1
(I1
tp1388
g12
I00
S'\x04\xb9M/6\x05\x85@'
p1389
tp1390
bag2
(g3
(I0
tp1391
g5
tp1392
Rp1393
(I1
(I1
tp1394
g12
I00
S'\xd2g:\xb9w\xfb\x84@'
p1395
tp1396
bag2
(g3
(I0
tp1397
g5
tp1398
Rp1399
(I1
(I1
tp1400
g12
I00
S'\xe4\x9b\x0b\xf8\xbc\xf1\x84@'
p1401
tp1402
bag2
(g3
(I0
tp1403
g5
tp1404
Rp1405
(I1
(I1
tp1406
g12
I00
S'\xf5\x16c\xf3\xda\xe7\x84@'
p1407
tp1408
bag2
(g3
(I0
tp1409
g5
tp1410
Rp1411
(I1
(I1
tp1412
g12
I00
S'\xf1\xb5_7\xd8\xdd\x84@'
p1413
tp1414
bag2
(g3
(I0
tp1415
g5
tp1416
Rp1417
(I1
(I1
tp1418
g12
I00
S'kb\t\xa8\xba\xd3\x84@'
p1419
tp1420
bag2
(g3
(I0
tp1421
g5
tp1422
Rp1423
(I1
(I1
tp1424
g12
I00
S':]\xa2s\xf2\xc8\x84@'
p1425
tp1426
bag2
(g3
(I0
tp1427
g5
tp1428
Rp1429
(I1
(I1
tp1430
g12
I00
S'\x81W$\xa9\x17\xbe\x84@'
p1431
tp1432
bag2
(g3
(I0
tp1433
g5
tp1434
Rp1435
(I1
(I1
tp1436
g12
I00
S"t:fu'\xb3\x84@"
p1437
tp1438
bag2
(g3
(I0
tp1439
g5
tp1440
Rp1441
(I1
(I1
tp1442
g12
I00
S'\x0e+\xb6#+\xa8\x84@'
p1443
tp1444
bag2
(g3
(I0
tp1445
g5
tp1446
Rp1447
(I1
(I1
tp1448
g12
I00
S'\x94\n\x8c4$\x9d\x84@'
p1449
tp1450
bag2
(g3
(I0
tp1451
g5
tp1452
Rp1453
(I1
(I1
tp1454
g12
I00
S'\x14\x0c\xe0\xf1\x1f\x91\x84@'
p1455
tp1456
bag2
(g3
(I0
tp1457
g5
tp1458
Rp1459
(I1
(I1
tp1460
g12
I00
S'Vs\x01a\x83\x84\x84@'
p1461
tp1462
bag2
(g3
(I0
tp1463
g5
tp1464
Rp1465
(I1
(I1
tp1466
g12
I00
S'\x88H\x85\xa8\xe6v\x84@'
p1467
tp1468
bag2
(g3
(I0
tp1469
g5
tp1470
Rp1471
(I1
(I1
tp1472
g12
I00
S'4n\xb1\xb2\xc7h\x84@'
p1473
tp1474
bag2
(g3
(I0
tp1475
g5
tp1476
Rp1477
(I1
(I1
tp1478
g12
I00
S'{\xd0\x0cx\xa9Y\x84@'
p1479
tp1480
bag2
(g3
(I0
tp1481
g5
tp1482
Rp1483
(I1
(I1
tp1484
g12
I00
S'{\xe8\xc4\xe5\xd0I\x84@'
p1485
tp1486
bag2
(g3
(I0
tp1487
g5
tp1488
Rp1489
(I1
(I1
tp1490
g12
I00
S'.\rO$\xc89\x84@'
p1491
tp1492
bag2
(g3
(I0
tp1493
g5
tp1494
Rp1495
(I1
(I1
tp1496
g12
I00
S'\xdf\x9d\xb9\xdb\x08*\x84@'
p1497
tp1498
bag2
(g3
(I0
tp1499
g5
tp1500
Rp1501
(I1
(I1
tp1502
g12
I00
S'\xaa\xe5\x98\xf6M\x1a\x84@'
p1503
tp1504
bag2
(g3
(I0
tp1505
g5
tp1506
Rp1507
(I1
(I1
tp1508
g12
I00
S'\xff\xc6b\r\xde\n\x84@'
p1509
tp1510
bag2
(g3
(I0
tp1511
g5
tp1512
Rp1513
(I1
(I1
tp1514
g12
I00
S'\xf1^\xfa\xfe\xea\xfb\x83@'
p1515
tp1516
bag2
(g3
(I0
tp1517
g5
tp1518
Rp1519
(I1
(I1
tp1520
g12
I00
S'\xab:\x123}\xed\x83@'
p1521
tp1522
bag2
(g3
(I0
tp1523
g5
tp1524
Rp1525
(I1
(I1
tp1526
g12
I00
S'-\x12\x18\x81\x8a\xdf\x83@'
p1527
tp1528
bag2
(g3
(I0
tp1529
g5
tp1530
Rp1531
(I1
(I1
tp1532
g12
I00
S'L\x98\xbd\xa7\x03\xd2\x83@'
p1533
tp1534
bag2
(g3
(I0
tp1535
g5
tp1536
Rp1537
(I1
(I1
tp1538
g12
I00
S'\xfb\xd7"\xfe\xd6\xc4\x83@'
p1539
tp1540
bag2
(g3
(I0
tp1541
g5
tp1542
Rp1543
(I1
(I1
tp1544
g12
I00
S'K\xa5m\xdc\x9e\xb8\x83@'
p1545
tp1546
bag2
(g3
(I0
tp1547
g5
tp1548
Rp1549
(I1
(I1
tp1550
g12
I00
S'\x12!\xff\xbe\x05\xad\x83@'
p1551
tp1552
bag2
(g3
(I0
tp1553
g5
tp1554
Rp1555
(I1
(I1
tp1556
g12
I00
S'\x89\xe2\xc9\xc6\x13\xa1\x83@'
p1557
tp1558
bag2
(g3
(I0
tp1559
g5
tp1560
Rp1561
(I1
(I1
tp1562
g12
I00
S'\xf6\xc1Y/\xef\x94\x83@'
p1563
tp1564
bag2
(g3
(I0
tp1565
g5
tp1566
Rp1567
(I1
(I1
tp1568
g12
I00
S'q\xd1\x8aA\xad\x88\x83@'
p1569
tp1570
bag2
(g3
(I0
tp1571
g5
tp1572
Rp1573
(I1
(I1
tp1574
g12
I00
S'\x1a/\x0f\x1cX|\x83@'
p1575
tp1576
bag2
(g3
(I0
tp1577
g5
tp1578
Rp1579
(I1
(I1
tp1580
g12
I00
S'\xc6\xa4\xde-\xf3o\x83@'
p1581
tp1582
bag2
(g3
(I0
tp1583
g5
tp1584
Rp1585
(I1
(I1
tp1586
g12
I00
S'\xf1<\xfd\xfe~c\x83@'
p1587
tp1588
bag2
(g3
(I0
tp1589
g5
tp1590
Rp1591
(I1
(I1
tp1592
g12
I00
S'\\\x85\xe5o\xf9V\x83@'
p1593
tp1594
bag2
(g3
(I0
tp1595
g5
tp1596
Rp1597
(I1
(I1
tp1598
g12
I00
S'@\xfe*\xe8`J\x83@'
p1599
tp1600
bag2
(g3
(I0
tp1601
g5
tp1602
Rp1603
(I1
(I1
tp1604
g12
I00
S'\xe63\xffI\xcc=\x83@'
p1605
tp1606
bag2
(g3
(I0
tp1607
g5
tp1608
Rp1609
(I1
(I1
tp1610
g12
I00
S'\x88\x9b>p@1\x83@'
p1611
tp1612
bag2
(g3
(I0
tp1613
g5
tp1614
Rp1615
(I1
(I1
tp1616
g12
I00
S'\xd4\xbc5\n\xb7$\x83@'
p1617
tp1618
bag2
(g3
(I0
tp1619
g5
tp1620
Rp1621
(I1
(I1
tp1622
g12
I00
S'\x96z\xf5\xc0)\x18\x83@'
p1623
tp1624
bag2
(g3
(I0
tp1625
g5
tp1626
Rp1627
(I1
(I1
tp1628
g12
I00
S'\xf4Yt\x81\x92\x0b\x83@'
p1629
tp1630
bag2
(g3
(I0
tp1631
g5
tp1632
Rp1633
(I1
(I1
tp1634
g12
I00
S'#\xf5\xdb\x12\xee\xfe\x82@'
p1635
tp1636
bag2
(g3
(I0
tp1637
g5
tp1638
Rp1639
(I1
(I1
tp1640
g12
I00
S'\xe8\x06/:8\xf2\x82@'
p1641
tp1642
bag2
(g3
(I0
tp1643
g5
tp1644
Rp1645
(I1
(I1
tp1646
g12
I00
S'\x11P\x0c\x83g\xe5\x82@'
p1647
tp1648
bag2
(g3
(I0
tp1649
g5
tp1650
Rp1651
(I1
(I1
tp1652
g12
I00
S'\x15DH\x0bp\xd8\x82@'
p1653
tp1654
bag2
(g3
(I0
tp1655
g5
tp1656
Rp1657
(I1
(I1
tp1658
g12
I00
S'\xb2\xdb<\x97F\xcb\x82@'
p1659
tp1660
bag2
(g3
(I0
tp1661
g5
tp1662
Rp1663
(I1
(I1
tp1664
g12
I00
S'\x86\x90\xfa\xd0\xf4\xbd\x82@'
p1665
tp1666
bag2
(g3
(I0
tp1667
g5
tp1668
Rp1669
(I1
(I1
tp1670
g12
I00
S'\x02\x16\x83\x91\xb2\xb1\x82@'
p1671
tp1672
bag2
(g3
(I0
tp1673
g5
tp1674
Rp1675
(I1
(I1
tp1676
g12
I00
S'&Yz\xb0a\xa6\x82@'
p1677
tp1678
bag2
(g3
(I0
tp1679
g5
tp1680
Rp1681
(I1
(I1
tp1682
g12
I00
S'\xd2\xc4\xa6\xba\x12\x9c\x82@'
p1683
tp1684
bag2
(g3
(I0
tp1685
g5
tp1686
Rp1687
(I1
(I1
tp1688
g12
I00
S'\x06,\xa0\x07\xc8\x92\x82@'
p1689
tp1690
bag2
(g3
(I0
tp1691
g5
tp1692
Rp1693
(I1
(I1
tp1694
g12
I00
S'\n\x98#X\x81\x8a\x82@'
p1695
tp1696
bag2
(g3
(I0
tp1697
g5
tp1698
Rp1699
(I1
(I1
tp1700
g12
I00
S'\t\xc8\x9c]C\x83\x82@'
p1701
tp1702
bag2
(g3
(I0
tp1703
g5
tp1704
Rp1705
(I1
(I1
tp1706
g12
I00
S'\\\xd1\xce\x12\x0bz\x82@'
p1707
tp1708
bag2
(g3
(I0
tp1709
g5
tp1710
Rp1711
(I1
(I1
tp1712
g12
I00
S'\x81\x91\xbcu+q\x82@'
p1713
tp1714
bag2
(g3
(I0
tp1715
g5
tp1716
Rp1717
(I1
(I1
tp1718
g12
I00
S'\x02\xe73{Lf\x82@'
p1719
tp1720
bag2
(g3
(I0
tp1721
g5
tp1722
Rp1723
(I1
(I1
tp1724
g12
I00
S'\xf0\x86(]\xca[\x82@'
p1725
tp1726
bag2
(g3
(I0
tp1727
g5
tp1728
Rp1729
(I1
(I1
tp1730
g12
I00
S'\xfa\xe8\xe0UEO\x82@'
p1731
tp1732
bag2
(g3
(I0
tp1733
g5
tp1734
Rp1735
(I1
(I1
tp1736
g12
I00
S',?R\xfd,C\x82@'
p1737
tp1738
bag2
(g3
(I0
tp1739
g5
tp1740
Rp1741
(I1
(I1
tp1742
g12
I00
S'5_i\x9e\x105\x82@'
p1743
tp1744
bag2
(g3
(I0
tp1745
g5
tp1746
Rp1747
(I1
(I1
tp1748
g12
I00
S'\x10\x1c\xaa`v%\x82@'
p1749
tp1750
bag2
(g3
(I0
tp1751
g5
tp1752
Rp1753
(I1
(I1
tp1754
g12
I00
S'\x02\xc5\xaf(\xc9\x16\x82@'
p1755
tp1756
bag2
(g3
(I0
tp1757
g5
tp1758
Rp1759
(I1
(I1
tp1760
g12
I00
S'\xa3B\xe3\xf4H\x07\x82@'
p1761
tp1762
bag2
(g3
(I0
tp1763
g5
tp1764
Rp1765
(I1
(I1
tp1766
g12
I00
S'\x0c\x8b\xaehT\xf7\x81@'
p1767
tp1768
bag2
(g3
(I0
tp1769
g5
tp1770
Rp1771
(I1
(I1
tp1772
g12
I00
S'by?\xd0\x02\xe9\x81@'
p1773
tp1774
bag2
(g3
(I0
tp1775
g5
tp1776
Rp1777
(I1
(I1
tp1778
g12
I00
S'\x7f\xfePN\x12\xda\x81@'
p1779
tp1780
bag2
(g3
(I0
tp1781
g5
tp1782
Rp1783
(I1
(I1
tp1784
g12
I00
S'\xd6\xd2\xb3=\xad\xca\x81@'
p1785
tp1786
bag2
(g3
(I0
tp1787
g5
tp1788
Rp1789
(I1
(I1
tp1790
g12
I00
S'\x9e\x12\xdbg\xef\xba\x81@'
p1791
tp1792
bag2
(g3
(I0
tp1793
g5
tp1794
Rp1795
(I1
(I1
tp1796
g12
I00
S'_1i\x9d\xe7\xaa\x81@'
p1797
tp1798
bag2
(g3
(I0
tp1799
g5
tp1800
Rp1801
(I1
(I1
tp1802
g12
I00
S'\xd9<\xef>\xbb\x9a\x81@'
p1803
tp1804
bag2
(g3
(I0
tp1805
g5
tp1806
Rp1807
(I1
(I1
tp1808
g12
I00
S'-\xb5\xc5\x93\x8c\x8a\x81@'
p1809
tp1810
bag2
(g3
(I0
tp1811
g5
tp1812
Rp1813
(I1
(I1
tp1814
g12
I00
S'9\xae?\x8faz\x81@'
p1815
tp1816
bag2
(g3
(I0
tp1817
g5
tp1818
Rp1819
(I1
(I1
tp1820
g12
I00
S';#\xc7\xb88j\x81@'
p1821
tp1822
bag2
(g3
(I0
tp1823
g5
tp1824
Rp1825
(I1
(I1
tp1826
g12
I00
S'\xefY\xdak\x0fZ\x81@'
p1827
tp1828
bag2
(g3
(I0
tp1829
g5
tp1830
Rp1831
(I1
(I1
tp1832
g12
I00
S'\xc5z\xb2g\xe3I\x81@'
p1833
tp1834
bag2
(g3
(I0
tp1835
g5
tp1836
Rp1837
(I1
(I1
tp1838
g12
I00
S'\xabBad\xb19\x81@'
p1839
tp1840
bag2
(g3
(I0
tp1841
g5
tp1842
Rp1843
(I1
(I1
tp1844
g12
I00
S'\x13\xe5*>\x82)\x81@'
p1845
tp1846
bag2
(g3
(I0
tp1847
g5
tp1848
Rp1849
(I1
(I1
tp1850
g12
I00
S'\x16Q\x9eP<\x19\x81@'
p1851
tp1852
bag2
(g3
(I0
tp1853
g5
tp1854
Rp1855
(I1
(I1
tp1856
g12
I00
S'\x12\x03Z\xe6\xe3\x08\x81@'
p1857
tp1858
bag2
(g3
(I0
tp1859
g5
tp1860
Rp1861
(I1
(I1
tp1862
g12
I00
S'2\x0bt\x82l\xf8\x80@'
p1863
tp1864
bag2
(g3
(I0
tp1865
g5
tp1866
Rp1867
(I1
(I1
tp1868
g12
I00
S'Q\xacS\xa0\xc9\xe7\x80@'
p1869
tp1870
bag2
(g3
(I0
tp1871
g5
tp1872
Rp1873
(I1
(I1
tp1874
g12
I00
S'\xf2\xb4!)\x12\xd7\x80@'
p1875
tp1876
bag2
(g3
(I0
tp1877
g5
tp1878
Rp1879
(I1
(I1
tp1880
g12
I00
S'\x06\x16\x9a\xc5O\xc6\x80@'
p1881
tp1882
bag2
(g3
(I0
tp1883
g5
tp1884
Rp1885
(I1
(I1
tp1886
g12
I00
S',\x9a\x85\x18\x8a\xb5\x80@'
p1887
tp1888
bag2
(g3
(I0
tp1889
g5
tp1890
Rp1891
(I1
(I1
tp1892
g12
I00
S'\x126\xc4\x15\xc3\xa4\x80@'
p1893
tp1894
bag2
(g3
(I0
tp1895
g5
tp1896
Rp1897
(I1
(I1
tp1898
g12
I00
S'\xeb\xb8\x06\xd0\xf9\x93\x80@'
p1899
tp1900
bag2
(g3
(I0
tp1901
g5
tp1902
Rp1903
(I1
(I1
tp1904
g12
I00
S'\xb8\xb0\xff\x0e)\x83\x80@'
p1905
tp1906
bag2
(g3
(I0
tp1907
g5
tp1908
Rp1909
(I1
(I1
tp1910
g12
I00
S'\xe4\xa7\xe5"nr\x80@'
p1911
tp1912
bag2
(g3
(I0
tp1913
g5
tp1914
Rp1915
(I1
(I1
tp1916
g12
I00
S'\x9e\x9c\x8f\xa5\xaaa\x80@'
p1917
tp1918
bag2
(g3
(I0
tp1919
g5
tp1920
Rp1921
(I1
(I1
tp1922
g12
I00
S'\\!?\x1d\xd9P\x80@'
p1923
tp1924
bag2
(g3
(I0
tp1925
g5
tp1926
Rp1927
(I1
(I1
tp1928
g12
I00
S'\xaa\x9f\xd2\x8a\xce?\x80@'
p1929
tp1930
bag2
(g3
(I0
tp1931
g5
tp1932
Rp1933
(I1
(I1
tp1934
g12
I00
S'b{;z\xab.\x80@'
p1935
tp1936
bag2
(g3
(I0
tp1937
g5
tp1938
Rp1939
(I1
(I1
tp1940
g12
I00
S'V\x04\x18\x98x\x1d\x80@'
p1941
tp1942
bag2
(g3
(I0
tp1943
g5
tp1944
Rp1945
(I1
(I1
tp1946
g12
I00
S';ys\xddC\x0c\x80@'
p1947
tp1948
bag2
(g3
(I0
tp1949
g5
tp1950
Rp1951
(I1
(I1
tp1952
g12
I00
S'\x10\xef\xd5I\x0c\xf6\x7f@'
p1953
tp1954
bag2
(g3
(I0
tp1955
g5
tp1956
Rp1957
(I1
(I1
tp1958
g12
I00
S'\xc2\x8d\x15S\xe1\xd3\x7f@'
p1959
tp1960
bag2
(g3
(I0
tp1961
g5
tp1962
Rp1963
(I1
(I1
tp1964
g12
I00
S'#G\x1eA\xc4\xb1\x7f@'
p1965
tp1966
bag2
(g3
(I0
tp1967
g5
tp1968
Rp1969
(I1
(I1
tp1970
g12
I00
S'\xab\xdf\x1e7\x9c\x8f\x7f@'
p1971
tp1972
bag2
(g3
(I0
tp1973
g5
tp1974
Rp1975
(I1
(I1
tp1976
g12
I00
S'O\xa4\xee\xe2\xdcl\x7f@'
p1977
tp1978
bag2
(g3
(I0
tp1979
g5
tp1980
Rp1981
(I1
(I1
tp1982
g12
I00
S'\xd3\xdd\xe4\x01\xd9I\x7f@'
p1983
tp1984
bag2
(g3
(I0
tp1985
g5
tp1986
Rp1987
(I1
(I1
tp1988
g12
I00
S'\xcfs\x89s\xad&\x7f@'
p1989
tp1990
bag2
(g3
(I0
tp1991
g5
tp1992
Rp1993
(I1
(I1
tp1994
g12
I00
S'<\t\xa6\xc1a\x03\x7f@'
p1995
tp1996
bag2
(g3
(I0
tp1997
g5
tp1998
Rp1999
(I1
(I1
tp2000
g12
I00
S'\xfa\x9b\\\x06\xae\xe0~@'
p2001
tp2002
bag2
(g3
(I0
tp2003
g5
tp2004
Rp2005
(I1
(I1
tp2006
g12
I00
S'\xc2\x8b\x83\x96&\xbe~@'
p2007
tp2008
bag2
(g3
(I0
tp2009
g5
tp2010
Rp2011
(I1
(I1
tp2012
g12
I00
S'\x1c\x0b\xe4\xaf\xda\x9b~@'
p2013
tp2014
bag2
(g3
(I0
tp2015
g5
tp2016
Rp2017
(I1
(I1
tp2018
g12
I00
S'\xf9\xa3\x0f\x9a\xafx~@'
p2019
tp2020
bag2
(g3
(I0
tp2021
g5
tp2022
Rp2023
(I1
(I1
tp2024
g12
I00
S'\x18\x0cS\xd5\x1cU~@'
p2025
tp2026
bag2
(g3
(I0
tp2027
g5
tp2028
Rp2029
(I1
(I1
tp2030
g12
I00
S'\t\x0e\xc7\x1aE1~@'
p2031
tp2032
bag2
(g3
(I0
tp2033
g5
tp2034
Rp2035
(I1
(I1
tp2036
g12
I00
S'o\x96u\x07\xe4\x0e~@'
p2037
tp2038
bag2
(g3
(I0
tp2039
g5
tp2040
Rp2041
(I1
(I1
tp2042
g12
I00
S'\xe9(E;\x13\xf3}@'
p2043
tp2044
bag2
(g3
(I0
tp2045
g5
tp2046
Rp2047
(I1
(I1
tp2048
g12
I00
S'\x0b0\xba:\x9f\xdd}@'
p2049
tp2050
bag2
(g3
(I0
tp2051
g5
tp2052
Rp2053
(I1
(I1
tp2054
g12
I00
S'\xb8\x95\xf9\x14\xe2\xc1}@'
p2055
tp2056
bag2
(g3
(I0
tp2057
g5
tp2058
Rp2059
(I1
(I1
tp2060
g12
I00
S'\x80\x18\xfd\x85<\xa1}@'
p2061
tp2062
bag2
(g3
(I0
tp2063
g5
tp2064
Rp2065
(I1
(I1
tp2066
g12
I00
S'\xfe\xe9eA#~}@'
p2067
tp2068
bag2
(g3
(I0
tp2069
g5
tp2070
Rp2071
(I1
(I1
tp2072
g12
I00
S'\x90\x08\xb4\xd3\x04Z}@'
p2073
tp2074
bag2
(g3
(I0
tp2075
g5
tp2076
Rp2077
(I1
(I1
tp2078
g12
I00
S'\r\xd4\x8d\x83R5}@'
p2079
tp2080
bag2
(g3
(I0
tp2081
g5
tp2082
Rp2083
(I1
(I1
tp2084
g12
I00
S'\x14\x92\xc8\x957\x10}@'
p2085
tp2086
bag2
(g3
(I0
tp2087
g5
tp2088
Rp2089
(I1
(I1
tp2090
g12
I00
S'\x18\x1d\x98E\xd1\xea|@'
p2091
tp2092
bag2
(g3
(I0
tp2093
g5
tp2094
Rp2095
(I1
(I1
tp2096
g12
I00
S'b\x1b\x13\xe7,\xc5|@'
p2097
tp2098
bag2
(g3
(I0
tp2099
g5
tp2100
Rp2101
(I1
(I1
tp2102
g12
I00
S'\xac\x85\xb1dM\x9f|@'
p2103
tp2104
bag2
(g3
(I0
tp2105
g5
tp2106
Rp2107
(I1
(I1
tp2108
g12
I00
S'p\xa5\x03\x816y|@'
p2109
tp2110
bag2
(g3
(I0
tp2111
g5
tp2112
Rp2113
(I1
(I1
tp2114
g12
I00
S'}\xe0+)\xebR|@'
p2115
tp2116
bag2
(g3
(I0
tp2117
g5
tp2118
Rp2119
(I1
(I1
tp2120
g12
I00
S'DMV\xb6l,|@'
p2121
tp2122
bag2
(g3
(I0
tp2123
g5
tp2124
Rp2125
(I1
(I1
tp2126
g12
I00
S'\xd5\x7fQ\xa5\xbc\x05|@'
p2127
tp2128
bag2
(g3
(I0
tp2129
g5
tp2130
Rp2131
(I1
(I1
tp2132
g12
I00
S'\x98\xf1\x8c\xb2\x86\xdf{@'
p2133
tp2134
bag2
(g3
(I0
tp2135
g5
tp2136
Rp2137
(I1
(I1
tp2138
g12
I00
S'\xf9TT\xb5e\xb9{@'
p2139
tp2140
bag2
(g3
(I0
tp2141
g5
tp2142
Rp2143
(I1
(I1
tp2144
g12
I00
S'\xc1\t\xf5\xb62\x93{@'
p2145
tp2146
bag2
(g3
(I0
tp2147
g5
tp2148
Rp2149
(I1
(I1
tp2150
g12
I00
S'\xe9(0\xe7\xdfl{@'
p2151
tp2152
bag2
(g3
(I0
tp2153
g5
tp2154
Rp2155
(I1
(I1
tp2156
g12
I00
S'\x08g\xcbLgF{@'
p2157
tp2158
bag2
(g3
(I0
tp2159
g5
tp2160
Rp2161
(I1
(I1
tp2162
g12
I00
S'\xde\x1e\x05-\xc4\x1c{@'
p2163
tp2164
bag2
(g3
(I0
tp2165
g5
tp2166
Rp2167
(I1
(I1
tp2168
g12
I00
S'4\x80\xa1t\xe8\xf3z@'
p2169
tp2170
bag2
(g3
(I0
tp2171
g5
tp2172
Rp2173
(I1
(I1
tp2174
g12
I00
S'+,e\x92\x19\xccz@'
p2175
tp2176
bag2
(g3
(I0
tp2177
g5
tp2178
Rp2179
(I1
(I1
tp2180
g12
I00
S'R\xd8\xf0\xe9\xc6\xa4z@'
p2181
tp2182
bag2
(g3
(I0
tp2183
g5
tp2184
Rp2185
(I1
(I1
tp2186
g12
I00
S'\x842w\xba\xbb~z@'
p2187
tp2188
bag2
(g3
(I0
tp2189
g5
tp2190
Rp2191
(I1
(I1
tp2192
g12
I00
S'\x8b\xd2\xc2\xd8\xf4Yz@'
p2193
tp2194
bag2
(g3
(I0
tp2195
g5
tp2196
Rp2197
(I1
(I1
tp2198
g12
I00
S'\xfc\x9a\xb9 \x1d8z@'
p2199
tp2200
bag2
(g3
(I0
tp2201
g5
tp2202
Rp2203
(I1
(I1
tp2204
g12
I00
S'\xde\x1349\r\x14z@'
p2205
tp2206
bag2
(g3
(I0
tp2207
g5
tp2208
Rp2209
(I1
(I1
tp2210
g12
I00
S'\xea\xca\xcf\x19\xdc\xf1y@'
p2211
tp2212
bag2
(g3
(I0
tp2213
g5
tp2214
Rp2215
(I1
(I1
tp2216
g12
I00
S"\x06n\xed\x9d'\xd2y@"
p2217
tp2218
bag2
(g3
(I0
tp2219
g5
tp2220
Rp2221
(I1
(I1
tp2222
g12
I00
S'D9\x92\xf9\xb6\xb8y@'
p2223
tp2224
bag2
(g3
(I0
tp2225
g5
tp2226
Rp2227
(I1
(I1
tp2228
g12
I00
S'\x16\x15\x18eF\xa0y@'
p2229
tp2230
bag2
(g3
(I0
tp2231
g5
tp2232
Rp2233
(I1
(I1
tp2234
g12
I00
S'>\xc8\xf6\xfd\\\x8dy@'
p2235
tp2236
baa(lp2237
g2
(g3
(I0
tp2238
g5
tp2239
Rp2240
(I1
(I1
tp2241
g12
I00
S'\x00\x00\x00\x00\x00\xf4u@'
p2242
tp2243
bag2
(g3
(I0
tp2244
g5
tp2245
Rp2246
(I1
(I1
tp2247
g12
I00
S'\x00\x00\x00\x00\x00\xf4u@'
p2248
tp2249
bag2
(g3
(I0
tp2250
g5
tp2251
Rp2252
(I1
(I1
tp2253
g12
I00
S'\x00\x00\x00\x00\x00\xf4u@'
p2254
tp2255
bag2
(g3
(I0
tp2256
g5
tp2257
Rp2258
(I1
(I1
tp2259
g12
I00
S'\xc1\xf7\xa7\xb5\xed\xedu@'
p2260
tp2261
bag2
(g3
(I0
tp2262
g5
tp2263
Rp2264
(I1
(I1
tp2265
g12
I00
S'\xc5\x0f\xb7:\xc7\xe1u@'
p2266
tp2267
bag2
(g3
(I0
tp2268
g5
tp2269
Rp2270
(I1
(I1
tp2271
g12
I00
S'\xac\xd0S?\xe1\xdau@'
p2272
tp2273
bag2
(g3
(I0
tp2274
g5
tp2275
Rp2276
(I1
(I1
tp2277
g12
I00
S'[3\x03\xa1r\xd9u@'
p2278
tp2279
bag2
(g3
(I0
tp2280
g5
tp2281
Rp2282
(I1
(I1
tp2283
g12
I00
S'\xb9\xd6\xb83\xb6\xddu@'
p2284
tp2285
bag2
(g3
(I0
tp2286
g5
tp2287
Rp2288
(I1
(I1
tp2289
g12
I00
S'\nz\xf8;\xad\xe7u@'
p2290
tp2291
bag2
(g3
(I0
tp2292
g5
tp2293
Rp2294
(I1
(I1
tp2295
g12
I00
S'\xa1\x11.\xf7\xa3\xf7u@'
p2296
tp2297
bag2
(g3
(I0
tp2298
g5
tp2299
Rp2300
(I1
(I1
tp2301
g12
I00
S'\x1bPh\xee\x93\rv@'
p2302
tp2303
bag2
(g3
(I0
tp2304
g5
tp2305
Rp2306
(I1
(I1
tp2307
g12
I00
S'\x8f\x1a\xc9\x9a`)v@'
p2308
tp2309
bag2
(g3
(I0
tp2310
g5
tp2311
Rp2312
(I1
(I1
tp2313
g12
I00
S',\xc4xA\xa9Gv@'
p2314
tp2315
bag2
(g3
(I0
tp2316
g5
tp2317
Rp2318
(I1
(I1
tp2319
g12
I00
S' \x9a\xb6\x1a\xd6dv@'
p2320
tp2321
bag2
(g3
(I0
tp2322
g5
tp2323
Rp2324
(I1
(I1
tp2325
g12
I00
S'P\xba\t\x83]\x7fv@'
p2326
tp2327
bag2
(g3
(I0
tp2328
g5
tp2329
Rp2330
(I1
(I1
tp2331
g12
I00
S';\xb9z\x9b\xc5\x95v@'
p2332
tp2333
bag2
(g3
(I0
tp2334
g5
tp2335
Rp2336
(I1
(I1
tp2337
g12
I00
S',\xcb\xf1/j\xa7v@'
p2338
tp2339
bag2
(g3
(I0
tp2340
g5
tp2341
Rp2342
(I1
(I1
tp2343
g12
I00
S'\xdd\xb5)\xcdj\xb4v@'
p2344
tp2345
bag2
(g3
(I0
tp2346
g5
tp2347
Rp2348
(I1
(I1
tp2349
g12
I00
S'\x96\xa0P\x9c\x8c\xbdv@'
p2350
tp2351
bag2
(g3
(I0
tp2352
g5
tp2353
Rp2354
(I1
(I1
tp2355
g12
I00
S'\x17\x99\xd6\xc0\xa8\xc2v@'
p2356
tp2357
bag2
(g3
(I0
tp2358
g5
tp2359
Rp2360
(I1
(I1
tp2361
g12
I00
S'\xaax\xfa#4\xc5v@'
p2362
tp2363
bag2
(g3
(I0
tp2364
g5
tp2365
Rp2366
(I1
(I1
tp2367
g12
I00
S'\x06\xdfY\xc9\xf2\xc5v@'
p2368
tp2369
bag2
(g3
(I0
tp2370
g5
tp2371
Rp2372
(I1
(I1
tp2373
g12
I00
S'\xe0d]\xae]\xc4v@'
p2374
tp2375
bag2
(g3
(I0
tp2376
g5
tp2377
Rp2378
(I1
(I1
tp2379
g12
I00
S'H\xbc\x9cG\xbc\xc1v@'
p2380
tp2381
bag2
(g3
(I0
tp2382
g5
tp2383
Rp2384
(I1
(I1
tp2385
g12
I00
S'\xdc\x13\x15\x9fP\xbdv@'
p2386
tp2387
bag2
(g3
(I0
tp2388
g5
tp2389
Rp2390
(I1
(I1
tp2391
g12
I00
S'\xaa^\x8dff\xb8v@'
p2392
tp2393
bag2
(g3
(I0
tp2394
g5
tp2395
Rp2396
(I1
(I1
tp2397
g12
I00
S'\xa7\xb0CU\n\xb3v@'
p2398
tp2399
bag2
(g3
(I0
tp2400
g5
tp2401
Rp2402
(I1
(I1
tp2403
g12
I00
S'\x0e\xbd\xb5p$\xacv@'
p2404
tp2405
bag2
(g3
(I0
tp2406
g5
tp2407
Rp2408
(I1
(I1
tp2409
g12
I00
S'\xc0\x13\x1d\\\x17\xa5v@'
p2410
tp2411
bag2
(g3
(I0
tp2412
g5
tp2413
Rp2414
(I1
(I1
tp2415
g12
I00
S'\xa4,b\xc8\xb0\x9cv@'
p2416
tp2417
bag2
(g3
(I0
tp2418
g5
tp2419
Rp2420
(I1
(I1
tp2421
g12
I00
S'\x18\xa8\xc9\xc8^\x94v@'
p2422
tp2423
bag2
(g3
(I0
tp2424
g5
tp2425
Rp2426
(I1
(I1
tp2427
g12
I00
S'\x80X\xd9I\xfe\x8bv@'
p2428
tp2429
bag2
(g3
(I0
tp2430
g5
tp2431
Rp2432
(I1
(I1
tp2433
g12
I00
S'7\n\x9c\xbdD\x82v@'
p2434
tp2435
bag2
(g3
(I0
tp2436
g5
tp2437
Rp2438
(I1
(I1
tp2439
g12
I00
S'\xe9\xae\x89\xc9\xb4xv@'
p2440
tp2441
bag2
(g3
(I0
tp2442
g5
tp2443
Rp2444
(I1
(I1
tp2445
g12
I00
S'\xda\x98\xba\x86\xf2mv@'
p2446
tp2447
bag2
(g3
(I0
tp2448
g5
tp2449
Rp2450
(I1
(I1
tp2451
g12
I00
S'P\t\x8f\xad\x82cv@'
p2452
tp2453
bag2
(g3
(I0
tp2454
g5
tp2455
Rp2456
(I1
(I1
tp2457
g12
I00
S'2u\xe1aWYv@'
p2458
tp2459
bag2
(g3
(I0
tp2460
g5
tp2461
Rp2462
(I1
(I1
tp2463
g12
I00
S'\xa8\xe2R\x0e\xe1Mv@'
p2464
tp2465
bag2
(g3
(I0
tp2466
g5
tp2467
Rp2468
(I1
(I1
tp2469
g12
I00
S'\xe6\x0f\x12\xc1\xd7Dv@'
p2470
tp2471
bag2
(g3
(I0
tp2472
g5
tp2473
Rp2474
(I1
(I1
tp2475
g12
I00
S'6\xdbB\xdf[<v@'
p2476
tp2477
bag2
(g3
(I0
tp2478
g5
tp2479
Rp2480
(I1
(I1
tp2481
g12
I00
S'\x83B\xb3/E6v@'
p2482
tp2483
bag2
(g3
(I0
tp2484
g5
tp2485
Rp2486
(I1
(I1
tp2487
g12
I00
S'\x1b\x0cC\x00\x9e0v@'
p2488
tp2489
bag2
(g3
(I0
tp2490
g5
tp2491
Rp2492
(I1
(I1
tp2493
g12
I00
S'\xc5\xffS!`+v@'
p2494
tp2495
bag2
(g3
(I0
tp2496
g5
tp2497
Rp2498
(I1
(I1
tp2499
g12
I00
S'\xa4M\x10\x1bX(v@'
p2500
tp2501
bag2
(g3
(I0
tp2502
g5
tp2503
Rp2504
(I1
(I1
tp2505
g12
I00
S'\x7f\xc6Vj\x9c%v@'
p2506
tp2507
bag2
(g3
(I0
tp2508
g5
tp2509
Rp2510
(I1
(I1
tp2511
g12
I00
S'\xc8b\xe9*\xec$v@'
p2512
tp2513
bag2
(g3
(I0
tp2514
g5
tp2515
Rp2516
(I1
(I1
tp2517
g12
I00
S'\xf8\xc2\xfb\x9dj$v@'
p2518
tp2519
bag2
(g3
(I0
tp2520
g5
tp2521
Rp2522
(I1
(I1
tp2523
g12
I00
S'\\np\xaa\x1c$v@'
p2524
tp2525
bag2
(g3
(I0
tp2526
g5
tp2527
Rp2528
(I1
(I1
tp2529
g12
I00
S'\xe2rB\x8c\x0b$v@'
p2530
tp2531
bag2
(g3
(I0
tp2532
g5
tp2533
Rp2534
(I1
(I1
tp2535
g12
I00
S'\xad\xa2 \x17\xcc"v@'
p2536
tp2537
bag2
(g3
(I0
tp2538
g5
tp2539
Rp2540
(I1
(I1
tp2541
g12
I00
S'\xf5a\xd0\x85_ v@'
p2542
tp2543
bag2
(g3
(I0
tp2544
g5
tp2545
Rp2546
(I1
(I1
tp2547
g12
I00
S'N\x0fI2@!v@'
p2548
tp2549
bag2
(g3
(I0
tp2550
g5
tp2551
Rp2552
(I1
(I1
tp2553
g12
I00
S'&Fjo\xac"v@'
p2554
tp2555
bag2
(g3
(I0
tp2556
g5
tp2557
Rp2558
(I1
(I1
tp2559
g12
I00
S'h\xfe{\xc0\xab$v@'
p2560
tp2561
bag2
(g3
(I0
tp2562
g5
tp2563
Rp2564
(I1
(I1
tp2565
g12
I00
S"\x02\xe6\r\xaaI'v@"
p2566
tp2567
bag2
(g3
(I0
tp2568
g5
tp2569
Rp2570
(I1
(I1
tp2571
g12
I00
S'\xecZ\x18\xd5\xf7,v@'
p2572
tp2573
bag2
(g3
(I0
tp2574
g5
tp2575
Rp2576
(I1
(I1
tp2577
g12
I00
S'/\x90\xf7<H3v@'
p2578
tp2579
bag2
(g3
(I0
tp2580
g5
tp2581
Rp2582
(I1
(I1
tp2583
g12
I00
S'\x89#\x1d\x9eu<v@'
p2584
tp2585
bag2
(g3
(I0
tp2586
g5
tp2587
Rp2588
(I1
(I1
tp2589
g12
I00
S'\x10\x17Y\xd0GHv@'
p2590
tp2591
bag2
(g3
(I0
tp2592
g5
tp2593
Rp2594
(I1
(I1
tp2595
g12
I00
S'\x16\xfd\xb3\xe1\xacTv@'
p2596
tp2597
bag2
(g3
(I0
tp2598
g5
tp2599
Rp2600
(I1
(I1
tp2601
g12
I00
S'c\xdfa\n&cv@'
p2602
tp2603
bag2
(g3
(I0
tp2604
g5
tp2605
Rp2606
(I1
(I1
tp2607
g12
I00
S'\x1fF\xd9\x9f\x07sv@'
p2608
tp2609
bag2
(g3
(I0
tp2610
g5
tp2611
Rp2612
(I1
(I1
tp2613
g12
I00
S'\x0bo>p\xfe\x83v@'
p2614
tp2615
bag2
(g3
(I0
tp2616
g5
tp2617
Rp2618
(I1
(I1
tp2619
g12
I00
S'&[\xcao\xd2\x95v@'
p2620
tp2621
bag2
(g3
(I0
tp2622
g5
tp2623
Rp2624
(I1
(I1
tp2625
g12
I00
S'\xa6:C\xfa\xa9\xa7v@'
p2626
tp2627
bag2
(g3
(I0
tp2628
g5
tp2629
Rp2630
(I1
(I1
tp2631
g12
I00
S'\xfc\xd0=r\x0b\xb9v@'
p2632
tp2633
bag2
(g3
(I0
tp2634
g5
tp2635
Rp2636
(I1
(I1
tp2637
g12
I00
S'\xa9Y\xd2v\xd0\xc9v@'
p2638
tp2639
bag2
(g3
(I0
tp2640
g5
tp2641
Rp2642
(I1
(I1
tp2643
g12
I00
S"'\xb3\x87\xd5\xeb\xd9v@"
p2644
tp2645
bag2
(g3
(I0
tp2646
g5
tp2647
Rp2648
(I1
(I1
tp2649
g12
I00
S'PY*\x80Y\xe9v@'
p2650
tp2651
bag2
(g3
(I0
tp2652
g5
tp2653
Rp2654
(I1
(I1
tp2655
g12
I00
S'\x94\xe5\x04\x98\x13\xf8v@'
p2656
tp2657
bag2
(g3
(I0
tp2658
g5
tp2659
Rp2660
(I1
(I1
tp2661
g12
I00
S'\xff\xdf\xfa\x0c\x18\x06w@'
p2662
tp2663
bag2
(g3
(I0
tp2664
g5
tp2665
Rp2666
(I1
(I1
tp2667
g12
I00
S'\xaa,\x99\x9ba\x13w@'
p2668
tp2669
bag2
(g3
(I0
tp2670
g5
tp2671
Rp2672
(I1
(I1
tp2673
g12
I00
S"\x98#\xca4' w@"
p2674
tp2675
bag2
(g3
(I0
tp2676
g5
tp2677
Rp2678
(I1
(I1
tp2679
g12
I00
S'sU\xf1\xfc\xa4,w@'
p2680
tp2681
bag2
(g3
(I0
tp2682
g5
tp2683
Rp2684
(I1
(I1
tp2685
g12
I00
S'=\x10\xd9\r\xf98w@'
p2686
tp2687
bag2
(g3
(I0
tp2688
g5
tp2689
Rp2690
(I1
(I1
tp2691
g12
I00
S'\x00\xf5\xd2\x7f\xeeDw@'
p2692
tp2693
bag2
(g3
(I0
tp2694
g5
tp2695
Rp2696
(I1
(I1
tp2697
g12
I00
S'^\x01\xd7A\x80Pw@'
p2698
tp2699
bag2
(g3
(I0
tp2700
g5
tp2701
Rp2702
(I1
(I1
tp2703
g12
I00
S'\x0eLc\x8c\x04Yw@'
p2704
tp2705
bag2
(g3
(I0
tp2706
g5
tp2707
Rp2708
(I1
(I1
tp2709
g12
I00
S'\xe38S\xbc\xaa^w@'
p2710
tp2711
bag2
(g3
(I0
tp2712
g5
tp2713
Rp2714
(I1
(I1
tp2715
g12
I00
S'\xba2#\xfd\xa8aw@'
p2716
tp2717
bag2
(g3
(I0
tp2718
g5
tp2719
Rp2720
(I1
(I1
tp2721
g12
I00
S'\x0c\xfb\x94\xea4bw@'
p2722
tp2723
bag2
(g3
(I0
tp2724
g5
tp2725
Rp2726
(I1
(I1
tp2727
g12
I00
S'z\xc0O\xad}`w@'
p2728
tp2729
bag2
(g3
(I0
tp2730
g5
tp2731
Rp2732
(I1
(I1
tp2733
g12
I00
S'\xd4j\xe6\xa3\xab\\w@'
p2734
tp2735
bag2
(g3
(I0
tp2736
g5
tp2737
Rp2738
(I1
(I1
tp2739
g12
I00
S'g\x07\xd0v\xd5Xw@'
p2740
tp2741
bag2
(g3
(I0
tp2742
g5
tp2743
Rp2744
(I1
(I1
tp2745
g12
I00
S'&\xea\xcd\xa0\xf4Tw@'
p2746
tp2747
bag2
(g3
(I0
tp2748
g5
tp2749
Rp2750
(I1
(I1
tp2751
g12
I00
S'L\xa7\x15\x879Qw@'
p2752
tp2753
bag2
(g3
(I0
tp2754
g5
tp2755
Rp2756
(I1
(I1
tp2757
g12
I00
S'6\xc65SbMw@'
p2758
tp2759
bag2
(g3
(I0
tp2760
g5
tp2761
Rp2762
(I1
(I1
tp2763
g12
I00
S'\x167\x1c\x90hKw@'
p2764
tp2765
bag2
(g3
(I0
tp2766
g5
tp2767
Rp2768
(I1
(I1
tp2769
g12
I00
S'\xb2\xd0M\x80SKw@'
p2770
tp2771
bag2
(g3
(I0
tp2772
g5
tp2773
Rp2774
(I1
(I1
tp2775
g12
I00
S'\x10ILB\nKw@'
p2776
tp2777
bag2
(g3
(I0
tp2778
g5
tp2779
Rp2780
(I1
(I1
tp2781
g12
I00
S'\xaa\xb2\xef\xdbTMw@'
p2782
tp2783
bag2
(g3
(I0
tp2784
g5
tp2785
Rp2786
(I1
(I1
tp2787
g12
I00
S'4e#\xe4tOw@'
p2788
tp2789
bag2
(g3
(I0
tp2790
g5
tp2791
Rp2792
(I1
(I1
tp2793
g12
I00
S'\xf9\x1d\x04\xbcRTw@'
p2794
tp2795
bag2
(g3
(I0
tp2796
g5
tp2797
Rp2798
(I1
(I1
tp2799
g12
I00
S'\nxN\xcf\xf4Xw@'
p2800
tp2801
bag2
(g3
(I0
tp2802
g5
tp2803
Rp2804
(I1
(I1
tp2805
g12
I00
S'.\x8dh`E]w@'
p2806
tp2807
bag2
(g3
(I0
tp2808
g5
tp2809
Rp2810
(I1
(I1
tp2811
g12
I00
S'\x86\xe6\xe3\xfd5aw@'
p2812
tp2813
bag2
(g3
(I0
tp2814
g5
tp2815
Rp2816
(I1
(I1
tp2817
g12
I00
S'khm\xb5\x96dw@'
p2818
tp2819
bag2
(g3
(I0
tp2820
g5
tp2821
Rp2822
(I1
(I1
tp2823
g12
I00
S'F\x0c\x11\x8fUgw@'
p2824
tp2825
bag2
(g3
(I0
tp2826
g5
tp2827
Rp2828
(I1
(I1
tp2829
g12
I00
S'2\x9a\xe8\xa6\xaeiw@'
p2830
tp2831
bag2
(g3
(I0
tp2832
g5
tp2833
Rp2834
(I1
(I1
tp2835
g12
I00
S'F\xc1nL\xc2kw@'
p2836
tp2837
bag2
(g3
(I0
tp2838
g5
tp2839
Rp2840
(I1
(I1
tp2841
g12
I00
S'\x8b\xef\xe3\xf0\xf9lw@'
p2842
tp2843
bag2
(g3
(I0
tp2844
g5
tp2845
Rp2846
(I1
(I1
tp2847
g12
I00
S'\x0f\x14&zimw@'
p2848
tp2849
bag2
(g3
(I0
tp2850
g5
tp2851
Rp2852
(I1
(I1
tp2853
g12
I00
S'\x88\x13+\xe9Lmw@'
p2854
tp2855
bag2
(g3
(I0
tp2856
g5
tp2857
Rp2858
(I1
(I1
tp2859
g12
I00
S'\xb7\xf1\x9b\xb4\xc7lw@'
p2860
tp2861
bag2
(g3
(I0
tp2862
g5
tp2863
Rp2864
(I1
(I1
tp2865
g12
I00
S'\xdc\xb0\xefN\xeekw@'
p2866
tp2867
bag2
(g3
(I0
tp2868
g5
tp2869
Rp2870
(I1
(I1
tp2871
g12
I00
S'\xfb\xbb\x8b\xc0\xcajw@'
p2872
tp2873
bag2
(g3
(I0
tp2874
g5
tp2875
Rp2876
(I1
(I1
tp2877
g12
I00
S'E2\x06\xf2`iw@'
p2878
tp2879
bag2
(g3
(I0
tp2880
g5
tp2881
Rp2882
(I1
(I1
tp2883
g12
I00
S'\xca\xab1\x9d\xaegw@'
p2884
tp2885
bag2
(g3
(I0
tp2886
g5
tp2887
Rp2888
(I1
(I1
tp2889
g12
I00
S'\x9d\xe0\x13\x8a\x91ew@'
p2890
tp2891
bag2
(g3
(I0
tp2892
g5
tp2893
Rp2894
(I1
(I1
tp2895
g12
I00
S'\xeb\x12}\x9f\x1acw@'
p2896
tp2897
bag2
(g3
(I0
tp2898
g5
tp2899
Rp2900
(I1
(I1
tp2901
g12
I00
S':\x95\x93\xefK`w@'
p2902
tp2903
bag2
(g3
(I0
tp2904
g5
tp2905
Rp2906
(I1
(I1
tp2907
g12
I00
S'Je\n=&]w@'
p2908
tp2909
bag2
(g3
(I0
tp2910
g5
tp2911
Rp2912
(I1
(I1
tp2913
g12
I00
S'd\x0f\x08\xa72]w@'
p2914
tp2915
bag2
(g3
(I0
tp2916
g5
tp2917
Rp2918
(I1
(I1
tp2919
g12
I00
S'f\x83ju%\\w@'
p2920
tp2921
bag2
(g3
(I0
tp2922
g5
tp2923
Rp2924
(I1
(I1
tp2925
g12
I00
S'M(\x80\xe3cZw@'
p2926
tp2927
bag2
(g3
(I0
tp2928
g5
tp2929
Rp2930
(I1
(I1
tp2931
g12
I00
S'\xb2\xb7"\xc9\x1fXw@'
p2932
tp2933
bag2
(g3
(I0
tp2934
g5
tp2935
Rp2936
(I1
(I1
tp2937
g12
I00
S'9b\xe3\xd6eUw@'
p2938
tp2939
bag2
(g3
(I0
tp2940
g5
tp2941
Rp2942
(I1
(I1
tp2943
g12
I00
S'F\x15\nX=Rw@'
p2944
tp2945
bag2
(g3
(I0
tp2946
g5
tp2947
Rp2948
(I1
(I1
tp2949
g12
I00
S'@\x87Pf\x8aNw@'
p2950
tp2951
bag2
(g3
(I0
tp2952
g5
tp2953
Rp2954
(I1
(I1
tp2955
g12
I00
S'\xa9\x1d\x0e\x95\xfdIw@'
p2956
tp2957
bag2
(g3
(I0
tp2958
g5
tp2959
Rp2960
(I1
(I1
tp2961
g12
I00
S'~\x0f@b\xdeDw@'
p2962
tp2963
bag2
(g3
(I0
tp2964
g5
tp2965
Rp2966
(I1
(I1
tp2967
g12
I00
S'3\xbb\xdb-a?w@'
p2968
tp2969
bag2
(g3
(I0
tp2970
g5
tp2971
Rp2972
(I1
(I1
tp2973
g12
I00
S'\x1c\x89~+\x989w@'
p2974
tp2975
bag2
(g3
(I0
tp2976
g5
tp2977
Rp2978
(I1
(I1
tp2979
g12
I00
S']z\xaa\xdbo7w@'
p2980
tp2981
bag2
(g3
(I0
tp2982
g5
tp2983
Rp2984
(I1
(I1
tp2985
g12
I00
S'\x884\xbc\xd6\xe13w@'
p2986
tp2987
bag2
(g3
(I0
tp2988
g5
tp2989
Rp2990
(I1
(I1
tp2991
g12
I00
S'\x00I\xcd\xd6\x8a/w@'
p2992
tp2993
bag2
(g3
(I0
tp2994
g5
tp2995
Rp2996
(I1
(I1
tp2997
g12
I00
S'\xea\xad;=\xac.w@'
p2998
tp2999
bag2
(g3
(I0
tp3000
g5
tp3001
Rp3002
(I1
(I1
tp3003
g12
I00
S'\xea(\x86U\x121w@'
p3004
tp3005
bag2
(g3
(I0
tp3006
g5
tp3007
Rp3008
(I1
(I1
tp3009
g12
I00
S'4z\x14\xf7\xdf6w@'
p3010
tp3011
bag2
(g3
(I0
tp3012
g5
tp3013
Rp3014
(I1
(I1
tp3015
g12
I00
S'"\x1e\x13\x1e&@w@'
p3016
tp3017
bag2
(g3
(I0
tp3018
g5
tp3019
Rp3020
(I1
(I1
tp3021
g12
I00
S'Tj@h\xedLw@'
p3022
tp3023
bag2
(g3
(I0
tp3024
g5
tp3025
Rp3026
(I1
(I1
tp3027
g12
I00
S'\x17\xaf\x0c\x1c?]w@'
p3028
tp3029
bag2
(g3
(I0
tp3030
g5
tp3031
Rp3032
(I1
(I1
tp3033
g12
I00
S'\xbd\x1b\x18\xff\xc9kw@'
p3034
tp3035
bag2
(g3
(I0
tp3036
g5
tp3037
Rp3038
(I1
(I1
tp3039
g12
I00
S'W\xf6\x13\n2xw@'
p3040
tp3041
bag2
(g3
(I0
tp3042
g5
tp3043
Rp3044
(I1
(I1
tp3045
g12
I00
S'o\xd27Lu\x88w@'
p3046
tp3047
bag2
(g3
(I0
tp3048
g5
tp3049
Rp3050
(I1
(I1
tp3051
g12
I00
S']\xc9<\xe4\x8a\x96w@'
p3052
tp3053
bag2
(g3
(I0
tp3054
g5
tp3055
Rp3056
(I1
(I1
tp3057
g12
I00
S'\x15\x19w\xc6\x8c\xa8w@'
p3058
tp3059
bag2
(g3
(I0
tp3060
g5
tp3061
Rp3062
(I1
(I1
tp3063
g12
I00
S'\xe3\xef\xa4\x86R\xb8w@'
p3064
tp3065
bag2
(g3
(I0
tp3066
g5
tp3067
Rp3068
(I1
(I1
tp3069
g12
I00
S'Z\x93\xf1x\xbf\xcbw@'
p3070
tp3071
bag2
(g3
(I0
tp3072
g5
tp3073
Rp3074
(I1
(I1
tp3075
g12
I00
S'\xe1\xcb\xf1E;\xe3w@'
p3076
tp3077
bag2
(g3
(I0
tp3078
g5
tp3079
Rp3080
(I1
(I1
tp3081
g12
I00
S'tfP\x0f_\xf8w@'
p3082
tp3083
bag2
(g3
(I0
tp3084
g5
tp3085
Rp3086
(I1
(I1
tp3087
g12
I00
S'\xeaW\xd8\xf6[\x0bx@'
p3088
tp3089
bag2
(g3
(I0
tp3090
g5
tp3091
Rp3092
(I1
(I1
tp3093
g12
I00
S'k\x87\xf5\xda\x99\x1bx@'
p3094
tp3095
bag2
(g3
(I0
tp3096
g5
tp3097
Rp3098
(I1
(I1
tp3099
g12
I00
S'p\xb7g{/)x@'
p3100
tp3101
bag2
(g3
(I0
tp3102
g5
tp3103
Rp3104
(I1
(I1
tp3105
g12
I00
S's@quj:x@'
p3106
tp3107
bag2
(g3
(I0
tp3108
g5
tp3109
Rp3110
(I1
(I1
tp3111
g12
I00
S'/\x16\xc9\xcc\x16Ox@'
p3112
tp3113
bag2
(g3
(I0
tp3114
g5
tp3115
Rp3116
(I1
(I1
tp3117
g12
I00
S'\n\xafa\xdd\xbd`x@'
p3118
tp3119
bag2
(g3
(I0
tp3120
g5
tp3121
Rp3122
(I1
(I1
tp3123
g12
I00
S'\x8d\xdb-\xcavox@'
p3124
tp3125
bag2
(g3
(I0
tp3126
g5
tp3127
Rp3128
(I1
(I1
tp3129
g12
I00
S'ro\xb2nL{x@'
p3130
tp3131
bag2
(g3
(I0
tp3132
g5
tp3133
Rp3134
(I1
(I1
tp3135
g12
I00
S'3N(\x88}\x84x@'
p3136
tp3137
bag2
(g3
(I0
tp3138
g5
tp3139
Rp3140
(I1
(I1
tp3141
g12
I00
S'\xee\x8a5\xaf)\x8bx@'
p3142
tp3143
bag2
(g3
(I0
tp3144
g5
tp3145
Rp3146
(I1
(I1
tp3147
g12
I00
S'v=\xf28\x8c\x8fx@'
p3148
tp3149
bag2
(g3
(I0
tp3150
g5
tp3151
Rp3152
(I1
(I1
tp3153
g12
I00
S'\xc6t\xa0\xaa\x88\x91x@'
p3154
tp3155
bag2
(g3
(I0
tp3156
g5
tp3157
Rp3158
(I1
(I1
tp3159
g12
I00
S'\xf1Bcd\xa1\x91x@'
p3160
tp3161
bag2
(g3
(I0
tp3162
g5
tp3163
Rp3164
(I1
(I1
tp3165
g12
I00
S'"(\xbc!1\x90x@'
p3166
tp3167
bag2
(g3
(I0
tp3168
g5
tp3169
Rp3170
(I1
(I1
tp3171
g12
I00
S'M\x1cj\x18&\x93x@'
p3172
tp3173
bag2
(g3
(I0
tp3174
g5
tp3175
Rp3176
(I1
(I1
tp3177
g12
I00
S'\x1fw\xd0\xa2^\x9ax@'
p3178
tp3179
bag2
(g3
(I0
tp3180
g5
tp3181
Rp3182
(I1
(I1
tp3183
g12
I00
S'\xb4\xf4\xc7\x88\xd2\x9ex@'
p3184
tp3185
bag2
(g3
(I0
tp3186
g5
tp3187
Rp3188
(I1
(I1
tp3189
g12
I00
S'\xe8)\xf4\x15\xd5\xa0x@'
p3190
tp3191
bag2
(g3
(I0
tp3192
g5
tp3193
Rp3194
(I1
(I1
tp3195
g12
I00
S'\x9fi\x8f\xf1u\xa7x@'
p3196
tp3197
bag2
(g3
(I0
tp3198
g5
tp3199
Rp3200
(I1
(I1
tp3201
g12
I00
S'\xd7\x99\xee\xe8@\xabx@'
p3202
tp3203
bag2
(g3
(I0
tp3204
g5
tp3205
Rp3206
(I1
(I1
tp3207
g12
I00
S'\x9f\xd5;JS\xb3x@'
p3208
tp3209
bag2
(g3
(I0
tp3210
g5
tp3211
Rp3212
(I1
(I1
tp3213
g12
I00
S'\x12LDj\x98\xbfx@'
p3214
tp3215
bag2
(g3
(I0
tp3216
g5
tp3217
Rp3218
(I1
(I1
tp3219
g12
I00
S'\x80\x01\x95k-\xd0x@'
p3220
tp3221
bag2
(g3
(I0
tp3222
g5
tp3223
Rp3224
(I1
(I1
tp3225
g12
I00
S'\xe2\x8d8\x1d1\xddx@'
p3226
tp3227
bag2
(g3
(I0
tp3228
g5
tp3229
Rp3230
(I1
(I1
tp3231
g12
I00
S'\x94\xc7\x82\xc1E\xeex@'
p3232
tp3233
bag2
(g3
(I0
tp3234
g5
tp3235
Rp3236
(I1
(I1
tp3237
g12
I00
S'\xf4\x10\xbe@\xbb\xfbx@'
p3238
tp3239
bag2
(g3
(I0
tp3240
g5
tp3241
Rp3242
(I1
(I1
tp3243
g12
I00
S'4{{\xac\x87\x05y@'
p3244
tp3245
bag2
(g3
(I0
tp3246
g5
tp3247
Rp3248
(I1
(I1
tp3249
g12
I00
S'\x91\xaa\xfd\xb4\xa8\x13y@'
p3250
tp3251
bag2
(g3
(I0
tp3252
g5
tp3253
Rp3254
(I1
(I1
tp3255
g12
I00
S'\x10\xf5\x88\x03M\x1ey@'
p3256
tp3257
bag2
(g3
(I0
tp3258
g5
tp3259
Rp3260
(I1
(I1
tp3261
g12
I00
S'\xe3\x02\xe3|j%y@'
p3262
tp3263
bag2
(g3
(I0
tp3264
g5
tp3265
Rp3266
(I1
(I1
tp3267
g12
I00
S'\x04\x94\xdc~\n1y@'
p3268
tp3269
bag2
(g3
(I0
tp3270
g5
tp3271
Rp3272
(I1
(I1
tp3273
g12
I00
S'\xb5\x95P\x99\xe58y@'
p3274
tp3275
bag2
(g3
(I0
tp3276
g5
tp3277
Rp3278
(I1
(I1
tp3279
g12
I00
S'phl?REy@'
p3280
tp3281
bag2
(g3
(I0
tp3282
g5
tp3283
Rp3284
(I1
(I1
tp3285
g12
I00
S'\xfe\x1e\xd5}\xd1My@'
p3286
tp3287
bag2
(g3
(I0
tp3288
g5
tp3289
Rp3290
(I1
(I1
tp3291
g12
I00
S'\xbe\xf8\xff\x86\xeaZy@'
p3292
tp3293
bag2
(g3
(I0
tp3294
g5
tp3295
Rp3296
(I1
(I1
tp3297
g12
I00
S'\x86s$\xa0\rdy@'
p3298
tp3299
bag2
(g3
(I0
tp3300
g5
tp3301
Rp3302
(I1
(I1
tp3303
g12
I00
S'\xf7q\x80TYqy@'
p3304
tp3305
bag2
(g3
(I0
tp3306
g5
tp3307
Rp3308
(I1
(I1
tp3309
g12
I00
S'\x05\xc6\xb9~\xfczy@'
p3310
tp3311
bag2
(g3
(I0
tp3312
g5
tp3313
Rp3314
(I1
(I1
tp3315
g12
I00
S'(\x8f4w\xab\x80y@'
p3316
tp3317
bag2
(g3
(I0
tp3318
g5
tp3319
Rp3320
(I1
(I1
tp3321
g12
I00
S'\x00\xa8P\xba\x19\x8by@'
p3322
tp3323
bag2
(g3
(I0
tp3324
g5
tp3325
Rp3326
(I1
(I1
tp3327
g12
I00
S'}\xda$\xafj\x91y@'
p3328
tp3329
bag2
(g3
(I0
tp3330
g5
tp3331
Rp3332
(I1
(I1
tp3333
g12
I00
S'\xeb\x82\x1d\xfc|\x9cy@'
p3334
tp3335
bag2
(g3
(I0
tp3336
g5
tp3337
Rp3338
(I1
(I1
tp3339
g12
I00
S'\xc0\x01\xf0\x0bZ\xa3y@'
p3340
tp3341
bag2
(g3
(I0
tp3342
g5
tp3343
Rp3344
(I1
(I1
tp3345
g12
I00
S'87\xad"\xef\xaey@'
p3346
tp3347
bag2
(g3
(I0
tp3348
g5
tp3349
Rp3350
(I1
(I1
tp3351
g12
I00
S'Z\xeb\xb6YO\xb6y@'
p3352
tp3353
bag2
(g3
(I0
tp3354
g5
tp3355
Rp3356
(I1
(I1
tp3357
g12
I00
S'\xdbP\x93\x14T\xc2y@'
p3358
tp3359
bag2
(g3
(I0
tp3360
g5
tp3361
Rp3362
(I1
(I1
tp3363
g12
I00
S'\x10\xf1|f$\xcay@'
p3364
tp3365
bag2
(g3
(I0
tp3366
g5
tp3367
Rp3368
(I1
(I1
tp3369
g12
I00
S'\x81\xdd\x0bq+\xcey@'
p3370
tp3371
bag2
(g3
(I0
tp3372
g5
tp3373
Rp3374
(I1
(I1
tp3375
g12
I00
S'\xdcw\xe5S\xd2\xcey@'
p3376
tp3377
bag2
(g3
(I0
tp3378
g5
tp3379
Rp3380
(I1
(I1
tp3381
g12
I00
S'\x0c\xa5\xd8\x10U\xccy@'
p3382
tp3383
bag2
(g3
(I0
tp3384
g5
tp3385
Rp3386
(I1
(I1
tp3387
g12
I00
S'\x86s\xeb\xa6\x9b\xc6y@'
p3388
tp3389
bag2
(g3
(I0
tp3390
g5
tp3391
Rp3392
(I1
(I1
tp3393
g12
I00
S'\xd2\x85w\xd6\xd6\xc5y@'
p3394
tp3395
bag2
(g3
(I0
tp3396
g5
tp3397
Rp3398
(I1
(I1
tp3399
g12
I00
S'*\xd7i\xd1\xa2\xc9y@'
p3400
tp3401
bag2
(g3
(I0
tp3402
g5
tp3403
Rp3404
(I1
(I1
tp3405
g12
I00
S',[/\x07\xc6\xd1y@'
p3406
tp3407
bag2
(g3
(I0
tp3408
g5
tp3409
Rp3410
(I1
(I1
tp3411
g12
I00
S'\xb0\xcc\x05\x17H\xd5y@'
p3412
tp3413
bag2
(g3
(I0
tp3414
g5
tp3415
Rp3416
(I1
(I1
tp3417
g12
I00
S')\xd0\xfe\xe2\xbc\xdcy@'
p3418
tp3419
bag2
(g3
(I0
tp3420
g5
tp3421
Rp3422
(I1
(I1
tp3423
g12
I00
S'V\xb7\xcb\xed\xea\xe7y@'
p3424
tp3425
bag2
(g3
(I0
tp3426
g5
tp3427
Rp3428
(I1
(I1
tp3429
g12
I00
S'\xe7\xf4NK\\\xf6y@'
p3430
tp3431
bag2
(g3
(I0
tp3432
g5
tp3433
Rp3434
(I1
(I1
tp3435
g12
I00
S'1Y\x91H\xba\x07z@'
p3436
tp3437
bag2
(g3
(I0
tp3438
g5
tp3439
Rp3440
(I1
(I1
tp3441
g12
I00
S'%\x9f\x9b\x1f\xa6\x1bz@'
p3442
tp3443
bag2
(g3
(I0
tp3444
g5
tp3445
Rp3446
(I1
(I1
tp3447
g12
I00
S'\xab0QW\xc11z@'
p3448
tp3449
bag2
(g3
(I0
tp3450
g5
tp3451
Rp3452
(I1
(I1
tp3453
g12
I00
S'\x0b\xfd\xfd\xce\x92Iz@'
p3454
tp3455
bag2
(g3
(I0
tp3456
g5
tp3457
Rp3458
(I1
(I1
tp3459
g12
I00
S'YX\xe3v\x07dz@'
p3460
tp3461
bag2
(g3
(I0
tp3462
g5
tp3463
Rp3464
(I1
(I1
tp3465
g12
I00
S'\x04\x04\x1e\xb1\xacxz@'
p3466
tp3467
bag2
(g3
(I0
tp3468
g5
tp3469
Rp3470
(I1
(I1
tp3471
g12
I00
S'\xed`U\xbc\xa8\x91z@'
p3472
tp3473
bag2
(g3
(I0
tp3474
g5
tp3475
Rp3476
(I1
(I1
tp3477
g12
I00
S'\xaf\x98Lj\xa3\xa6z@'
p3478
tp3479
bag2
(g3
(I0
tp3480
g5
tp3481
Rp3482
(I1
(I1
tp3483
g12
I00
S'\xff-j\xa4\x8a\xb7z@'
p3484
tp3485
bag2
(g3
(I0
tp3486
g5
tp3487
Rp3488
(I1
(I1
tp3489
g12
I00
S'\x95{\xe0\x1e`\xc4z@'
p3490
tp3491
bag2
(g3
(I0
tp3492
g5
tp3493
Rp3494
(I1
(I1
tp3495
g12
I00
S'\xd6R\xa0\x80\x1e\xcdz@'
p3496
tp3497
bag2
(g3
(I0
tp3498
g5
tp3499
Rp3500
(I1
(I1
tp3501
g12
I00
S'\xea\xc2\x89\xda\xbc\xd1z@'
p3502
tp3503
bag2
(g3
(I0
tp3504
g5
tp3505
Rp3506
(I1
(I1
tp3507
g12
I00
S'\x95\x7f\xbd\xa19\xd2z@'
p3508
tp3509
bag2
(g3
(I0
tp3510
g5
tp3511
Rp3512
(I1
(I1
tp3513
g12
I00
S'8\x05\xd2\x90\x92\xcez@'
p3514
tp3515
bag2
(g3
(I0
tp3516
g5
tp3517
Rp3518
(I1
(I1
tp3519
g12
I00
S'Z\x13xC\x1f\xc6z@'
p3520
tp3521
bag2
(g3
(I0
tp3522
g5
tp3523
Rp3524
(I1
(I1
tp3525
g12
I00
S'\xf8\x0b\xea\x92\xe1\xb8z@'
p3526
tp3527
bag2
(g3
(I0
tp3528
g5
tp3529
Rp3530
(I1
(I1
tp3531
g12
I00
S'\xbf\x99Y4\xf8\xa7z@'
p3532
tp3533
bag2
(g3
(I0
tp3534
g5
tp3535
Rp3536
(I1
(I1
tp3537
g12
I00
S'\x18\x9f\xb5M\xb2\x9bz@'
p3538
tp3539
bag2
(g3
(I0
tp3540
g5
tp3541
Rp3542
(I1
(I1
tp3543
g12
I00
S'Y\xf8|\xce\xbe\x93z@'
p3544
tp3545
bag2
(g3
(I0
tp3546
g5
tp3547
Rp3548
(I1
(I1
tp3549
g12
I00
S'\x04\xa6\x84q\xd2\x8fz@'
p3550
tp3551
bag2
(g3
(I0
tp3552
g5
tp3553
Rp3554
(I1
(I1
tp3555
g12
I00
S'ac\xf8[\x8b\x8fz@'
p3556
tp3557
bag2
(g3
(I0
tp3558
g5
tp3559
Rp3560
(I1
(I1
tp3561
g12
I00
S'\xa3\xb9\x0e\xb9\x82\x92z@'
p3562
tp3563
bag2
(g3
(I0
tp3564
g5
tp3565
Rp3566
(I1
(I1
tp3567
g12
I00
S'\xfcNk\xe6`\x98z@'
p3568
tp3569
bag2
(g3
(I0
tp3570
g5
tp3571
Rp3572
(I1
(I1
tp3573
g12
I00
S'\xfd\xa5\x1e\xfb\xe9\xa0z@'
p3574
tp3575
bag2
(g3
(I0
tp3576
g5
tp3577
Rp3578
(I1
(I1
tp3579
g12
I00
S'\xd0\xd44\xc6\xef\xabz@'
p3580
tp3581
bag2
(g3
(I0
tp3582
g5
tp3583
Rp3584
(I1
(I1
tp3585
g12
I00
S'g#\\8K\xb9z@'
p3586
tp3587
bag2
(g3
(I0
tp3588
g5
tp3589
Rp3590
(I1
(I1
tp3591
g12
I00
S'\x1cZFi\xd5\xc8z@'
p3592
tp3593
bag2
(g3
(I0
tp3594
g5
tp3595
Rp3596
(I1
(I1
tp3597
g12
I00
S'\xe5\x1eV\xddh\xdaz@'
p3598
tp3599
bag2
(g3
(I0
tp3600
g5
tp3601
Rp3602
(I1
(I1
tp3603
g12
I00
S'TpR\x87\xda\xedz@'
p3604
tp3605
bag2
(g3
(I0
tp3606
g5
tp3607
Rp3608
(I1
(I1
tp3609
g12
I00
S'\x8e\x90\xad\xb75\x05{@'
p3610
tp3611
bag2
(g3
(I0
tp3612
g5
tp3613
Rp3614
(I1
(I1
tp3615
g12
I00
S'\x9d\x10\x04uN\x1f{@'
p3616
tp3617
bag2
(g3
(I0
tp3618
g5
tp3619
Rp3620
(I1
(I1
tp3621
g12
I00
S'\xf3z )\xe5:{@'
p3622
tp3623
bag2
(g3
(I0
tp3624
g5
tp3625
Rp3626
(I1
(I1
tp3627
g12
I00
S'\x00:\x93\xb6iW{@'
p3628
tp3629
bag2
(g3
(I0
tp3630
g5
tp3631
Rp3632
(I1
(I1
tp3633
g12
I00
S'\xa1\x98\x9e\x9b-o{@'
p3634
tp3635
bag2
(g3
(I0
tp3636
g5
tp3637
Rp3638
(I1
(I1
tp3639
g12
I00
S'\xc7\n\x7f\xf6\xc6\x82{@'
p3640
tp3641
bag2
(g3
(I0
tp3642
g5
tp3643
Rp3644
(I1
(I1
tp3645
g12
I00
S'f\x97\xd4}\x14\x92{@'
p3646
tp3647
bag2
(g3
(I0
tp3648
g5
tp3649
Rp3650
(I1
(I1
tp3651
g12
I00
S'}AfB\x0b\x9c{@'
p3652
tp3653
bag2
(g3
(I0
tp3654
g5
tp3655
Rp3656
(I1
(I1
tp3657
g12
I00
S'\xf5\xcd\x17.\xb9\xa1{@'
p3658
tp3659
bag2
(g3
(I0
tp3660
g5
tp3661
Rp3662
(I1
(I1
tp3663
g12
I00
S'\x02\x0f\xa4\x81\xfb\xa2{@'
p3664
tp3665
bag2
(g3
(I0
tp3666
g5
tp3667
Rp3668
(I1
(I1
tp3669
g12
I00
S'SG[c\xf2\x9f{@'
p3670
tp3671
bag2
(g3
(I0
tp3672
g5
tp3673
Rp3674
(I1
(I1
tp3675
g12
I00
S'\x7f\xc4\\\xc2~\x98{@'
p3676
tp3677
bag2
(g3
(I0
tp3678
g5
tp3679
Rp3680
(I1
(I1
tp3681
g12
I00
S'\xa2\x06\x18\xbaw\x95{@'
p3682
tp3683
bag2
(g3
(I0
tp3684
g5
tp3685
Rp3686
(I1
(I1
tp3687
g12
I00
S'=Z\xdb\\ \x8d{@'
p3688
tp3689
bag2
(g3
(I0
tp3690
g5
tp3691
Rp3692
(I1
(I1
tp3693
g12
I00
S'\xde\xd2a\x81#\x89{@'
p3694
tp3695
bag2
(g3
(I0
tp3696
g5
tp3697
Rp3698
(I1
(I1
tp3699
g12
I00
S'P\xeb\x15\x8b\xd6\x7f{@'
p3700
tp3701
bag2
(g3
(I0
tp3702
g5
tp3703
Rp3704
(I1
(I1
tp3705
g12
I00
S'm\xc8\xae\x87\xd7z{@'
p3706
tp3707
bag2
(g3
(I0
tp3708
g5
tp3709
Rp3710
(I1
(I1
tp3711
g12
I00
S'8\xdf\x0e\x92\xeby{@'
p3712
tp3713
bag2
(g3
(I0
tp3714
g5
tp3715
Rp3716
(I1
(I1
tp3717
g12
I00
S'j\x0bQ\xb7\xcf|{@'
p3718
tp3719
bag2
(g3
(I0
tp3720
g5
tp3721
Rp3722
(I1
(I1
tp3723
g12
I00
S'|\xaaa,\x1cz{@'
p3724
tp3725
bag2
(g3
(I0
tp3726
g5
tp3727
Rp3728
(I1
(I1
tp3729
g12
I00
S'P\x923\xbe\xb8z{@'
p3730
tp3731
bag2
(g3
(I0
tp3732
g5
tp3733
Rp3734
(I1
(I1
tp3735
g12
I00
S'\xf8\xa5E`S~{@'
p3736
tp3737
bag2
(g3
(I0
tp3738
g5
tp3739
Rp3740
(I1
(I1
tp3741
g12
I00
S'\xe9\xa1\xa2\xbf\x9b\x84{@'
p3742
tp3743
bag2
(g3
(I0
tp3744
g5
tp3745
Rp3746
(I1
(I1
tp3747
g12
I00
S'L\xce\x9b"Q\x8d{@'
p3748
tp3749
bag2
(g3
(I0
tp3750
g5
tp3751
Rp3752
(I1
(I1
tp3753
g12
I00
S'Z\xe7\xc9)7\x98{@'
p3754
tp3755
bag2
(g3
(I0
tp3756
g5
tp3757
Rp3758
(I1
(I1
tp3759
g12
I00
S'l\x93\x1b\xee\x16\xa5{@'
p3760
tp3761
bag2
(g3
(I0
tp3762
g5
tp3763
Rp3764
(I1
(I1
tp3765
g12
I00
S'\x01\x92T\x15\xbe\xb3{@'
p3766
tp3767
bag2
(g3
(I0
tp3768
g5
tp3769
Rp3770
(I1
(I1
tp3771
g12
I00
S'*\xdfYG<\xbc{@'
p3772
tp3773
bag2
(g3
(I0
tp3774
g5
tp3775
Rp3776
(I1
(I1
tp3777
g12
I00
S'\xc7\xc1\xe05!\xbf{@'
p3778
tp3779
bag2
(g3
(I0
tp3780
g5
tp3781
Rp3782
(I1
(I1
tp3783
g12
I00
S'\xd0\xb3\x1b\xd7\xd4\xc4{@'
p3784
tp3785
bag2
(g3
(I0
tp3786
g5
tp3787
Rp3788
(I1
(I1
tp3789
g12
I00
S'\xfb\xb2\x81\xea\x1d\xcd{@'
p3790
tp3791
bag2
(g3
(I0
tp3792
g5
tp3793
Rp3794
(I1
(I1
tp3795
g12
I00
S'\xce\xf6\x99\x1c\xa1\xd7{@'
p3796
tp3797
bag2
(g3
(I0
tp3798
g5
tp3799
Rp3800
(I1
(I1
tp3801
g12
I00
S'\x9arNi\x0e\xe4{@'
p3802
tp3803
bag2
(g3
(I0
tp3804
g5
tp3805
Rp3806
(I1
(I1
tp3807
g12
I00
S"n\xff\xfb#'\xf2{@"
p3808
tp3809
bag2
(g3
(I0
tp3810
g5
tp3811
Rp3812
(I1
(I1
tp3813
g12
I00
S'\xc9\x1d\n\xfd\xb1\x01|@'
p3814
tp3815
bag2
(g3
(I0
tp3816
g5
tp3817
Rp3818
(I1
(I1
tp3819
g12
I00
S'x\xfcx\xd2}\x12|@'
p3820
tp3821
bag2
(g3
(I0
tp3822
g5
tp3823
Rp3824
(I1
(I1
tp3825
g12
I00
S'g\xd7+(^$|@'
p3826
tp3827
bag2
(g3
(I0
tp3828
g5
tp3829
Rp3830
(I1
(I1
tp3831
g12
I00
S'P\x85A\xbc\xcb6|@'
p3832
tp3833
bag2
(g3
(I0
tp3834
g5
tp3835
Rp3836
(I1
(I1
tp3837
g12
I00
S'^\xc7N\x04uI|@'
p3838
tp3839
bag2
(g3
(I0
tp3840
g5
tp3841
Rp3842
(I1
(I1
tp3843
g12
I00
S'\x85\xa1 I8\\|@'
p3844
tp3845
bag2
(g3
(I0
tp3846
g5
tp3847
Rp3848
(I1
(I1
tp3849
g12
I00
S'\xbf\x18\xd3I\x02o|@'
p3850
tp3851
bag2
(g3
(I0
tp3852
g5
tp3853
Rp3854
(I1
(I1
tp3855
g12
I00
S'\xa1\xf0\xe6F\xc0\x81|@'
p3856
tp3857
bag2
(g3
(I0
tp3858
g5
tp3859
Rp3860
(I1
(I1
tp3861
g12
I00
S'~snbe\x94|@'
p3862
tp3863
bag2
(g3
(I0
tp3864
g5
tp3865
Rp3866
(I1
(I1
tp3867
g12
I00
S'b\xfa\x0f\x8f\xe7\xa6|@'
p3868
tp3869
bag2
(g3
(I0
tp3870
g5
tp3871
Rp3872
(I1
(I1
tp3873
g12
I00
S'\xb0\x8b\xdc\x8d\x19\xbb|@'
p3874
tp3875
bag2
(g3
(I0
tp3876
g5
tp3877
Rp3878
(I1
(I1
tp3879
g12
I00
S'\x82\xa8i7^\xd0|@'
p3880
tp3881
bag2
(g3
(I0
tp3882
g5
tp3883
Rp3884
(I1
(I1
tp3885
g12
I00
S"\x8cV'\xaef\xe6|@"
p3886
tp3887
bag2
(g3
(I0
tp3888
g5
tp3889
Rp3890
(I1
(I1
tp3891
g12
I00
S'\x95\xb6c\xfe\xd0\xfc|@'
p3892
tp3893
bag2
(g3
(I0
tp3894
g5
tp3895
Rp3896
(I1
(I1
tp3897
g12
I00
S'\xd9$\xd8\x81\xeb\x0e}@'
p3898
tp3899
bag2
(g3
(I0
tp3900
g5
tp3901
Rp3902
(I1
(I1
tp3903
g12
I00
S'8\x83^\xb5]\x1d}@'
p3904
tp3905
bag2
(g3
(I0
tp3906
g5
tp3907
Rp3908
(I1
(I1
tp3909
g12
I00
S"!\x15\xc4\xca\xf3'}@"
p3910
tp3911
bag2
(g3
(I0
tp3912
g5
tp3913
Rp3914
(I1
(I1
tp3915
g12
I00
S'2T[-\x98.}@'
p3916
tp3917
bag2
(g3
(I0
tp3918
g5
tp3919
Rp3920
(I1
(I1
tp3921
g12
I00
S'a\xe9\xbf\xa9_1}@'
p3922
tp3923
bag2
(g3
(I0
tp3924
g5
tp3925
Rp3926
(I1
(I1
tp3927
g12
I00
S'\xf6p\xbf\xa780}@'
p3928
tp3929
bag2
(g3
(I0
tp3930
g5
tp3931
Rp3932
(I1
(I1
tp3933
g12
I00
S'\xa6<\xae,I2}@'
p3934
tp3935
bag2
(g3
(I0
tp3936
g5
tp3937
Rp3938
(I1
(I1
tp3939
g12
I00
S'\xf2\x9fS\x99\x0b/}@'
p3940
tp3941
bag2
(g3
(I0
tp3942
g5
tp3943
Rp3944
(I1
(I1
tp3945
g12
I00
S'\xbb\x88x\x80\xf5.}@'
p3946
tp3947
bag2
(g3
(I0
tp3948
g5
tp3949
Rp3950
(I1
(I1
tp3951
g12
I00
S'f\x1cv}\xa1)}@'
p3952
tp3953
bag2
(g3
(I0
tp3954
g5
tp3955
Rp3956
(I1
(I1
tp3957
g12
I00
S"_\x1c\x18\xe0u'}@"
p3958
tp3959
bag2
(g3
(I0
tp3960
g5
tp3961
Rp3962
(I1
(I1
tp3963
g12
I00
S'R\x8c\xe6a\x03 }@'
p3964
tp3965
bag2
(g3
(I0
tp3966
g5
tp3967
Rp3968
(I1
(I1
tp3969
g12
I00
S'=\x1a\xb3!\xb6\x1b}@'
p3970
tp3971
bag2
(g3
(I0
tp3972
g5
tp3973
Rp3974
(I1
(I1
tp3975
g12
I00
S'\xb6P\xf4\xcdE\x1a}@'
p3976
tp3977
bag2
(g3
(I0
tp3978
g5
tp3979
Rp3980
(I1
(I1
tp3981
g12
I00
S'\x94\xb9\xd5?\xa9\x13}@'
p3982
tp3983
bag2
(g3
(I0
tp3984
g5
tp3985
Rp3986
(I1
(I1
tp3987
g12
I00
S'\xcaoY\x0c\xb6\x0f}@'
p3988
tp3989
bag2
(g3
(I0
tp3990
g5
tp3991
Rp3992
(I1
(I1
tp3993
g12
I00
S'R\xc5J\x90I\x0e}@'
p3994
tp3995
bag2
(g3
(I0
tp3996
g5
tp3997
Rp3998
(I1
(I1
tp3999
g12
I00
S'\x8e+\xd5\xb1\xd0\x07}@'
p4000
tp4001
bag2
(g3
(I0
tp4002
g5
tp4003
Rp4004
(I1
(I1
tp4005
g12
I00
S"\xc5'X\xb9\xb2\x03}@"
p4006
tp4007
bag2
(g3
(I0
tp4008
g5
tp4009
Rp4010
(I1
(I1
tp4011
g12
I00
S'@\xaa\x93\x8f\xd4\x01}@'
p4012
tp4013
bag2
(g3
(I0
tp4014
g5
tp4015
Rp4016
(I1
(I1
tp4017
g12
I00
S'3\xaa\xda\xa0\xef\x01}@'
p4018
tp4019
bag2
(g3
(I0
tp4020
g5
tp4021
Rp4022
(I1
(I1
tp4023
g12
I00
S'\xca\x9d\x9a1\xc4\x03}@'
p4024
tp4025
bag2
(g3
(I0
tp4026
g5
tp4027
Rp4028
(I1
(I1
tp4029
g12
I00
S'\xa9\x1d\x91-\xea\x06}@'
p4030
tp4031
bag2
(g3
(I0
tp4032
g5
tp4033
Rp4034
(I1
(I1
tp4035
g12
I00
S'\xe6{\xba&\xec\n}@'
p4036
tp4037
bag2
(g3
(I0
tp4038
g5
tp4039
Rp4040
(I1
(I1
tp4041
g12
I00
S'<\tU\x96\x80\x0f}@'
p4042
tp4043
bag2
(g3
(I0
tp4044
g5
tp4045
Rp4046
(I1
(I1
tp4047
g12
I00
S'\x88\x02g\x8br\x14}@'
p4048
tp4049
bag2
(g3
(I0
tp4050
g5
tp4051
Rp4052
(I1
(I1
tp4053
g12
I00
S'\xdf\xb83\x15\x9a\x19}@'
p4054
tp4055
bag2
(g3
(I0
tp4056
g5
tp4057
Rp4058
(I1
(I1
tp4059
g12
I00
S'\xa0\x14]\x1b\xd6\x1e}@'
p4060
tp4061
bag2
(g3
(I0
tp4062
g5
tp4063
Rp4064
(I1
(I1
tp4065
g12
I00
S'\xc0\x93\x07J\x0b$}@'
p4066
tp4067
bag2
(g3
(I0
tp4068
g5
tp4069
Rp4070
(I1
(I1
tp4071
g12
I00
S'\x13\xf7\xd3Re+}@'
p4072
tp4073
bag2
(g3
(I0
tp4074
g5
tp4075
Rp4076
(I1
(I1
tp4077
g12
I00
S'062\x7ff4}@'
p4078
tp4079
bag2
(g3
(I0
tp4080
g5
tp4081
Rp4082
(I1
(I1
tp4083
g12
I00
S'\x1f\xa6\xa9\xfc\x94>}@'
p4084
tp4085
bag2
(g3
(I0
tp4086
g5
tp4087
Rp4088
(I1
(I1
tp4089
g12
I00
S'\xbf(|}\xb3I}@'
p4090
tp4091
bag2
(g3
(I0
tp4092
g5
tp4093
Rp4094
(I1
(I1
tp4095
g12
I00
S'w\xb2\x8a\x7f"S}@'
p4096
tp4097
bag2
(g3
(I0
tp4098
g5
tp4099
Rp4100
(I1
(I1
tp4101
g12
I00
S'\xac\xd3\xbe\x08([}@'
p4102
tp4103
bag2
(g3
(I0
tp4104
g5
tp4105
Rp4106
(I1
(I1
tp4107
g12
I00
S'V\xb9\x14,\xf9a}@'
p4108
tp4109
bag2
(g3
(I0
tp4110
g5
tp4111
Rp4112
(I1
(I1
tp4113
g12
I00
S'n\xf1\xae\xc4\xb5g}@'
p4114
tp4115
bag2
(g3
(I0
tp4116
g5
tp4117
Rp4118
(I1
(I1
tp4119
g12
I00
S'<\x0b\x96\x0b\xa0l}@'
p4120
tp4121
bag2
(g3
(I0
tp4122
g5
tp4123
Rp4124
(I1
(I1
tp4125
g12
I00
S'\xfa\x86\x99v\xd4p}@'
p4126
tp4127
bag2
(g3
(I0
tp4128
g5
tp4129
Rp4130
(I1
(I1
tp4131
g12
I00
S'\xf7\x10\xf2\xaait}@'
p4132
tp4133
bag2
(g3
(I0
tp4134
g5
tp4135
Rp4136
(I1
(I1
tp4137
g12
I00
S'|\x91\xba\xdd\xdfy}@'
p4138
tp4139
bag2
(g3
(I0
tp4140
g5
tp4141
Rp4142
(I1
(I1
tp4143
g12
I00
S'\x94\xeb\x95B\xe8\x80}@'
p4144
tp4145
bag2
(g3
(I0
tp4146
g5
tp4147
Rp4148
(I1
(I1
tp4149
g12
I00
S'\xf8\xe4]\xd2&\x89}@'
p4150
tp4151
bag2
(g3
(I0
tp4152
g5
tp4153
Rp4154
(I1
(I1
tp4155
g12
I00
S'm\xe0\xe3H\xbb\x8f}@'
p4156
tp4157
bag2
(g3
(I0
tp4158
g5
tp4159
Rp4160
(I1
(I1
tp4161
g12
I00
S'$\xd2}\xfc\xd9\x94}@'
p4162
tp4163
bag2
(g3
(I0
tp4164
g5
tp4165
Rp4166
(I1
(I1
tp4167
g12
I00
S'5g5\x9c\xb6\x98}@'
p4168
tp4169
bag2
(g3
(I0
tp4170
g5
tp4171
Rp4172
(I1
(I1
tp4173
g12
I00
S'\xdf\xbd\xea\xccr\x9b}@'
p4174
tp4175
bag2
(g3
(I0
tp4176
g5
tp4177
Rp4178
(I1
(I1
tp4179
g12
I00
S'~\xae\x08\xacT\x9d}@'
p4180
tp4181
bag2
(g3
(I0
tp4182
g5
tp4183
Rp4184
(I1
(I1
tp4185
g12
I00
S' \x125"\x1d\xa1}@'
p4186
tp4187
bag2
(g3
(I0
tp4188
g5
tp4189
Rp4190
(I1
(I1
tp4191
g12
I00
S'.\x87\x92\xf5r\xa6}@'
p4192
tp4193
bag2
(g3
(I0
tp4194
g5
tp4195
Rp4196
(I1
(I1
tp4197
g12
I00
S'=\xf7\x87\xa0\x11\xad}@'
p4198
tp4199
bag2
(g3
(I0
tp4200
g5
tp4201
Rp4202
(I1
(I1
tp4203
g12
I00
S'\x19?m\xa2\xee\xb1}@'
p4204
tp4205
bag2
(g3
(I0
tp4206
g5
tp4207
Rp4208
(I1
(I1
tp4209
g12
I00
S'\xf8LRp;\xb5}@'
p4210
tp4211
bag2
(g3
(I0
tp4212
g5
tp4213
Rp4214
(I1
(I1
tp4215
g12
I00
S'\x1a\xbbm\xe2,\xb7}@'
p4216
tp4217
bag2
(g3
(I0
tp4218
g5
tp4219
Rp4220
(I1
(I1
tp4221
g12
I00
S'K\xc7G\xd0\xf0\xb7}@'
p4222
tp4223
bag2
(g3
(I0
tp4224
g5
tp4225
Rp4226
(I1
(I1
tp4227
g12
I00
S'b\xf0\x8a\xf7\x84\xba}@'
p4228
tp4229
bag2
(g3
(I0
tp4230
g5
tp4231
Rp4232
(I1
(I1
tp4233
g12
I00
S'\xbc\x1d\x0b\xec\xbb\xbe}@'
p4234
tp4235
bag2
(g3
(I0
tp4236
g5
tp4237
Rp4238
(I1
(I1
tp4239
g12
I00
S'`/\x06\xd85\xc4}@'
p4240
tp4241
bag2
(g3
(I0
tp4242
g5
tp4243
Rp4244
(I1
(I1
tp4245
g12
I00
S'\xa6\x13\ri\xf3\xc7}@'
p4246
tp4247
bag2
(g3
(I0
tp4248
g5
tp4249
Rp4250
(I1
(I1
tp4251
g12
I00
S'\x0bW\x814\x1c\xca}@'
p4252
tp4253
bag2
(g3
(I0
tp4254
g5
tp4255
Rp4256
(I1
(I1
tp4257
g12
I00
S'\x8a\x96\xcfo\xec\xca}@'
p4258
tp4259
bag2
(g3
(I0
tp4260
g5
tp4261
Rp4262
(I1
(I1
tp4263
g12
I00
S'\xb5\xe5\x19+\x9d\xce}@'
p4264
tp4265
bag2
(g3
(I0
tp4266
g5
tp4267
Rp4268
(I1
(I1
tp4269
g12
I00
S'?\xe7\xfb>J\xd0}@'
p4270
tp4271
bag2
(g3
(I0
tp4272
g5
tp4273
Rp4274
(I1
(I1
tp4275
g12
I00
S"W\x9b\x86\xd1'\xd0}@"
p4276
tp4277
bag2
(g3
(I0
tp4278
g5
tp4279
Rp4280
(I1
(I1
tp4281
g12
I00
S'\xdc\x0cW\xab\x1d\xd2}@'
p4282
tp4283
bag2
(g3
(I0
tp4284
g5
tp4285
Rp4286
(I1
(I1
tp4287
g12
I00
S'\x8a|\x04\x8f\x03\xd5}@'
p4288
tp4289
bag2
(g3
(I0
tp4290
g5
tp4291
Rp4292
(I1
(I1
tp4293
g12
I00
S'l\x84\xa8\xe1I\xd7}@'
p4294
tp4295
bag2
(g3
(I0
tp4296
g5
tp4297
Rp4298
(I1
(I1
tp4299
g12
I00
S'\x91Mt\xe0L\xd8}@'
p4300
tp4301
bag2
(g3
(I0
tp4302
g5
tp4303
Rp4304
(I1
(I1
tp4305
g12
I00
S'&\x93\xf5\xbc\x14\xd8}@'
p4306
tp4307
bag2
(g3
(I0
tp4308
g5
tp4309
Rp4310
(I1
(I1
tp4311
g12
I00
S'[\xae\x92\xa2\xbc\xd6}@'
p4312
tp4313
bag2
(g3
(I0
tp4314
g5
tp4315
Rp4316
(I1
(I1
tp4317
g12
I00
S"'\x13\x98\xecy\xd4}@"
p4318
tp4319
bag2
(g3
(I0
tp4320
g5
tp4321
Rp4322
(I1
(I1
tp4323
g12
I00
S'$\xed\xdf\xd4x\xd1}@'
p4324
tp4325
bag2
(g3
(I0
tp4326
g5
tp4327
Rp4328
(I1
(I1
tp4329
g12
I00
S'V\xa7\xd3z\xdd\xcd}@'
p4330
tp4331
bag2
(g3
(I0
tp4332
g5
tp4333
Rp4334
(I1
(I1
tp4335
g12
I00
S'\xd1\x8b\xb1;\xbe\xc9}@'
p4336
tp4337
bag2
(g3
(I0
tp4338
g5
tp4339
Rp4340
(I1
(I1
tp4341
g12
I00
S'\xd4C\xb1\x88/\xc5}@'
p4342
tp4343
bag2
(g3
(I0
tp4344
g5
tp4345
Rp4346
(I1
(I1
tp4347
g12
I00
S'\xaf\xac\t\x1fD\xc0}@'
p4348
tp4349
bag2
(g3
(I0
tp4350
g5
tp4351
Rp4352
(I1
(I1
tp4353
g12
I00
S'\xbc9\xecF\x0b\xbb}@'
p4354
tp4355
bag2
(g3
(I0
tp4356
g5
tp4357
Rp4358
(I1
(I1
tp4359
g12
I00
S'T\xcdQX#\xb6}@'
p4360
tp4361
bag2
(g3
(I0
tp4362
g5
tp4363
Rp4364
(I1
(I1
tp4365
g12
I00
S'\xa1H\x0eo\x98\xb1}@'
p4366
tp4367
bag2
(g3
(I0
tp4368
g5
tp4369
Rp4370
(I1
(I1
tp4371
g12
I00
S'\xbfP\xbb\xc7Z\xad}@'
p4372
tp4373
bag2
(g3
(I0
tp4374
g5
tp4375
Rp4376
(I1
(I1
tp4377
g12
I00
S'\x93\xec\x94|S\xa9}@'
p4378
tp4379
bag2
(g3
(I0
tp4380
g5
tp4381
Rp4382
(I1
(I1
tp4383
g12
I00
S'\x18\x9a\xca\xfcp\xa5}@'
p4384
tp4385
bag2
(g3
(I0
tp4386
g5
tp4387
Rp4388
(I1
(I1
tp4389
g12
I00
S'\x8cS\xd6\xd5\xf5\xa9}@'
p4390
tp4391
bag2
(g3
(I0
tp4392
g5
tp4393
Rp4394
(I1
(I1
tp4395
g12
I00
S"j\xca'\x1f\x82\xac}@"
p4396
tp4397
bag2
(g3
(I0
tp4398
g5
tp4399
Rp4400
(I1
(I1
tp4401
g12
I00
S'\x14/c\xeev\xad}@'
p4402
tp4403
bag2
(g3
(I0
tp4404
g5
tp4405
Rp4406
(I1
(I1
tp4407
g12
I00
S'!ZTT\x86\xae}@'
p4408
tp4409
bag2
(g3
(I0
tp4410
g5
tp4411
Rp4412
(I1
(I1
tp4413
g12
I00
S'\xbf\x01\xedx\x8f\xac}@'
p4414
tp4415
bag2
(g3
(I0
tp4416
g5
tp4417
Rp4418
(I1
(I1
tp4419
g12
I00
S'\xa4\xe7\xb6{T\xa6}@'
p4420
tp4421
bag2
(g3
(I0
tp4422
g5
tp4423
Rp4424
(I1
(I1
tp4425
g12
I00
S'\xfc\xd6\xf3\x014\x95}@'
p4426
tp4427
bag2
(g3
(I0
tp4428
g5
tp4429
Rp4430
(I1
(I1
tp4431
g12
I00
S'~\xf31\xe5\xc1\x93}@'
p4432
tp4433
bag2
(g3
(I0
tp4434
g5
tp4435
Rp4436
(I1
(I1
tp4437
g12
I00
S'1n1\xc0\xab\x96}@'
p4438
tp4439
bag2
(g3
(I0
tp4440
g5
tp4441
Rp4442
(I1
(I1
tp4443
g12
I00
S'\x80]\x8d\x7f\xd3\x9c}@'
p4444
tp4445
bag2
(g3
(I0
tp4446
g5
tp4447
Rp4448
(I1
(I1
tp4449
g12
I00
S'\xe3\x8b\x0f\xf8\xe4\x9e}@'
p4450
tp4451
bag2
(g3
(I0
tp4452
g5
tp4453
Rp4454
(I1
(I1
tp4455
g12
I00
S'\x8a\xe8\xb8\xa65\xa7}@'
p4456
tp4457
bag2
(g3
(I0
tp4458
g5
tp4459
Rp4460
(I1
(I1
tp4461
g12
I00
S'+\xd9\xb5 \x1e\xab}@'
p4462
tp4463
baa.