(lp0
(lp1
cnumpy.core.multiarray
_reconstruct
p2
(cnumpy
ndarray
p3
(I0
tp4
S'b'
p5
tp6
Rp7
(I1
(I1
tp8
cnumpy
dtype
p9
(S'f8'
p10
I0
I1
tp11
Rp12
(I3
S'<'
p13
NNNI-1
I-1
I0
tp14
bI00
S'\x00\x00\x00\x00\x00\xc4\x90@'
p15
tp16
bag2
(g3
(I0
tp17
g5
tp18
Rp19
(I1
(I1
tp20
g12
I00
S'\x00\x00\x00\x00\x00\xc4\x90@'
p21
tp22
bag2
(g3
(I0
tp23
g5
tp24
Rp25
(I1
(I1
tp26
g12
I00
S'\x00\x00\x00\x00\x00\xc4\x90@'
p27
tp28
bag2
(g3
(I0
tp29
g5
tp30
Rp31
(I1
(I1
tp32
g12
I00
S'_ql\xeb\xf9\xc3\x90@'
p33
tp34
bag2
(g3
(I0
tp35
g5
tp36
Rp37
(I1
(I1
tp38
g12
I00
S'\xcf\xc2\xa3\x14\xc9\xc3\x90@'
p39
tp40
bag2
(g3
(I0
tp41
g5
tp42
Rp43
(I1
(I1
tp44
g12
I00
S'\xa2j]\x19\x7f\xc3\x90@'
p45
tp46
bag2
(g3
(I0
tp47
g5
tp48
Rp49
(I1
(I1
tp50
g12
I00
S'\x13Z\xc2\xc5A\xc3\x90@'
p51
tp52
bag2
(g3
(I0
tp53
g5
tp54
Rp55
(I1
(I1
tp56
g12
I00
S'\x1f\x183\xb7:\xc3\x90@'
p57
tp58
bag2
(g3
(I0
tp59
g5
tp60
Rp61
(I1
(I1
tp62
g12
I00
S'\x1d\xcd\xde\xd1m\xc3\x90@'
p63
tp64
bag2
(g3
(I0
tp65
g5
tp66
Rp67
(I1
(I1
tp68
g12
I00
S'\xdbT\xcdN\xbe\xc3\x90@'
p69
tp70
bag2
(g3
(I0
tp71
g5
tp72
Rp73
(I1
(I1
tp74
g12
I00
S'\xa90J\xb5\xf4\xc3\x90@'
p75
tp76
bag2
(g3
(I0
tp77
g5
tp78
Rp79
(I1
(I1
tp80
g12
I00
S'^\xf2t\xce\xbc\xc3\x90@'
p81
tp82
bag2
(g3
(I0
tp83
g5
tp84
Rp85
(I1
(I1
tp86
g12
I00
S'\x1f\xefk\xf1\xa7\xc2\x90@'
p87
tp88
bag2
(g3
(I0
tp89
g5
tp90
Rp91
(I1
(I1
tp92
g12
I00
S'\x10\x1c\xf2\xf6p\xc0\x90@'
p93
tp94
bag2
(g3
(I0
tp95
g5
tp96
Rp97
(I1
(I1
tp98
g12
I00
S'\xec\xff\ti\x04\xbd\x90@'
p99
tp100
bag2
(g3
(I0
tp101
g5
tp102
Rp103
(I1
(I1
tp104
g12
I00
S'\x92\xbb-\xa6\x1b\xb8\x90@'
p105
tp106
bag2
(g3
(I0
tp107
g5
tp108
Rp109
(I1
(I1
tp110
g12
I00
S'\xcfT^\x99\x1d\xb2\x90@'
p111
tp112
bag2
(g3
(I0
tp113
g5
tp114
Rp115
(I1
(I1
tp116
g12
I00
S'\xf0c^\xb2l\xab\x90@'
p117
tp118
bag2
(g3
(I0
tp119
g5
tp120
Rp121
(I1
(I1
tp122
g12
I00
S'\xe7\xcf\x81\xd6P\xa4\x90@'
p123
tp124
bag2
(g3
(I0
tp125
g5
tp126
Rp127
(I1
(I1
tp128
g12
I00
S'\xb6\xb0\x8d\xf4\\\x9c\x90@'
p129
tp130
bag2
(g3
(I0
tp131
g5
tp132
Rp133
(I1
(I1
tp134
g12
I00
S'a\xd2C\xcfM\x94\x90@'
p135
tp136
bag2
(g3
(I0
tp137
g5
tp138
Rp139
(I1
(I1
tp140
g12
I00
S'\xae\xef\x9e\xc9I\x8c\x90@'
p141
tp142
bag2
(g3
(I0
tp143
g5
tp144
Rp145
(I1
(I1
tp146
g12
I00
S'\xbfC7\xbd\xf7\x83\x90@'
p147
tp148
bag2
(g3
(I0
tp149
g5
tp150
Rp151
(I1
(I1
tp152
g12
I00
S'u\x8e\x8fd\xca{\x90@'
p153
tp154
bag2
(g3
(I0
tp155
g5
tp156
Rp157
(I1
(I1
tp158
g12
I00
S'\xe1\x17$\x93qs\x90@'
p159
tp160
bag2
(g3
(I0
tp161
g5
tp162
Rp163
(I1
(I1
tp164
g12
I00
S'c27\x89Dk\x90@'
p165
tp166
bag2
(g3
(I0
tp167
g5
tp168
Rp169
(I1
(I1
tp170
g12
I00
S'O!\x9a\x8e.c\x90@'
p171
tp172
bag2
(g3
(I0
tp173
g5
tp174
Rp175
(I1
(I1
tp176
g12
I00
S'\t2\x0f\xb5\xf2Z\x90@'
p177
tp178
bag2
(g3
(I0
tp179
g5
tp180
Rp181
(I1
(I1
tp182
g12
I00
S'|c\x90\xc1\xd9R\x90@'
p183
tp184
bag2
(g3
(I0
tp185
g5
tp186
Rp187
(I1
(I1
tp188
g12
I00
S'Z(\xa0J\xa4J\x90@'
p189
tp190
bag2
(g3
(I0
tp191
g5
tp192
Rp193
(I1
(I1
tp194
g12
I00
S'\xadu\x9e\xc6\x8cB\x90@'
p195
tp196
bag2
(g3
(I0
tp197
g5
tp198
Rp199
(I1
(I1
tp200
g12
I00
S'F\xef\xea\x91\x81:\x90@'
p201
tp202
bag2
(g3
(I0
tp203
g5
tp204
Rp205
(I1
(I1
tp206
g12
I00
S'[\xa0\xbb\x82^2\x90@'
p207
tp208
bag2
(g3
(I0
tp209
g5
tp210
Rp211
(I1
(I1
tp212
g12
I00
S'.\x88I\x1aS*\x90@'
p213
tp214
bag2
(g3
(I0
tp215
g5
tp216
Rp217
(I1
(I1
tp218
g12
I00
S'\xc5\xac`\xba7"\x90@'
p219
tp220
bag2
(g3
(I0
tp221
g5
tp222
Rp223
(I1
(I1
tp224
g12
I00
S'\x0f\x10\xc9\xaa.\x1a\x90@'
p225
tp226
bag2
(g3
(I0
tp227
g5
tp228
Rp229
(I1
(I1
tp230
g12
I00
S'\x99zr\x824\x12\x90@'
p231
tp232
bag2
(g3
(I0
tp233
g5
tp234
Rp235
(I1
(I1
tp236
g12
I00
S'h\xd2\xe8\x1f&\n\x90@'
p237
tp238
bag2
(g3
(I0
tp239
g5
tp240
Rp241
(I1
(I1
tp242
g12
I00
S'x\x00\xaa\x01)\x02\x90@'
p243
tp244
bag2
(g3
(I0
tp245
g5
tp246
Rp247
(I1
(I1
tp248
g12
I00
S'\xd3\xb4\xc0\x9f{\xf4\x8f@'
p249
tp250
bag2
(g3
(I0
tp251
g5
tp252
Rp253
(I1
(I1
tp254
g12
I00
S'\x1ap/\tw\xe4\x8f@'
p255
tp256
bag2
(g3
(I0
tp257
g5
tp258
Rp259
(I1
(I1
tp260
g12
I00
S'\xd7\x88C\xa4\xf0\xd4\x8f@'
p261
tp262
bag2
(g3
(I0
tp263
g5
tp264
Rp265
(I1
(I1
tp266
g12
I00
S'\x99\t*\x9aM\xc5\x8f@'
p267
tp268
bag2
(g3
(I0
tp269
g5
tp270
Rp271
(I1
(I1
tp272
g12
I00
S'\x9b\x1ao\xf0\xde\xb5\x8f@'
p273
tp274
bag2
(g3
(I0
tp275
g5
tp276
Rp277
(I1
(I1
tp278
g12
I00
S'\xffj\x9eB<\xa6\x8f@'
p279
tp280
bag2
(g3
(I0
tp281
g5
tp282
Rp283
(I1
(I1
tp284
g12
I00
S'\x15\x0f\xe7di\x96\x8f@'
p285
tp286
bag2
(g3
(I0
tp287
g5
tp288
Rp289
(I1
(I1
tp290
g12
I00
S'WI00\xb9\x86\x8f@'
p291
tp292
bag2
(g3
(I0
tp293
g5
tp294
Rp295
(I1
(I1
tp296
g12
I00
S'\x19F\xbeU\xdbv\x8f@'
p297
tp298
bag2
(g3
(I0
tp299
g5
tp300
Rp301
(I1
(I1
tp302
g12
I00
S'\x06c\x14\x14vi\x8f@'
p303
tp304
bag2
(g3
(I0
tp305
g5
tp306
Rp307
(I1
(I1
tp308
g12
I00
S'\xf5K\x90\x96\x93^\x8f@'
p309
tp310
bag2
(g3
(I0
tp311
g5
tp312
Rp313
(I1
(I1
tp314
g12
I00
S'\x1eM\x00\x9bHV\x8f@'
p315
tp316
bag2
(g3
(I0
tp317
g5
tp318
Rp319
(I1
(I1
tp320
g12
I00
S'z\xa7\xfa\x90\xd2K\x8f@'
p321
tp322
bag2
(g3
(I0
tp323
g5
tp324
Rp325
(I1
(I1
tp326
g12
I00
S'\xce\xe0\x13h)?\x8f@'
p327
tp328
bag2
(g3
(I0
tp329
g5
tp330
Rp331
(I1
(I1
tp332
g12
I00
S'\xc7\r!\xaf\x9c0\x8f@'
p333
tp334
bag2
(g3
(I0
tp335
g5
tp336
Rp337
(I1
(I1
tp338
g12
I00
S'\x92\xa2\x80\\\x95$\x8f@'
p339
tp340
bag2
(g3
(I0
tp341
g5
tp342
Rp343
(I1
(I1
tp344
g12
I00
S'%\x88\xb9l\n\x1b\x8f@'
p345
tp346
bag2
(g3
(I0
tp347
g5
tp348
Rp349
(I1
(I1
tp350
g12
I00
S'\x0e\x81%\x04\x05\x14\x8f@'
p351
tp352
bag2
(g3
(I0
tp353
g5
tp354
Rp355
(I1
(I1
tp356
g12
I00
S'\x85\xcf^\x93y\x0f\x8f@'
p357
tp358
bag2
(g3
(I0
tp359
g5
tp360
Rp361
(I1
(I1
tp362
g12
I00
S'\xf9X\t\x00y\r\x8f@'
p363
tp364
bag2
(g3
(I0
tp365
g5
tp366
Rp367
(I1
(I1
tp368
g12
I00
S'oe7\xc5\r\x0e\x8f@'
p369
tp370
bag2
(g3
(I0
tp371
g5
tp372
Rp373
(I1
(I1
tp374
g12
I00
S'\xef<|\xcd\x96\x0c\x8f@'
p375
tp376
bag2
(g3
(I0
tp377
g5
tp378
Rp379
(I1
(I1
tp380
g12
I00
S'\xf8\xc91\x95\x11\t\x8f@'
p381
tp382
bag2
(g3
(I0
tp383
g5
tp384
Rp385
(I1
(I1
tp386
g12
I00
S'\xa6\x8bv\x99v\x03\x8f@'
p387
tp388
bag2
(g3
(I0
tp389
g5
tp390
Rp391
(I1
(I1
tp392
g12
I00
S'\xf8\x8dL\x90\xb9\xfb\x8e@'
p393
tp394
bag2
(g3
(I0
tp395
g5
tp396
Rp397
(I1
(I1
tp398
g12
I00
S'\xa0&\x8c\xd9\xd5\xf1\x8e@'
p399
tp400
bag2
(g3
(I0
tp401
g5
tp402
Rp403
(I1
(I1
tp404
g12
I00
S'\xff\x17\xe5i\xc7\xe5\x8e@'
p405
tp406
bag2
(g3
(I0
tp407
g5
tp408
Rp409
(I1
(I1
tp410
g12
I00
S'\xf9\xa7\x1f\xfd\x15\xd8\x8e@'
p411
tp412
bag2
(g3
(I0
tp413
g5
tp414
Rp415
(I1
(I1
tp416
g12
I00
S'\\$\xf5t\x9a\xc9\x8e@'
p417
tp418
bag2
(g3
(I0
tp419
g5
tp420
Rp421
(I1
(I1
tp422
g12
I00
S'{e\x86\x90\xba\xba\x8e@'
p423
tp424
bag2
(g3
(I0
tp425
g5
tp426
Rp427
(I1
(I1
tp428
g12
I00
S'&\xc2\xc1\xfa\x99\xab\x8e@'
p429
tp430
bag2
(g3
(I0
tp431
g5
tp432
Rp433
(I1
(I1
tp434
g12
I00
S'\x83\x13\x15"G\x9c\x8e@'
p435
tp436
bag2
(g3
(I0
tp437
g5
tp438
Rp439
(I1
(I1
tp440
g12
I00
S'\x91!\x0b\x04\xcb\x8c\x8e@'
p441
tp442
bag2
(g3
(I0
tp443
g5
tp444
Rp445
(I1
(I1
tp446
g12
I00
S'\x92jgS+}\x8e@'
p447
tp448
bag2
(g3
(I0
tp449
g5
tp450
Rp451
(I1
(I1
tp452
g12
I00
S'K\xdc\xbe\x87im\x8e@'
p453
tp454
bag2
(g3
(I0
tp455
g5
tp456
Rp457
(I1
(I1
tp458
g12
I00
S'U\xbe\xef\x1a\x8b]\x8e@'
p459
tp460
bag2
(g3
(I0
tp461
g5
tp462
Rp463
(I1
(I1
tp464
g12
I00
S'CjBl\x96M\x8e@'
p465
tp466
bag2
(g3
(I0
tp467
g5
tp468
Rp469
(I1
(I1
tp470
g12
I00
S'\xa2\x8e*B\xed=\x8e@'
p471
tp472
bag2
(g3
(I0
tp473
g5
tp474
Rp475
(I1
(I1
tp476
g12
I00
S'\xf7\x9f\x9c\x03\x9f.\x8e@'
p477
tp478
bag2
(g3
(I0
tp479
g5
tp480
Rp481
(I1
(I1
tp482
g12
I00
S'h\xad\xae\xaa\xaa\x1f\x8e@'
p483
tp484
bag2
(g3
(I0
tp485
g5
tp486
Rp487
(I1
(I1
tp488
g12
I00
S'\x15#\xbe\xc1\x07\x11\x8e@'
p489
tp490
bag2
(g3
(I0
tp491
g5
tp492
Rp493
(I1
(I1
tp494
g12
I00
S'&\xbf\x05\x8f\xbd\x02\x8e@'
p495
tp496
bag2
(g3
(I0
tp497
g5
tp498
Rp499
(I1
(I1
tp500
g12
I00
S'\x10\xae\xb8\x8b\xc9\xf3\x8d@'
p501
tp502
bag2
(g3
(I0
tp503
g5
tp504
Rp505
(I1
(I1
tp506
g12
I00
S'9\xb9pcF\xe4\x8d@'
p507
tp508
bag2
(g3
(I0
tp509
g5
tp510
Rp511
(I1
(I1
tp512
g12
I00
S'\xc6\xc0NP$\xd4\x8d@'
p513
tp514
bag2
(g3
(I0
tp515
g5
tp516
Rp517
(I1
(I1
tp518
g12
I00
S'K.dSr\xc3\x8d@'
p519
tp520
bag2
(g3
(I0
tp521
g5
tp522
Rp523
(I1
(I1
tp524
g12
I00
S')\x0eeD{\xb2\x8d@'
p525
tp526
bag2
(g3
(I0
tp527
g5
tp528
Rp529
(I1
(I1
tp530
g12
I00
S'P&\xc3IL\xa1\x8d@'
p531
tp532
bag2
(g3
(I0
tp533
g5
tp534
Rp535
(I1
(I1
tp536
g12
I00
S'\xabG\x87\xfe\x0c\x90\x8d@'
p537
tp538
bag2
(g3
(I0
tp539
g5
tp540
Rp541
(I1
(I1
tp542
g12
I00
S'\x88\xf95\xda\xbd~\x8d@'
p543
tp544
bag2
(g3
(I0
tp545
g5
tp546
Rp547
(I1
(I1
tp548
g12
I00
S'Z\x95I\xe2bm\x8d@'
p549
tp550
bag2
(g3
(I0
tp551
g5
tp552
Rp553
(I1
(I1
tp554
g12
I00
S'x\x84\xc0J\xfa[\x8d@'
p555
tp556
bag2
(g3
(I0
tp557
g5
tp558
Rp559
(I1
(I1
tp560
g12
I00
S'\xaf\xda(>\x86J\x8d@'
p561
tp562
bag2
(g3
(I0
tp563
g5
tp564
Rp565
(I1
(I1
tp566
g12
I00
S'\xff\x8e\xba\x14C9\x8d@'
p567
tp568
bag2
(g3
(I0
tp569
g5
tp570
Rp571
(I1
(I1
tp572
g12
I00
S"\nF\xee:\xcb'\x8d@"
p573
tp574
bag2
(g3
(I0
tp575
g5
tp576
Rp577
(I1
(I1
tp578
g12
I00
S'P\xde\xa7\x94y\x16\x8d@'
p579
tp580
bag2
(g3
(I0
tp581
g5
tp582
Rp583
(I1
(I1
tp584
g12
I00
S'\xbew\xa1\x8c\xf1\x04\x8d@'
p585
tp586
bag2
(g3
(I0
tp587
g5
tp588
Rp589
(I1
(I1
tp590
g12
I00
S'\x84\xc7R\xe6$\xf6\x8c@'
p591
tp592
bag2
(g3
(I0
tp593
g5
tp594
Rp595
(I1
(I1
tp596
g12
I00
S'ju}\x1e[\xe5\x8c@'
p597
tp598
bag2
(g3
(I0
tp599
g5
tp600
Rp601
(I1
(I1
tp602
g12
I00
S'\xc7A\xd6\xb1\xca\xd3\x8c@'
p603
tp604
bag2
(g3
(I0
tp605
g5
tp606
Rp607
(I1
(I1
tp608
g12
I00
S'\x11\xfc\xcao+\xc2\x8c@'
p609
tp610
bag2
(g3
(I0
tp611
g5
tp612
Rp613
(I1
(I1
tp614
g12
I00
S'*\x82\xb6} \xb3\x8c@'
p615
tp616
bag2
(g3
(I0
tp617
g5
tp618
Rp619
(I1
(I1
tp620
g12
I00
S'\xb9\x93-\xdfX\xa6\x8c@'
p621
tp622
bag2
(g3
(I0
tp623
g5
tp624
Rp625
(I1
(I1
tp626
g12
I00
S'\x972{W\x83\x97\x8c@'
p627
tp628
bag2
(g3
(I0
tp629
g5
tp630
Rp631
(I1
(I1
tp632
g12
I00
S'\x03I\xfel\x04\x87\x8c@'
p633
tp634
bag2
(g3
(I0
tp635
g5
tp636
Rp637
(I1
(I1
tp638
g12
I00
S'\xe2\xc1v>\xd0u\x8c@'
p639
tp640
bag2
(g3
(I0
tp641
g5
tp642
Rp643
(I1
(I1
tp644
g12
I00
S'\xec@83\x88d\x8c@'
p645
tp646
bag2
(g3
(I0
tp647
g5
tp648
Rp649
(I1
(I1
tp650
g12
I00
S'u\r\xaa\x04\xc6S\x8c@'
p651
tp652
bag2
(g3
(I0
tp653
g5
tp654
Rp655
(I1
(I1
tp656
g12
I00
S'\xed\r\xbey\x98C\x8c@'
p657
tp658
bag2
(g3
(I0
tp659
g5
tp660
Rp661
(I1
(I1
tp662
g12
I00
S'Z}Rp\xfc3\x8c@'
p663
tp664
bag2
(g3
(I0
tp665
g5
tp666
Rp667
(I1
(I1
tp668
g12
I00
S'\xba\x1d\xfb<\x96#\x8c@'
p669
tp670
bag2
(g3
(I0
tp671
g5
tp672
Rp673
(I1
(I1
tp674
g12
I00
S'\xec%\xe2\xd7q\x12\x8c@'
p675
tp676
bag2
(g3
(I0
tp677
g5
tp678
Rp679
(I1
(I1
tp680
g12
I00
S'i\x83\x00\x98\xdb\x00\x8c@'
p681
tp682
bag2
(g3
(I0
tp683
g5
tp684
Rp685
(I1
(I1
tp686
g12
I00
S'\xf76\xa9\x07\x11\xef\x8b@'
p687
tp688
bag2
(g3
(I0
tp689
g5
tp690
Rp691
(I1
(I1
tp692
g12
I00
S'\x19\xc2\x83P)\xdd\x8b@'
p693
tp694
bag2
(g3
(I0
tp695
g5
tp696
Rp697
(I1
(I1
tp698
g12
I00
S'\x9a\x8a\x00//\xcb\x8b@'
p699
tp700
bag2
(g3
(I0
tp701
g5
tp702
Rp703
(I1
(I1
tp704
g12
I00
S'\xf3Y\x98\xb9$\xbb\x8b@'
p705
tp706
bag2
(g3
(I0
tp707
g5
tp708
Rp709
(I1
(I1
tp710
g12
I00
S'\x10 J\xf7\xb3\xac\x8b@'
p711
tp712
bag2
(g3
(I0
tp713
g5
tp714
Rp715
(I1
(I1
tp716
g12
I00
S'zv\xf30\x7f\xa0\x8b@'
p717
tp718
bag2
(g3
(I0
tp719
g5
tp720
Rp721
(I1
(I1
tp722
g12
I00
S'j\x8d#\xbc\x99\x96\x8b@'
p723
tp724
bag2
(g3
(I0
tp725
g5
tp726
Rp727
(I1
(I1
tp728
g12
I00
S'\x16\x0b\x9c7\xa4\x8a\x8b@'
p729
tp730
bag2
(g3
(I0
tp731
g5
tp732
Rp733
(I1
(I1
tp734
g12
I00
S'\x1f_\x81\x15\xaf|\x8b@'
p735
tp736
bag2
(g3
(I0
tp737
g5
tp738
Rp739
(I1
(I1
tp740
g12
I00
S']\x1f\xa4>7m\x8b@'
p741
tp742
bag2
(g3
(I0
tp743
g5
tp744
Rp745
(I1
(I1
tp746
g12
I00
S'>6\x021\xbf]\x8b@'
p747
tp748
bag2
(g3
(I0
tp749
g5
tp750
Rp751
(I1
(I1
tp752
g12
I00
S'\xbe\xd3\xaa\xa58M\x8b@'
p753
tp754
bag2
(g3
(I0
tp755
g5
tp756
Rp757
(I1
(I1
tp758
g12
I00
S'(\x88!\xd2\xb9;\x8b@'
p759
tp760
bag2
(g3
(I0
tp761
g5
tp762
Rp763
(I1
(I1
tp764
g12
I00
S'\xbc\x17v\xe9\xae)\x8b@'
p765
tp766
bag2
(g3
(I0
tp767
g5
tp768
Rp769
(I1
(I1
tp770
g12
I00
S'\x13\xa9\x1d\x0b\xdc\x17\x8b@'
p771
tp772
bag2
(g3
(I0
tp773
g5
tp774
Rp775
(I1
(I1
tp776
g12
I00
S'\xaf\x9d:/\xae\x05\x8b@'
p777
tp778
bag2
(g3
(I0
tp779
g5
tp780
Rp781
(I1
(I1
tp782
g12
I00
S'\xf1\x82\x13\xabS\xf3\x8a@'
p783
tp784
bag2
(g3
(I0
tp785
g5
tp786
Rp787
(I1
(I1
tp788
g12
I00
S'\xaba\x96\xc2\xdc\xe0\x8a@'
p789
tp790
bag2
(g3
(I0
tp791
g5
tp792
Rp793
(I1
(I1
tp794
g12
I00
S'\xfc\xac\xc2\x0cS\xce\x8a@'
p795
tp796
bag2
(g3
(I0
tp797
g5
tp798
Rp799
(I1
(I1
tp800
g12
I00
S'\x8b<\x99L\x18\xbe\x8a@'
p801
tp802
bag2
(g3
(I0
tp803
g5
tp804
Rp805
(I1
(I1
tp806
g12
I00
S'\xe7\x10\x9cXC\xac\x8a@'
p807
tp808
bag2
(g3
(I0
tp809
g5
tp810
Rp811
(I1
(I1
tp812
g12
I00
S'\xaa\xf1\x9a\x10\x0e\x9c\x8a@'
p813
tp814
bag2
(g3
(I0
tp815
g5
tp816
Rp817
(I1
(I1
tp818
g12
I00
S'Q\xa2\x87i\xd6\x8d\x8a@'
p819
tp820
bag2
(g3
(I0
tp821
g5
tp822
Rp823
(I1
(I1
tp824
g12
I00
S'\x1c\xc8n\x962}\x8a@'
p825
tp826
bag2
(g3
(I0
tp827
g5
tp828
Rp829
(I1
(I1
tp830
g12
I00
S'\xb4\xaf\xc3\x80\xfdm\x8a@'
p831
tp832
bag2
(g3
(I0
tp833
g5
tp834
Rp835
(I1
(I1
tp836
g12
I00
S'\x91EQ\xd0\xb9`\x8a@'
p837
tp838
bag2
(g3
(I0
tp839
g5
tp840
Rp841
(I1
(I1
tp842
g12
I00
S'\xaao\x11d\x10Q\x8a@'
p843
tp844
bag2
(g3
(I0
tp845
g5
tp846
Rp847
(I1
(I1
tp848
g12
I00
S'a\x85\t5\xc5B\x8a@'
p849
tp850
bag2
(g3
(I0
tp851
g5
tp852
Rp853
(I1
(I1
tp854
g12
I00
S'c\x7f-\xbc\xd65\x8a@'
p855
tp856
bag2
(g3
(I0
tp857
g5
tp858
Rp859
(I1
(I1
tp860
g12
I00
S'7C\x08K?*\x8a@'
p861
tp862
bag2
(g3
(I0
tp863
g5
tp864
Rp865
(I1
(I1
tp866
g12
I00
S'\xda#0\xf9\x83 \x8a@'
p867
tp868
bag2
(g3
(I0
tp869
g5
tp870
Rp871
(I1
(I1
tp872
g12
I00
S'/\x93\xe6\x01\x03\x15\x8a@'
p873
tp874
bag2
(g3
(I0
tp875
g5
tp876
Rp877
(I1
(I1
tp878
g12
I00
S'L\xae1\xce\r\x08\x8a@'
p879
tp880
bag2
(g3
(I0
tp881
g5
tp882
Rp883
(I1
(I1
tp884
g12
I00
S'4\xeai\xe1\xf5\xf9\x89@'
p885
tp886
bag2
(g3
(I0
tp887
g5
tp888
Rp889
(I1
(I1
tp890
g12
I00
S'\x04(4\xf5\x07\xeb\x89@'
p891
tp892
bag2
(g3
(I0
tp893
g5
tp894
Rp895
(I1
(I1
tp896
g12
I00
S'%\x84g`\x8e\xdb\x89@'
p897
tp898
bag2
(g3
(I0
tp899
g5
tp900
Rp901
(I1
(I1
tp902
g12
I00
S'e\x11\x19\x86\x97\xca\x89@'
p903
tp904
bag2
(g3
(I0
tp905
g5
tp906
Rp907
(I1
(I1
tp908
g12
I00
S'!\xc8Q\x0cT\xb8\x89@'
p909
tp910
bag2
(g3
(I0
tp911
g5
tp912
Rp913
(I1
(I1
tp914
g12
I00
S'\xb8,\xdb\x85\x07\xa6\x89@'
p915
tp916
bag2
(g3
(I0
tp917
g5
tp918
Rp919
(I1
(I1
tp920
g12
I00
S'd6\xaf\xe3\xeb\x92\x89@'
p921
tp922
bag2
(g3
(I0
tp923
g5
tp924
Rp925
(I1
(I1
tp926
g12
I00
S'\x15\x8a\x8f\xb6\x0e\x82\x89@'
p927
tp928
bag2
(g3
(I0
tp929
g5
tp930
Rp931
(I1
(I1
tp932
g12
I00
S'\x8b\x16\x81\\\xb6o\x89@'
p933
tp934
bag2
(g3
(I0
tp935
g5
tp936
Rp937
(I1
(I1
tp938
g12
I00
S'gR\x86ox\\\x89@'
p939
tp940
bag2
(g3
(I0
tp941
g5
tp942
Rp943
(I1
(I1
tp944
g12
I00
S'\xf0\xfd\x91\xf2WK\x89@'
p945
tp946
bag2
(g3
(I0
tp947
g5
tp948
Rp949
(I1
(I1
tp950
g12
I00
S'\x8c\n@d\xbb8\x89@'
p951
tp952
bag2
(g3
(I0
tp953
g5
tp954
Rp955
(I1
(I1
tp956
g12
I00
S"\x8c\xcf8\x1de'\x89@"
p957
tp958
bag2
(g3
(I0
tp959
g5
tp960
Rp961
(I1
(I1
tp962
g12
I00
S'3\x12\x95\x0c\xb7\x17\x89@'
p963
tp964
bag2
(g3
(I0
tp965
g5
tp966
Rp967
(I1
(I1
tp968
g12
I00
S'\xb3\xb7\xa3\xe3J\x06\x89@'
p969
tp970
bag2
(g3
(I0
tp971
g5
tp972
Rp973
(I1
(I1
tp974
g12
I00
S'[\xd5\x83\x15v\xf3\x88@'
p975
tp976
bag2
(g3
(I0
tp977
g5
tp978
Rp979
(I1
(I1
tp980
g12
I00
S'8\x92(\x07\xb0\xe2\x88@'
p981
tp982
bag2
(g3
(I0
tp983
g5
tp984
Rp985
(I1
(I1
tp986
g12
I00
S'\x17G\xf0$4\xd3\x88@'
p987
tp988
bag2
(g3
(I0
tp989
g5
tp990
Rp991
(I1
(I1
tp992
g12
I00
S'<\x86{\xab\xb7\xc2\x88@'
p993
tp994
bag2
(g3
(I0
tp995
g5
tp996
Rp997
(I1
(I1
tp998
g12
I00
S'\x1e\xac\x8d\\\xbf\xb0\x88@'
p999
tp1000
bag2
(g3
(I0
tp1001
g5
tp1002
Rp1003
(I1
(I1
tp1004
g12
I00
S'0_\x9f\xb5\xc7\xa0\x88@'
p1005
tp1006
bag2
(g3
(I0
tp1007
g5
tp1008
Rp1009
(I1
(I1
tp1010
g12
I00
S'\x9d3\x8f\x9d9\x8f\x88@'
p1011
tp1012
bag2
(g3
(I0
tp1013
g5
tp1014
Rp1015
(I1
(I1
tp1016
g12
I00
S'\xbbIB\xb3\xa9\x7f\x88@'
p1017
tp1018
bag2
(g3
(I0
tp1019
g5
tp1020
Rp1021
(I1
(I1
tp1022
g12
I00
S'\xf3\x9d\x873un\x88@'
p1023
tp1024
bag2
(g3
(I0
tp1025
g5
tp1026
Rp1027
(I1
(I1
tp1028
g12
I00
S'\xc0\x84*\x9f?_\x88@'
p1029
tp1030
bag2
(g3
(I0
tp1031
g5
tp1032
Rp1033
(I1
(I1
tp1034
g12
I00
S'\x1fT\xbdxaN\x88@'
p1035
tp1036
bag2
(g3
(I0
tp1037
g5
tp1038
Rp1039
(I1
(I1
tp1040
g12
I00
S'\xcb\xd6\xd9\xdbw?\x88@'
p1041
tp1042
bag2
(g3
(I0
tp1043
g5
tp1044
Rp1045
(I1
(I1
tp1046
g12
I00
S'Oh\x06}\xea.\x88@'
p1047
tp1048
bag2
(g3
(I0
tp1049
g5
tp1050
Rp1051
(I1
(I1
tp1052
g12
I00
S'5\xc5\xea\xf2\xda\x1c\x88@'
p1053
tp1054
bag2
(g3
(I0
tp1055
g5
tp1056
Rp1057
(I1
(I1
tp1058
g12
I00
S'\xbd\x05\x1e\x7f\xa4\x0c\x88@'
p1059
tp1060
bag2
(g3
(I0
tp1061
g5
tp1062
Rp1063
(I1
(I1
tp1064
g12
I00
S'\xda\xbb\x16\x14\xb4\xfb\x87@'
p1065
tp1066
bag2
(g3
(I0
tp1067
g5
tp1068
Rp1069
(I1
(I1
tp1070
g12
I00
S'z\xa2\xe4\xb8}\xe9\x87@'
p1071
tp1072
bag2
(g3
(I0
tp1073
g5
tp1074
Rp1075
(I1
(I1
tp1076
g12
I00
S'~\xcf\xbd\xf74\xd6\x87@'
p1077
tp1078
bag2
(g3
(I0
tp1079
g5
tp1080
Rp1081
(I1
(I1
tp1082
g12
I00
S'5eb\x0c\xe3\xc3\x87@'
p1083
tp1084
bag2
(g3
(I0
tp1085
g5
tp1086
Rp1087
(I1
(I1
tp1088
g12
I00
S'\x94\x07\xbcA\x8c\xb2\x87@'
p1089
tp1090
bag2
(g3
(I0
tp1091
g5
tp1092
Rp1093
(I1
(I1
tp1094
g12
I00
S'\r\x1b\x9b\xc2\\\xa2\x87@'
p1095
tp1096
bag2
(g3
(I0
tp1097
g5
tp1098
Rp1099
(I1
(I1
tp1100
g12
I00
S'\xd5}+\xed\xd0\x93\x87@'
p1101
tp1102
bag2
(g3
(I0
tp1103
g5
tp1104
Rp1105
(I1
(I1
tp1106
g12
I00
S'\xbe\x97\xe7\xd3v\x86\x87@'
p1107
tp1108
bag2
(g3
(I0
tp1109
g5
tp1110
Rp1111
(I1
(I1
tp1112
g12
I00
S's\xfa\xbcI-x\x87@'
p1113
tp1114
bag2
(g3
(I0
tp1115
g5
tp1116
Rp1117
(I1
(I1
tp1118
g12
I00
S'\xa5\xcdW\x17[k\x87@'
p1119
tp1120
bag2
(g3
(I0
tp1121
g5
tp1122
Rp1123
(I1
(I1
tp1124
g12
I00
S'\x9ar\xc6\xd1\x02]\x87@'
p1125
tp1126
bag2
(g3
(I0
tp1127
g5
tp1128
Rp1129
(I1
(I1
tp1130
g12
I00
S'\x15\x9ed,\xa4M\x87@'
p1131
tp1132
bag2
(g3
(I0
tp1133
g5
tp1134
Rp1135
(I1
(I1
tp1136
g12
I00
S'\xc3\xaf\xb7\xbdK=\x87@'
p1137
tp1138
bag2
(g3
(I0
tp1139
g5
tp1140
Rp1141
(I1
(I1
tp1142
g12
I00
S'#+F\xe3\x85+\x87@'
p1143
tp1144
bag2
(g3
(I0
tp1145
g5
tp1146
Rp1147
(I1
(I1
tp1148
g12
I00
S'\xde\x84\xba/,\x1b\x87@'
p1149
tp1150
bag2
(g3
(I0
tp1151
g5
tp1152
Rp1153
(I1
(I1
tp1154
g12
I00
S't\xb5\xfb\x15E\n\x87@'
p1155
tp1156
bag2
(g3
(I0
tp1157
g5
tp1158
Rp1159
(I1
(I1
tp1160
g12
I00
S'@\x84gB;\xf8\x86@'
p1161
tp1162
bag2
(g3
(I0
tp1163
g5
tp1164
Rp1165
(I1
(I1
tp1166
g12
I00
S'd4\x07\xb7\x99\xe7\x86@'
p1167
tp1168
bag2
(g3
(I0
tp1169
g5
tp1170
Rp1171
(I1
(I1
tp1172
g12
I00
S'\xfe\xe3s\xa5p\xd8\x86@'
p1173
tp1174
bag2
(g3
(I0
tp1175
g5
tp1176
Rp1177
(I1
(I1
tp1178
g12
I00
S'\xc1\xb3e\t\x1e\xca\x86@'
p1179
tp1180
bag2
(g3
(I0
tp1181
g5
tp1182
Rp1183
(I1
(I1
tp1184
g12
I00
S'8\xab\xbe[o\xba\x86@'
p1185
tp1186
bag2
(g3
(I0
tp1187
g5
tp1188
Rp1189
(I1
(I1
tp1190
g12
I00
S'x\x12o\x88i\xa9\x86@'
p1191
tp1192
bag2
(g3
(I0
tp1193
g5
tp1194
Rp1195
(I1
(I1
tp1196
g12
I00
S"\xfb'3\x1e:\x97\x86@"
p1197
tp1198
bag2
(g3
(I0
tp1199
g5
tp1200
Rp1201
(I1
(I1
tp1202
g12
I00
S'\x8c\x8f\xc9\xd9\xbc\x85\x86@'
p1203
tp1204
bag2
(g3
(I0
tp1205
g5
tp1206
Rp1207
(I1
(I1
tp1208
g12
I00
S'\x1d\xf9r\x88\x1bu\x86@'
p1209
tp1210
bag2
(g3
(I0
tp1211
g5
tp1212
Rp1213
(I1
(I1
tp1214
g12
I00
S'j\x002Vke\x86@'
p1215
tp1216
bag2
(g3
(I0
tp1217
g5
tp1218
Rp1219
(I1
(I1
tp1220
g12
I00
S'\xdew\xce\xb3\xedT\x86@'
p1221
tp1222
bag2
(g3
(I0
tp1223
g5
tp1224
Rp1225
(I1
(I1
tp1226
g12
I00
S'\x0c\xbe8CLE\x86@'
p1227
tp1228
bag2
(g3
(I0
tp1229
g5
tp1230
Rp1231
(I1
(I1
tp1232
g12
I00
S'7\xfb\xcf\x17\xf16\x86@'
p1233
tp1234
bag2
(g3
(I0
tp1235
g5
tp1236
Rp1237
(I1
(I1
tp1238
g12
I00
S'Or\xa5\xfa\xb5)\x86@'
p1239
tp1240
bag2
(g3
(I0
tp1241
g5
tp1242
Rp1243
(I1
(I1
tp1244
g12
I00
S'\xe3\rl\xae\x7f\x1b\x86@'
p1245
tp1246
bag2
(g3
(I0
tp1247
g5
tp1248
Rp1249
(I1
(I1
tp1250
g12
I00
S'0\xa6Y\xcd\x9d\x0c\x86@'
p1251
tp1252
bag2
(g3
(I0
tp1253
g5
tp1254
Rp1255
(I1
(I1
tp1256
g12
I00
S'N@8T\x15\xfd\x85@'
p1257
tp1258
bag2
(g3
(I0
tp1259
g5
tp1260
Rp1261
(I1
(I1
tp1262
g12
I00
S'n\x1a\xf7\xbb\xad\xed\x85@'
p1263
tp1264
bag2
(g3
(I0
tp1265
g5
tp1266
Rp1267
(I1
(I1
tp1268
g12
I00
S'\xb7M1\xc7\xcc\xde\x85@'
p1269
tp1270
bag2
(g3
(I0
tp1271
g5
tp1272
Rp1273
(I1
(I1
tp1274
g12
I00
S'{|tsB\xcf\x85@'
p1275
tp1276
bag2
(g3
(I0
tp1277
g5
tp1278
Rp1279
(I1
(I1
tp1280
g12
I00
S'K#\x18\xa9O\xc0\x85@'
p1281
tp1282
bag2
(g3
(I0
tp1283
g5
tp1284
Rp1285
(I1
(I1
tp1286
g12
I00
S'\xd2m\xf1\r\x19\xb2\x85@'
p1287
tp1288
bag2
(g3
(I0
tp1289
g5
tp1290
Rp1291
(I1
(I1
tp1292
g12
I00
S'\x00\x03\xa4\xdb\xc1\xa4\x85@'
p1293
tp1294
bag2
(g3
(I0
tp1295
g5
tp1296
Rp1297
(I1
(I1
tp1298
g12
I00
S'\x8d\x0f\xa80l\x98\x85@'
p1299
tp1300
bag2
(g3
(I0
tp1301
g5
tp1302
Rp1303
(I1
(I1
tp1304
g12
I00
S'\xe7\xc2Q\xb7\xbc\x8b\x85@'
p1305
tp1306
bag2
(g3
(I0
tp1307
g5
tp1308
Rp1309
(I1
(I1
tp1310
g12
I00
S'yJ\x04\xd0\x9a~\x85@'
p1311
tp1312
bag2
(g3
(I0
tp1313
g5
tp1314
Rp1315
(I1
(I1
tp1316
g12
I00
S'\xbe\xe4\xc8\xa3\x0eq\x85@'
p1317
tp1318
bag2
(g3
(I0
tp1319
g5
tp1320
Rp1321
(I1
(I1
tp1322
g12
I00
S'\xaed\x83m\x1ec\x85@'
p1323
tp1324
bag2
(g3
(I0
tp1325
g5
tp1326
Rp1327
(I1
(I1
tp1328
g12
I00
S'tZ\xc5\xddBU\x85@'
p1329
tp1330
bag2
(g3
(I0
tp1331
g5
tp1332
Rp1333
(I1
(I1
tp1334
g12
I00
S'du>Q\x07G\x85@'
p1335
tp1336
bag2
(g3
(I0
tp1337
g5
tp1338
Rp1339
(I1
(I1
tp1340
g12
I00
S'\x9f\xc8\x86\x1aq8\x85@'
p1341
tp1342
bag2
(g3
(I0
tp1343
g5
tp1344
Rp1345
(I1
(I1
tp1346
g12
I00
S'\xf6\x85J,\xd9(\x85@'
p1347
tp1348
bag2
(g3
(I0
tp1349
g5
tp1350
Rp1351
(I1
(I1
tp1352
g12
I00
S'\x19\x16m\xa2Q\x18\x85@'
p1353
tp1354
bag2
(g3
(I0
tp1355
g5
tp1356
Rp1357
(I1
(I1
tp1358
g12
I00
S'\xb0M\x1e\x9b\x04\x07\x85@'
p1359
tp1360
bag2
(g3
(I0
tp1361
g5
tp1362
Rp1363
(I1
(I1
tp1364
g12
I00
S'\x060\x05gr\xf5\x84@'
p1365
tp1366
bag2
(g3
(I0
tp1367
g5
tp1368
Rp1369
(I1
(I1
tp1370
g12
I00
S'\xdd<T\xd3\x03\xe4\x84@'
p1371
tp1372
bag2
(g3
(I0
tp1373
g5
tp1374
Rp1375
(I1
(I1
tp1376
g12
I00
S'\x85\xb5\xa5\x86\xf0\xd2\x84@'
p1377
tp1378
bag2
(g3
(I0
tp1379
g5
tp1380
Rp1381
(I1
(I1
tp1382
g12
I00
S'((\xc3\xe2Z\xc2\x84@'
p1383
tp1384
bag2
(g3
(I0
tp1385
g5
tp1386
Rp1387
(I1
(I1
tp1388
g12
I00
S'st\xaf)V\xb2\x84@'
p1389
tp1390
bag2
(g3
(I0
tp1391
g5
tp1392
Rp1393
(I1
(I1
tp1394
g12
I00
S'@\xde\xd6\xd5\x00\xa3\x84@'
p1395
tp1396
bag2
(g3
(I0
tp1397
g5
tp1398
Rp1399
(I1
(I1
tp1400
g12
I00
S'\xde(\x90\x1er\x94\x84@'
p1401
tp1402
bag2
(g3
(I0
tp1403
g5
tp1404
Rp1405
(I1
(I1
tp1406
g12
I00
S'=.\x1b4\xa3\x86\x84@'
p1407
tp1408
bag2
(g3
(I0
tp1409
g5
tp1410
Rp1411
(I1
(I1
tp1412
g12
I00
S'\x0c\x93\xab\xe2\x82y\x84@'
p1413
tp1414
bag2
(g3
(I0
tp1415
g5
tp1416
Rp1417
(I1
(I1
tp1418
g12
I00
S'\xd9:Vd\xfbl\x84@'
p1419
tp1420
bag2
(g3
(I0
tp1421
g5
tp1422
Rp1423
(I1
(I1
tp1424
g12
I00
S'?\xacA\x1e\xf8`\x84@'
p1425
tp1426
bag2
(g3
(I0
tp1427
g5
tp1428
Rp1429
(I1
(I1
tp1430
g12
I00
S'^|\x10vcU\x84@'
p1431
tp1432
bag2
(g3
(I0
tp1433
g5
tp1434
Rp1435
(I1
(I1
tp1436
g12
I00
S':"\xd2{*J\x84@'
p1437
tp1438
bag2
(g3
(I0
tp1439
g5
tp1440
Rp1441
(I1
(I1
tp1442
g12
I00
S'\x05\x16\xd7X??\x84@'
p1443
tp1444
bag2
(g3
(I0
tp1445
g5
tp1446
Rp1447
(I1
(I1
tp1448
g12
I00
S'$\x03\xaf\xf5\x984\x84@'
p1449
tp1450
bag2
(g3
(I0
tp1451
g5
tp1452
Rp1453
(I1
(I1
tp1454
g12
I00
S'\xd8cyU\x1a*\x84@'
p1455
tp1456
bag2
(g3
(I0
tp1457
g5
tp1458
Rp1459
(I1
(I1
tp1460
g12
I00
S'\xd5\n\x8a\x14z\x1f\x84@'
p1461
tp1462
bag2
(g3
(I0
tp1463
g5
tp1464
Rp1465
(I1
(I1
tp1466
g12
I00
S'J\xcf\xb9\xab\xdf\x14\x84@'
p1467
tp1468
bag2
(g3
(I0
tp1469
g5
tp1470
Rp1471
(I1
(I1
tp1472
g12
I00
S"\xb4\x98'}\xeb\t\x84@"
p1473
tp1474
bag2
(g3
(I0
tp1475
g5
tp1476
Rp1477
(I1
(I1
tp1478
g12
I00
S'5S\xd85M\xff\x83@'
p1479
tp1480
bag2
(g3
(I0
tp1481
g5
tp1482
Rp1483
(I1
(I1
tp1484
g12
I00
S'\xc1\xc6\xd9Ob\xf4\x83@'
p1485
tp1486
bag2
(g3
(I0
tp1487
g5
tp1488
Rp1489
(I1
(I1
tp1490
g12
I00
S'\xa0\xdc\xc3/Q\xe9\x83@'
p1491
tp1492
bag2
(g3
(I0
tp1493
g5
tp1494
Rp1495
(I1
(I1
tp1496
g12
I00
S'EJ__-\xde\x83@'
p1497
tp1498
bag2
(g3
(I0
tp1499
g5
tp1500
Rp1501
(I1
(I1
tp1502
g12
I00
S'\xaf\xe7\xcc\xf7\xa1\xd3\x83@'
p1503
tp1504
bag2
(g3
(I0
tp1505
g5
tp1506
Rp1507
(I1
(I1
tp1508
g12
I00
S'\xd0\x9b\x82\xa5\xc0\xc8\x83@'
p1509
tp1510
bag2
(g3
(I0
tp1511
g5
tp1512
Rp1513
(I1
(I1
tp1514
g12
I00
S'\xcc\xa69\xcb\x8f\xbd\x83@'
p1515
tp1516
bag2
(g3
(I0
tp1517
g5
tp1518
Rp1519
(I1
(I1
tp1520
g12
I00
S'\xb4\xe0\xa6\x87\xdc\xb2\x83@'
p1521
tp1522
bag2
(g3
(I0
tp1523
g5
tp1524
Rp1525
(I1
(I1
tp1526
g12
I00
S'E\x98i\x9c\xb0\xa8\x83@'
p1527
tp1528
bag2
(g3
(I0
tp1529
g5
tp1530
Rp1531
(I1
(I1
tp1532
g12
I00
S'7C\x83\xef\x0b\x9f\x83@'
p1533
tp1534
bag2
(g3
(I0
tp1535
g5
tp1536
Rp1537
(I1
(I1
tp1538
g12
I00
S'@\x00>\xd3\xf2\x95\x83@'
p1539
tp1540
bag2
(g3
(I0
tp1541
g5
tp1542
Rp1543
(I1
(I1
tp1544
g12
I00
S'\xae\x9c\xcd\xf9\xed\x8b\x83@'
p1545
tp1546
bag2
(g3
(I0
tp1547
g5
tp1548
Rp1549
(I1
(I1
tp1550
g12
I00
S'\x86\xc7\xef\xb7u\x82\x83@'
p1551
tp1552
bag2
(g3
(I0
tp1553
g5
tp1554
Rp1555
(I1
(I1
tp1556
g12
I00
S'H2Kc\x94y\x83@'
p1557
tp1558
bag2
(g3
(I0
tp1559
g5
tp1560
Rp1561
(I1
(I1
tp1562
g12
I00
S'#\x0e,\xbbJq\x83@'
p1563
tp1564
bag2
(g3
(I0
tp1565
g5
tp1566
Rp1567
(I1
(I1
tp1568
g12
I00
S'\xcdc}-\x9di\x83@'
p1569
tp1570
bag2
(g3
(I0
tp1571
g5
tp1572
Rp1573
(I1
(I1
tp1574
g12
I00
S'\xd8m5\xbb\x8eb\x83@'
p1575
tp1576
bag2
(g3
(I0
tp1577
g5
tp1578
Rp1579
(I1
(I1
tp1580
g12
I00
S'0\xbc\xbb\xf8\x8c[\x83@'
p1581
tp1582
bag2
(g3
(I0
tp1583
g5
tp1584
Rp1585
(I1
(I1
tp1586
g12
I00
S'LGg\xab\xacT\x83@'
p1587
tp1588
bag2
(g3
(I0
tp1589
g5
tp1590
Rp1591
(I1
(I1
tp1592
g12
I00
S'\x8c\x8e\xb7\x90\rN\x83@'
p1593
tp1594
bag2
(g3
(I0
tp1595
g5
tp1596
Rp1597
(I1
(I1
tp1598
g12
I00
S'<}\xd8b\xf9E\x83@'
p1599
tp1600
bag2
(g3
(I0
tp1601
g5
tp1602
Rp1603
(I1
(I1
tp1604
g12
I00
S'\xe5\xd4`\xbdg<\x83@'
p1605
tp1606
bag2
(g3
(I0
tp1607
g5
tp1608
Rp1609
(I1
(I1
tp1610
g12
I00
S'-t\xc4\xdfO1\x83@'
p1611
tp1612
bag2
(g3
(I0
tp1613
g5
tp1614
Rp1615
(I1
(I1
tp1616
g12
I00
S',R\x87[\xa8$\x83@'
p1617
tp1618
bag2
(g3
(I0
tp1619
g5
tp1620
Rp1621
(I1
(I1
tp1622
g12
I00
S'\xb4\xf5\xf8&\xa8\x16\x83@'
p1623
tp1624
bag2
(g3
(I0
tp1625
g5
tp1626
Rp1627
(I1
(I1
tp1628
g12
I00
S'\xa2\xaf\x12?\xf9\x07\x83@'
p1629
tp1630
bag2
(g3
(I0
tp1631
g5
tp1632
Rp1633
(I1
(I1
tp1634
g12
I00
S'u\x18\xc6\xf6\x13\xf9\x82@'
p1635
tp1636
bag2
(g3
(I0
tp1637
g5
tp1638
Rp1639
(I1
(I1
tp1640
g12
I00
S'P&q\xef/\xea\x82@'
p1641
tp1642
bag2
(g3
(I0
tp1643
g5
tp1644
Rp1645
(I1
(I1
tp1646
g12
I00
S'\xaeisU_\xdb\x82@'
p1647
tp1648
bag2
(g3
(I0
tp1649
g5
tp1650
Rp1651
(I1
(I1
tp1652
g12
I00
S'\xb7p\x9a\x1e)\xcc\x82@'
p1653
tp1654
bag2
(g3
(I0
tp1655
g5
tp1656
Rp1657
(I1
(I1
tp1658
g12
I00
S'l`\x10\xb2k\xbc\x82@'
p1659
tp1660
bag2
(g3
(I0
tp1661
g5
tp1662
Rp1663
(I1
(I1
tp1664
g12
I00
S'sU\xad%\x88\xac\x82@'
p1665
tp1666
bag2
(g3
(I0
tp1667
g5
tp1668
Rp1669
(I1
(I1
tp1670
g12
I00
S'P\xcem\x8d\x99\x9c\x82@'
p1671
tp1672
bag2
(g3
(I0
tp1673
g5
tp1674
Rp1675
(I1
(I1
tp1676
g12
I00
S'^ND$\x97\x8c\x82@'
p1677
tp1678
bag2
(g3
(I0
tp1679
g5
tp1680
Rp1681
(I1
(I1
tp1682
g12
I00
S"h\t'\xed\x8b|\x82@"
p1683
tp1684
bag2
(g3
(I0
tp1685
g5
tp1686
Rp1687
(I1
(I1
tp1688
g12
I00
S'\xfb\xd9z\x16\x87l\x82@'
p1689
tp1690
bag2
(g3
(I0
tp1691
g5
tp1692
Rp1693
(I1
(I1
tp1694
g12
I00
S'j\x19/_\x8e\\\x82@'
p1695
tp1696
bag2
(g3
(I0
tp1697
g5
tp1698
Rp1699
(I1
(I1
tp1700
g12
I00
S'+\x9f\xa8\xb2\xa3L\x82@'
p1701
tp1702
bag2
(g3
(I0
tp1703
g5
tp1704
Rp1705
(I1
(I1
tp1706
g12
I00
S'=\x96\x90\x02\xcf<\x82@'
p1707
tp1708
bag2
(g3
(I0
tp1709
g5
tp1710
Rp1711
(I1
(I1
tp1712
g12
I00
S'p>\xcf\xf8\x0c-\x82@'
p1713
tp1714
bag2
(g3
(I0
tp1715
g5
tp1716
Rp1717
(I1
(I1
tp1718
g12
I00
S'1\xbcP\x9cd\x1d\x82@'
p1719
tp1720
bag2
(g3
(I0
tp1721
g5
tp1722
Rp1723
(I1
(I1
tp1724
g12
I00
S'\xf1\xc5%\xb7\xd6\r\x82@'
p1725
tp1726
bag2
(g3
(I0
tp1727
g5
tp1728
Rp1729
(I1
(I1
tp1730
g12
I00
S'\x0f\xc1\xe3#Z\xfe\x81@'
p1731
tp1732
bag2
(g3
(I0
tp1733
g5
tp1734
Rp1735
(I1
(I1
tp1736
g12
I00
S'*\xcb\xe9\xdc\xe5\xee\x81@'
p1737
tp1738
bag2
(g3
(I0
tp1739
g5
tp1740
Rp1741
(I1
(I1
tp1742
g12
I00
S'F\xbd\x97\x8ds\xdf\x81@'
p1743
tp1744
bag2
(g3
(I0
tp1745
g5
tp1746
Rp1747
(I1
(I1
tp1748
g12
I00
S'\xf3\x0e\x00\x84\xfd\xcf\x81@'
p1749
tp1750
bag2
(g3
(I0
tp1751
g5
tp1752
Rp1753
(I1
(I1
tp1754
g12
I00
S'\xecT\xb3\xab\x7f\xc0\x81@'
p1755
tp1756
bag2
(g3
(I0
tp1757
g5
tp1758
Rp1759
(I1
(I1
tp1760
g12
I00
S'\x19;\x94\xe1\xf6\xb0\x81@'
p1761
tp1762
bag2
(g3
(I0
tp1763
g5
tp1764
Rp1765
(I1
(I1
tp1766
g12
I00
S'7r}W`\xa1\x81@'
p1767
tp1768
bag2
(g3
(I0
tp1769
g5
tp1770
Rp1771
(I1
(I1
tp1772
g12
I00
S'\x9d\x83(\x98\xba\x91\x81@'
p1773
tp1774
bag2
(g3
(I0
tp1775
g5
tp1776
Rp1777
(I1
(I1
tp1778
g12
I00
S'\xb1K\xad\x82\x03\x82\x81@'
p1779
tp1780
bag2
(g3
(I0
tp1781
g5
tp1782
Rp1783
(I1
(I1
tp1784
g12
I00
S'\xba\xb9]\xa9;r\x81@'
p1785
tp1786
bag2
(g3
(I0
tp1787
g5
tp1788
Rp1789
(I1
(I1
tp1790
g12
I00
S'$P\xa1\x84ab\x81@'
p1791
tp1792
bag2
(g3
(I0
tp1793
g5
tp1794
Rp1795
(I1
(I1
tp1796
g12
I00
S'\xa9k\xe2UuR\x81@'
p1797
tp1798
bag2
(g3
(I0
tp1799
g5
tp1800
Rp1801
(I1
(I1
tp1802
g12
I00
S'\x8b@\xd3\xe4vB\x81@'
p1803
tp1804
bag2
(g3
(I0
tp1805
g5
tp1806
Rp1807
(I1
(I1
tp1808
g12
I00
S'\xab\xc0\x94\xd7f2\x81@'
p1809
tp1810
bag2
(g3
(I0
tp1811
g5
tp1812
Rp1813
(I1
(I1
tp1814
g12
I00
S'QmX\x07E"\x81@'
p1815
tp1816
bag2
(g3
(I0
tp1817
g5
tp1818
Rp1819
(I1
(I1
tp1820
g12
I00
S'9H+?\x12\x12\x81@'
p1821
tp1822
bag2
(g3
(I0
tp1823
g5
tp1824
Rp1825
(I1
(I1
tp1826
g12
I00
S'+\x16\xd7\xe0\xce\x01\x81@'
p1827
tp1828
bag2
(g3
(I0
tp1829
g5
tp1830
Rp1831
(I1
(I1
tp1832
g12
I00
S'\xc7o\xce\xa4{\xf1\x80@'
p1833
tp1834
bag2
(g3
(I0
tp1835
g5
tp1836
Rp1837
(I1
(I1
tp1838
g12
I00
S'B\x15\xb9\xa7*\xe1\x80@'
p1839
tp1840
bag2
(g3
(I0
tp1841
g5
tp1842
Rp1843
(I1
(I1
tp1844
g12
I00
S'\xc0^T\x9b\xc2\xd0\x80@'
p1845
tp1846
bag2
(g3
(I0
tp1847
g5
tp1848
Rp1849
(I1
(I1
tp1850
g12
I00
S'\xf7\xf1\x95\xfa@\xc0\x80@'
p1851
tp1852
bag2
(g3
(I0
tp1853
g5
tp1854
Rp1855
(I1
(I1
tp1856
g12
I00
S'\xe9\x84\xa24\xa0\xaf\x80@'
p1857
tp1858
bag2
(g3
(I0
tp1859
g5
tp1860
Rp1861
(I1
(I1
tp1862
g12
I00
S'\xa5\xdbS\xdb$\x9f\x80@'
p1863
tp1864
bag2
(g3
(I0
tp1865
g5
tp1866
Rp1867
(I1
(I1
tp1868
g12
I00
S'e\xe6\xc3\xf7\xf2\x8e\x80@'
p1869
tp1870
bag2
(g3
(I0
tp1871
g5
tp1872
Rp1873
(I1
(I1
tp1874
g12
I00
S',u\xf7\xc4\x1c\x7f\x80@'
p1875
tp1876
bag2
(g3
(I0
tp1877
g5
tp1878
Rp1879
(I1
(I1
tp1880
g12
I00
S'\xa3\xc9\xd5\xa1`q\x80@'
p1881
tp1882
bag2
(g3
(I0
tp1883
g5
tp1884
Rp1885
(I1
(I1
tp1886
g12
I00
S'\x0e\x85\x93\xed}e\x80@'
p1887
tp1888
baa(lp1889
g2
(g3
(I0
tp1890
g5
tp1891
Rp1892
(I1
(I1
tp1893
g12
I00
S'\x00\x00\x00\x00\x00\xf4u@'
p1894
tp1895
bag2
(g3
(I0
tp1896
g5
tp1897
Rp1898
(I1
(I1
tp1899
g12
I00
S'\x00\x00\x00\x00\x00\xf4u@'
p1900
tp1901
bag2
(g3
(I0
tp1902
g5
tp1903
Rp1904
(I1
(I1
tp1905
g12
I00
S'\x00\x00\x00\x00\x00\xf4u@'
p1906
tp1907
bag2
(g3
(I0
tp1908
g5
tp1909
Rp1910
(I1
(I1
tp1911
g12
I00
S'\xc1\xf7\xa7\xb5\xed\xedu@'
p1912
tp1913
bag2
(g3
(I0
tp1914
g5
tp1915
Rp1916
(I1
(I1
tp1917
g12
I00
S'\xc5\x0f\xb7:\xc7\xe1u@'
p1918
tp1919
bag2
(g3
(I0
tp1920
g5
tp1921
Rp1922
(I1
(I1
tp1923
g12
I00
S'\xac\xd0S?\xe1\xdau@'
p1924
tp1925
bag2
(g3
(I0
tp1926
g5
tp1927
Rp1928
(I1
(I1
tp1929
g12
I00
S'[3\x03\xa1r\xd9u@'
p1930
tp1931
bag2
(g3
(I0
tp1932
g5
tp1933
Rp1934
(I1
(I1
tp1935
g12
I00
S'\xb9\xd6\xb83\xb6\xddu@'
p1936
tp1937
bag2
(g3
(I0
tp1938
g5
tp1939
Rp1940
(I1
(I1
tp1941
g12
I00
S'\nz\xf8;\xad\xe7u@'
p1942
tp1943
bag2
(g3
(I0
tp1944
g5
tp1945
Rp1946
(I1
(I1
tp1947
g12
I00
S'\xa1\x11.\xf7\xa3\xf7u@'
p1948
tp1949
bag2
(g3
(I0
tp1950
g5
tp1951
Rp1952
(I1
(I1
tp1953
g12
I00
S'\x1bPh\xee\x93\rv@'
p1954
tp1955
bag2
(g3
(I0
tp1956
g5
tp1957
Rp1958
(I1
(I1
tp1959
g12
I00
S'\x8f\x1a\xc9\x9a`)v@'
p1960
tp1961
bag2
(g3
(I0
tp1962
g5
tp1963
Rp1964
(I1
(I1
tp1965
g12
I00
S',\xc4xA\xa9Gv@'
p1966
tp1967
bag2
(g3
(I0
tp1968
g5
tp1969
Rp1970
(I1
(I1
tp1971
g12
I00
S' \x9a\xb6\x1a\xd6dv@'
p1972
tp1973
bag2
(g3
(I0
tp1974
g5
tp1975
Rp1976
(I1
(I1
tp1977
g12
I00
S'P\xba\t\x83]\x7fv@'
p1978
tp1979
bag2
(g3
(I0
tp1980
g5
tp1981
Rp1982
(I1
(I1
tp1983
g12
I00
S';\xb9z\x9b\xc5\x95v@'
p1984
tp1985
bag2
(g3
(I0
tp1986
g5
tp1987
Rp1988
(I1
(I1
tp1989
g12
I00
S',\xcb\xf1/j\xa7v@'
p1990
tp1991
bag2
(g3
(I0
tp1992
g5
tp1993
Rp1994
(I1
(I1
tp1995
g12
I00
S'\xdd\xb5)\xcdj\xb4v@'
p1996
tp1997
bag2
(g3
(I0
tp1998
g5
tp1999
Rp2000
(I1
(I1
tp2001
g12
I00
S'\x96\xa0P\x9c\x8c\xbdv@'
p2002
tp2003
bag2
(g3
(I0
tp2004
g5
tp2005
Rp2006
(I1
(I1
tp2007
g12
I00
S'\x17\x99\xd6\xc0\xa8\xc2v@'
p2008
tp2009
bag2
(g3
(I0
tp2010
g5
tp2011
Rp2012
(I1
(I1
tp2013
g12
I00
S'\xaax\xfa#4\xc5v@'
p2014
tp2015
bag2
(g3
(I0
tp2016
g5
tp2017
Rp2018
(I1
(I1
tp2019
g12
I00
S'\x06\xdfY\xc9\xf2\xc5v@'
p2020
tp2021
bag2
(g3
(I0
tp2022
g5
tp2023
Rp2024
(I1
(I1
tp2025
g12
I00
S'\xe0d]\xae]\xc4v@'
p2026
tp2027
bag2
(g3
(I0
tp2028
g5
tp2029
Rp2030
(I1
(I1
tp2031
g12
I00
S'H\xbc\x9cG\xbc\xc1v@'
p2032
tp2033
bag2
(g3
(I0
tp2034
g5
tp2035
Rp2036
(I1
(I1
tp2037
g12
I00
S'\xdc\x13\x15\x9fP\xbdv@'
p2038
tp2039
bag2
(g3
(I0
tp2040
g5
tp2041
Rp2042
(I1
(I1
tp2043
g12
I00
S'\xaa^\x8dff\xb8v@'
p2044
tp2045
bag2
(g3
(I0
tp2046
g5
tp2047
Rp2048
(I1
(I1
tp2049
g12
I00
S'\xa7\xb0CU\n\xb3v@'
p2050
tp2051
bag2
(g3
(I0
tp2052
g5
tp2053
Rp2054
(I1
(I1
tp2055
g12
I00
S'\x0e\xbd\xb5p$\xacv@'
p2056
tp2057
bag2
(g3
(I0
tp2058
g5
tp2059
Rp2060
(I1
(I1
tp2061
g12
I00
S'\xc0\x13\x1d\\\x17\xa5v@'
p2062
tp2063
bag2
(g3
(I0
tp2064
g5
tp2065
Rp2066
(I1
(I1
tp2067
g12
I00
S'\xa4,b\xc8\xb0\x9cv@'
p2068
tp2069
bag2
(g3
(I0
tp2070
g5
tp2071
Rp2072
(I1
(I1
tp2073
g12
I00
S'\x18\xa8\xc9\xc8^\x94v@'
p2074
tp2075
bag2
(g3
(I0
tp2076
g5
tp2077
Rp2078
(I1
(I1
tp2079
g12
I00
S'\x80X\xd9I\xfe\x8bv@'
p2080
tp2081
bag2
(g3
(I0
tp2082
g5
tp2083
Rp2084
(I1
(I1
tp2085
g12
I00
S'7\n\x9c\xbdD\x82v@'
p2086
tp2087
bag2
(g3
(I0
tp2088
g5
tp2089
Rp2090
(I1
(I1
tp2091
g12
I00
S'\xe9\xae\x89\xc9\xb4xv@'
p2092
tp2093
bag2
(g3
(I0
tp2094
g5
tp2095
Rp2096
(I1
(I1
tp2097
g12
I00
S'\xda\x98\xba\x86\xf2mv@'
p2098
tp2099
bag2
(g3
(I0
tp2100
g5
tp2101
Rp2102
(I1
(I1
tp2103
g12
I00
S'P\t\x8f\xad\x82cv@'
p2104
tp2105
bag2
(g3
(I0
tp2106
g5
tp2107
Rp2108
(I1
(I1
tp2109
g12
I00
S'2u\xe1aWYv@'
p2110
tp2111
bag2
(g3
(I0
tp2112
g5
tp2113
Rp2114
(I1
(I1
tp2115
g12
I00
S'\xa8\xe2R\x0e\xe1Mv@'
p2116
tp2117
bag2
(g3
(I0
tp2118
g5
tp2119
Rp2120
(I1
(I1
tp2121
g12
I00
S'\xc9\xea7r\xc7Bv@'
p2122
tp2123
bag2
(g3
(I0
tp2124
g5
tp2125
Rp2126
(I1
(I1
tp2127
g12
I00
S'\t\xe4\x9e\xd7\x068v@'
p2128
tp2129
bag2
(g3
(I0
tp2130
g5
tp2131
Rp2132
(I1
(I1
tp2133
g12
I00
S'Kr\x95\xed\xe7+v@'
p2134
tp2135
bag2
(g3
(I0
tp2136
g5
tp2137
Rp2138
(I1
(I1
tp2139
g12
I00
S'\x02\xdaT\xb1Q"v@'
p2140
tp2141
bag2
(g3
(I0
tp2142
g5
tp2143
Rp2144
(I1
(I1
tp2145
g12
I00
S'\x15\xf2x\x11g\x19v@'
p2146
tp2147
bag2
(g3
(I0
tp2148
g5
tp2149
Rp2150
(I1
(I1
tp2151
g12
I00
S'\xd1Sr\xff\xf2\x12v@'
p2152
tp2153
bag2
(g3
(I0
tp2154
g5
tp2155
Rp2156
(I1
(I1
tp2157
g12
I00
S'\xa7f\x85\\\t\rv@'
p2158
tp2159
bag2
(g3
(I0
tp2160
g5
tp2161
Rp2162
(I1
(I1
tp2163
g12
I00
S'\x10wl!\xa4\x07v@'
p2164
tp2165
bag2
(g3
(I0
tp2166
g5
tp2167
Rp2168
(I1
(I1
tp2169
g12
I00
S'\x1e\xfd#)|\x04v@'
p2170
tp2171
bag2
(g3
(I0
tp2172
g5
tp2173
Rp2174
(I1
(I1
tp2175
g12
I00
S'\xcc\xeb\xe1\x85\xb6\x01v@'
p2176
tp2177
bag2
(g3
(I0
tp2178
g5
tp2179
Rp2180
(I1
(I1
tp2181
g12
I00
S'\x98\xdaL\xebg\xfdu@'
p2182
tp2183
bag2
(g3
(I0
tp2184
g5
tp2185
Rp2186
(I1
(I1
tp2187
g12
I00
S'-p\xaf\xba\xa2\xf9u@'
p2188
tp2189
bag2
(g3
(I0
tp2190
g5
tp2191
Rp2192
(I1
(I1
tp2193
g12
I00
S'\x97\xa2\x8b\x11V\xf6u@'
p2194
tp2195
bag2
(g3
(I0
tp2196
g5
tp2197
Rp2198
(I1
(I1
tp2199
g12
I00
S'\xbf\xba\xb5i\xa8\xf4u@'
p2200
tp2201
bag2
(g3
(I0
tp2202
g5
tp2203
Rp2204
(I1
(I1
tp2205
g12
I00
S'\xd8-\xa5}\x8a\xf4u@'
p2206
tp2207
bag2
(g3
(I0
tp2208
g5
tp2209
Rp2210
(I1
(I1
tp2211
g12
I00
S'E;>\xf6}\xf7u@'
p2212
tp2213
bag2
(g3
(I0
tp2214
g5
tp2215
Rp2216
(I1
(I1
tp2217
g12
I00
S'F\xa6pk\xd2\xfau@'
p2218
tp2219
bag2
(g3
(I0
tp2220
g5
tp2221
Rp2222
(I1
(I1
tp2223
g12
I00
S'\xab\xb6\x93k\xa4\xfeu@'
p2224
tp2225
bag2
(g3
(I0
tp2226
g5
tp2227
Rp2228
(I1
(I1
tp2229
g12
I00
S'\xfe\xf9\x03]\xf8\x02v@'
p2230
tp2231
bag2
(g3
(I0
tp2232
g5
tp2233
Rp2234
(I1
(I1
tp2235
g12
I00
S's\x17\xec&\xef\x07v@'
p2236
tp2237
bag2
(g3
(I0
tp2238
g5
tp2239
Rp2240
(I1
(I1
tp2241
g12
I00
S'\xc4{+\xc9\x93\rv@'
p2242
tp2243
bag2
(g3
(I0
tp2244
g5
tp2245
Rp2246
(I1
(I1
tp2247
g12
I00
S'q_\xab\x90\xf7\x13v@'
p2248
tp2249
bag2
(g3
(I0
tp2250
g5
tp2251
Rp2252
(I1
(I1
tp2253
g12
I00
S'\x9b\x1f\xe2I\xf9\x1cv@'
p2254
tp2255
bag2
(g3
(I0
tp2256
g5
tp2257
Rp2258
(I1
(I1
tp2259
g12
I00
S'r\xb6\xc5A/(v@'
p2260
tp2261
bag2
(g3
(I0
tp2262
g5
tp2263
Rp2264
(I1
(I1
tp2265
g12
I00
S'hK\xe5>\x0b5v@'
p2266
tp2267
bag2
(g3
(I0
tp2268
g5
tp2269
Rp2270
(I1
(I1
tp2271
g12
I00
S'\xa39\x8fm*Cv@'
p2272
tp2273
bag2
(g3
(I0
tp2274
g5
tp2275
Rp2276
(I1
(I1
tp2277
g12
I00
S'\x92\x00\xc6BPRv@'
p2278
tp2279
bag2
(g3
(I0
tp2280
g5
tp2281
Rp2282
(I1
(I1
tp2283
g12
I00
S'\xdb\xc9f8Sbv@'
p2284
tp2285
bag2
(g3
(I0
tp2286
g5
tp2287
Rp2288
(I1
(I1
tp2289
g12
I00
S';\x11\xde>\xaerv@'
p2290
tp2291
bag2
(g3
(I0
tp2292
g5
tp2293
Rp2294
(I1
(I1
tp2295
g12
I00
S'\x12\x0b<\x9a\xc7\x82v@'
p2296
tp2297
bag2
(g3
(I0
tp2298
g5
tp2299
Rp2300
(I1
(I1
tp2301
g12
I00
S'x\x98\xde\x1aa\x92v@'
p2302
tp2303
bag2
(g3
(I0
tp2304
g5
tp2305
Rp2306
(I1
(I1
tp2307
g12
I00
S'\x1d!d\x96f\xa1v@'
p2308
tp2309
bag2
(g3
(I0
tp2310
g5
tp2311
Rp2312
(I1
(I1
tp2313
g12
I00
S'\x9fGv.\xcf\xafv@'
p2314
tp2315
bag2
(g3
(I0
tp2316
g5
tp2317
Rp2318
(I1
(I1
tp2319
g12
I00
S'\xb1\xf3\xe9\x91\x94\xbdv@'
p2320
tp2321
bag2
(g3
(I0
tp2322
g5
tp2323
Rp2324
(I1
(I1
tp2325
g12
I00
S'\xaf\xa8Y\xe5\xb0\xcav@'
p2326
tp2327
bag2
(g3
(I0
tp2328
g5
tp2329
Rp2330
(I1
(I1
tp2331
g12
I00
S'd\x9f\x18\x8fP\xd7v@'
p2332
tp2333
bag2
(g3
(I0
tp2334
g5
tp2335
Rp2336
(I1
(I1
tp2337
g12
I00
S'\xf3B\x02\xe7\xb1\xe3v@'
p2338
tp2339
bag2
(g3
(I0
tp2340
g5
tp2341
Rp2342
(I1
(I1
tp2343
g12
I00
S'8=1f\xfe\xefv@'
p2344
tp2345
bag2
(g3
(I0
tp2346
g5
tp2347
Rp2348
(I1
(I1
tp2349
g12
I00
S'\x88\xb4>\x11\x05\xfcv@'
p2350
tp2351
bag2
(g3
(I0
tp2352
g5
tp2353
Rp2354
(I1
(I1
tp2355
g12
I00
S'=U\xae\xf0\xb7\x07w@'
p2356
tp2357
bag2
(g3
(I0
tp2358
g5
tp2359
Rp2360
(I1
(I1
tp2361
g12
I00
S'<\x8a\x8fY\x11\x13w@'
p2362
tp2363
bag2
(g3
(I0
tp2364
g5
tp2365
Rp2366
(I1
(I1
tp2367
g12
I00
S'Z\xa89\x16\x08\x1ew@'
p2368
tp2369
bag2
(g3
(I0
tp2370
g5
tp2371
Rp2372
(I1
(I1
tp2373
g12
I00
S'\x11H\xf75\x8f(w@'
p2374
tp2375
bag2
(g3
(I0
tp2376
g5
tp2377
Rp2378
(I1
(I1
tp2379
g12
I00
S'V\xbb\x0e6\x032w@'
p2380
tp2381
bag2
(g3
(I0
tp2382
g5
tp2383
Rp2384
(I1
(I1
tp2385
g12
I00
S'\x84\x0f\xf3\x93_:w@'
p2386
tp2387
bag2
(g3
(I0
tp2388
g5
tp2389
Rp2390
(I1
(I1
tp2391
g12
I00
S'\x82\t\x02\xed\xeaAw@'
p2392
tp2393
bag2
(g3
(I0
tp2394
g5
tp2395
Rp2396
(I1
(I1
tp2397
g12
I00
S'\x0c N\xc1\xddHw@'
p2398
tp2399
bag2
(g3
(I0
tp2400
g5
tp2401
Rp2402
(I1
(I1
tp2403
g12
I00
S'g4\xf7\xddAOw@'
p2404
tp2405
bag2
(g3
(I0
tp2406
g5
tp2407
Rp2408
(I1
(I1
tp2409
g12
I00
S'\x94\x12s\xefHSw@'
p2410
tp2411
bag2
(g3
(I0
tp2412
g5
tp2413
Rp2414
(I1
(I1
tp2415
g12
I00
S'\x11!\x7f\x13\xf9Vw@'
p2416
tp2417
bag2
(g3
(I0
tp2418
g5
tp2419
Rp2420
(I1
(I1
tp2421
g12
I00
S'2\xf9C!XZw@'
p2422
tp2423
bag2
(g3
(I0
tp2424
g5
tp2425
Rp2426
(I1
(I1
tp2427
g12
I00
S'\xb2\nC\x89f]w@'
p2428
tp2429
bag2
(g3
(I0
tp2430
g5
tp2431
Rp2432
(I1
(I1
tp2433
g12
I00
S'V\x058\xc4 `w@'
p2434
tp2435
bag2
(g3
(I0
tp2436
g5
tp2437
Rp2438
(I1
(I1
tp2439
g12
I00
S'r \x9d=\x7fbw@'
p2440
tp2441
bag2
(g3
(I0
tp2442
g5
tp2443
Rp2444
(I1
(I1
tp2445
g12
I00
S'!5\xc9.Odw@'
p2446
tp2447
bag2
(g3
(I0
tp2448
g5
tp2449
Rp2450
(I1
(I1
tp2451
g12
I00
S'\xd62\xeck\xbbew@'
p2452
tp2453
bag2
(g3
(I0
tp2454
g5
tp2455
Rp2456
(I1
(I1
tp2457
g12
I00
S'n\xa3\xa2\x9e\xb3fw@'
p2458
tp2459
bag2
(g3
(I0
tp2460
g5
tp2461
Rp2462
(I1
(I1
tp2463
g12
I00
S'd{V\xd8>gw@'
p2464
tp2465
bag2
(g3
(I0
tp2466
g5
tp2467
Rp2468
(I1
(I1
tp2469
g12
I00
S'\\D\xe1\xaf=jw@'
p2470
tp2471
bag2
(g3
(I0
tp2472
g5
tp2473
Rp2474
(I1
(I1
tp2475
g12
I00
S'\xd2\xa0\xdf\xad\\lw@'
p2476
tp2477
bag2
(g3
(I0
tp2478
g5
tp2479
Rp2480
(I1
(I1
tp2481
g12
I00
S'\x89\x92\xba\xa5\xc0mw@'
p2482
tp2483
bag2
(g3
(I0
tp2484
g5
tp2485
Rp2486
(I1
(I1
tp2487
g12
I00
S'\x81Z\x1b\xf9\xbfnw@'
p2488
tp2489
bag2
(g3
(I0
tp2490
g5
tp2491
Rp2492
(I1
(I1
tp2493
g12
I00
S'V\x13!n\x9crw@'
p2494
tp2495
bag2
(g3
(I0
tp2496
g5
tp2497
Rp2498
(I1
(I1
tp2499
g12
I00
S'<\x83\x1b\xe7jyw@'
p2500
tp2501
bag2
(g3
(I0
tp2502
g5
tp2503
Rp2504
(I1
(I1
tp2505
g12
I00
S'\xde\xd7\xc5\xb5\x88\x7fw@'
p2506
tp2507
bag2
(g3
(I0
tp2508
g5
tp2509
Rp2510
(I1
(I1
tp2511
g12
I00
S'\x9e\xd6\xab/\xe0\x84w@'
p2512
tp2513
bag2
(g3
(I0
tp2514
g5
tp2515
Rp2516
(I1
(I1
tp2517
g12
I00
S'H\xc9 \xa9\x8c\x89w@'
p2518
tp2519
bag2
(g3
(I0
tp2520
g5
tp2521
Rp2522
(I1
(I1
tp2523
g12
I00
S'\xc4\xd5tP\x94\x8dw@'
p2524
tp2525
bag2
(g3
(I0
tp2526
g5
tp2527
Rp2528
(I1
(I1
tp2529
g12
I00
S'\xd4\x180n\xd3\x90w@'
p2530
tp2531
bag2
(g3
(I0
tp2532
g5
tp2533
Rp2534
(I1
(I1
tp2535
g12
I00
S'v"\xd6K)\x93w@'
p2536
tp2537
bag2
(g3
(I0
tp2538
g5
tp2539
Rp2540
(I1
(I1
tp2541
g12
I00
S'\xcb\x1b@\xde\x94\x94w@'
p2542
tp2543
bag2
(g3
(I0
tp2544
g5
tp2545
Rp2546
(I1
(I1
tp2547
g12
I00
S'x\xd6\xa9\x1a\xdb\x94w@'
p2548
tp2549
bag2
(g3
(I0
tp2550
g5
tp2551
Rp2552
(I1
(I1
tp2553
g12
I00
S'\xed\xa6m\xc0I\x94w@'
p2554
tp2555
bag2
(g3
(I0
tp2556
g5
tp2557
Rp2558
(I1
(I1
tp2559
g12
I00
S'\x8e\xf6\xc8d\x18\x93w@'
p2560
tp2561
bag2
(g3
(I0
tp2562
g5
tp2563
Rp2564
(I1
(I1
tp2565
g12
I00
S'\xd4!a9h\x91w@'
p2566
tp2567
bag2
(g3
(I0
tp2568
g5
tp2569
Rp2570
(I1
(I1
tp2571
g12
I00
S'\xbcb\xe7\x1eG\x8fw@'
p2572
tp2573
bag2
(g3
(I0
tp2574
g5
tp2575
Rp2576
(I1
(I1
tp2577
g12
I00
S'\xe3\x87\x98~\xbb\x8cw@'
p2578
tp2579
bag2
(g3
(I0
tp2580
g5
tp2581
Rp2582
(I1
(I1
tp2583
g12
I00
S'\xa4\xff\xbf\x84T\x8dw@'
p2584
tp2585
bag2
(g3
(I0
tp2586
g5
tp2587
Rp2588
(I1
(I1
tp2589
g12
I00
S't\xc6C\x80\xe6\x90w@'
p2590
tp2591
bag2
(g3
(I0
tp2592
g5
tp2593
Rp2594
(I1
(I1
tp2595
g12
I00
S'\x0e\to\xa2\xe7\x97w@'
p2596
tp2597
bag2
(g3
(I0
tp2598
g5
tp2599
Rp2600
(I1
(I1
tp2601
g12
I00
S'N\xb2\xc8\xddt\xa2w@'
p2602
tp2603
bag2
(g3
(I0
tp2604
g5
tp2605
Rp2606
(I1
(I1
tp2607
g12
I00
S"\x91'\xc4\xbc\x91\xabw@"
p2608
tp2609
bag2
(g3
(I0
tp2610
g5
tp2611
Rp2612
(I1
(I1
tp2613
g12
I00
S'\xcc\xf4\x96%A\xb3w@'
p2614
tp2615
bag2
(g3
(I0
tp2616
g5
tp2617
Rp2618
(I1
(I1
tp2619
g12
I00
S'p\xe7\xef\xa2Y\xb9w@'
p2620
tp2621
bag2
(g3
(I0
tp2622
g5
tp2623
Rp2624
(I1
(I1
tp2625
g12
I00
S'H<\x92\xc0\xba\xbdw@'
p2626
tp2627
bag2
(g3
(I0
tp2628
g5
tp2629
Rp2630
(I1
(I1
tp2631
g12
I00
S'\xd1\xce\xf9\xd8\x95\xc0w@'
p2632
tp2633
bag2
(g3
(I0
tp2634
g5
tp2635
Rp2636
(I1
(I1
tp2637
g12
I00
S't\xd2CsH\xc2w@'
p2638
tp2639
bag2
(g3
(I0
tp2640
g5
tp2641
Rp2642
(I1
(I1
tp2643
g12
I00
S'\xe1\x9d0h\x18\xc3w@'
p2644
tp2645
bag2
(g3
(I0
tp2646
g5
tp2647
Rp2648
(I1
(I1
tp2649
g12
I00
S'<\x93=\x82\xfb\xc2w@'
p2650
tp2651
bag2
(g3
(I0
tp2652
g5
tp2653
Rp2654
(I1
(I1
tp2655
g12
I00
S'>\x12B\x82\x1e\xc2w@'
p2656
tp2657
bag2
(g3
(I0
tp2658
g5
tp2659
Rp2660
(I1
(I1
tp2661
g12
I00
S't4\xfe\t\xa1\xc0w@'
p2662
tp2663
bag2
(g3
(I0
tp2664
g5
tp2665
Rp2666
(I1
(I1
tp2667
g12
I00
S'fu\x0cY\x8c\xbew@'
p2668
tp2669
bag2
(g3
(I0
tp2670
g5
tp2671
Rp2672
(I1
(I1
tp2673
g12
I00
S'\x9d\xbdR\x11\xe0\xbbw@'
p2674
tp2675
bag2
(g3
(I0
tp2676
g5
tp2677
Rp2678
(I1
(I1
tp2679
g12
I00
S'\x9b\x04\rW\xec\xbcw@'
p2680
tp2681
bag2
(g3
(I0
tp2682
g5
tp2683
Rp2684
(I1
(I1
tp2685
g12
I00
S'\x97\xd6\x9f\n5\xbcw@'
p2686
tp2687
bag2
(g3
(I0
tp2688
g5
tp2689
Rp2690
(I1
(I1
tp2691
g12
I00
S't4J\xe6\x17\xbfw@'
p2692
tp2693
bag2
(g3
(I0
tp2694
g5
tp2695
Rp2696
(I1
(I1
tp2697
g12
I00
S'p\xaf\x14D\xbd\xc5w@'
p2698
tp2699
bag2
(g3
(I0
tp2700
g5
tp2701
Rp2702
(I1
(I1
tp2703
g12
I00
S'\xba\x8f\x84\xf1\x1c\xcaw@'
p2704
tp2705
bag2
(g3
(I0
tp2706
g5
tp2707
Rp2708
(I1
(I1
tp2709
g12
I00
S'zt\x93\xd7\x15\xd2w@'
p2710
tp2711
bag2
(g3
(I0
tp2712
g5
tp2713
Rp2714
(I1
(I1
tp2715
g12
I00
S'\xc2\xadM\x8c\t\xdew@'
p2716
tp2717
bag2
(g3
(I0
tp2718
g5
tp2719
Rp2720
(I1
(I1
tp2721
g12
I00
S'\xffL\x16\xef\x96\xe7w@'
p2722
tp2723
bag2
(g3
(I0
tp2724
g5
tp2725
Rp2726
(I1
(I1
tp2727
g12
I00
S'X=\xc6z\xda\xf4w@'
p2728
tp2729
bag2
(g3
(I0
tp2730
g5
tp2731
Rp2732
(I1
(I1
tp2733
g12
I00
S'\x06\xa4\x0c\x10\xe7\x05x@'
p2734
tp2735
bag2
(g3
(I0
tp2736
g5
tp2737
Rp2738
(I1
(I1
tp2739
g12
I00
S'\xc5\x9c\x11\xd7\xc8\x1ax@'
p2740
tp2741
bag2
(g3
(I0
tp2742
g5
tp2743
Rp2744
(I1
(I1
tp2745
g12
I00
S')\x19\xd3\x10\xe53x@'
p2746
tp2747
bag2
(g3
(I0
tp2748
g5
tp2749
Rp2750
(I1
(I1
tp2751
g12
I00
S'\xe2\xf9K\xe6\xa8Jx@'
p2752
tp2753
bag2
(g3
(I0
tp2754
g5
tp2755
Rp2756
(I1
(I1
tp2757
g12
I00
S'H\x06=\x11\xa8^x@'
p2758
tp2759
bag2
(g3
(I0
tp2760
g5
tp2761
Rp2762
(I1
(I1
tp2763
g12
I00
S'\x08\xf1\xcc\xb9\xb9ox@'
p2764
tp2765
bag2
(g3
(I0
tp2766
g5
tp2767
Rp2768
(I1
(I1
tp2769
g12
I00
S'\x9f\xae\xb2\x07\xda}x@'
p2770
tp2771
bag2
(g3
(I0
tp2772
g5
tp2773
Rp2774
(I1
(I1
tp2775
g12
I00
S'\xdbl\x88\xdc\x1d\x89x@'
p2776
tp2777
bag2
(g3
(I0
tp2778
g5
tp2779
Rp2780
(I1
(I1
tp2781
g12
I00
S'\x82\x1bg\xb9\xaa\x91x@'
p2782
tp2783
bag2
(g3
(I0
tp2784
g5
tp2785
Rp2786
(I1
(I1
tp2787
g12
I00
S':`XZ\xe8\x97x@'
p2788
tp2789
bag2
(g3
(I0
tp2790
g5
tp2791
Rp2792
(I1
(I1
tp2793
g12
I00
S'\xedF\xbc\x9c\x18\x9cx@'
p2794
tp2795
bag2
(g3
(I0
tp2796
g5
tp2797
Rp2798
(I1
(I1
tp2799
g12
I00
S'P\xb6\xfcV[\x9ex@'
p2800
tp2801
bag2
(g3
(I0
tp2802
g5
tp2803
Rp2804
(I1
(I1
tp2805
g12
I00
S"\xfe|\xbd\x98'\xa5x@"
p2806
tp2807
bag2
(g3
(I0
tp2808
g5
tp2809
Rp2810
(I1
(I1
tp2811
g12
I00
S'\xae{\xc1\xb3a\xa9x@'
p2812
tp2813
bag2
(g3
(I0
tp2814
g5
tp2815
Rp2816
(I1
(I1
tp2817
g12
I00
S'\x1bh\xcb\xe1\x7f\xabx@'
p2818
tp2819
bag2
(g3
(I0
tp2820
g5
tp2821
Rp2822
(I1
(I1
tp2823
g12
I00
S'*\xeb\x81T9\xb2x@'
p2824
tp2825
bag2
(g3
(I0
tp2826
g5
tp2827
Rp2828
(I1
(I1
tp2829
g12
I00
S'\x95d\xd9\xfd2\xb6x@'
p2830
tp2831
bag2
(g3
(I0
tp2832
g5
tp2833
Rp2834
(I1
(I1
tp2835
g12
I00
S'\xde\x81\xfc\tt\xbex@'
p2836
tp2837
bag2
(g3
(I0
tp2838
g5
tp2839
Rp2840
(I1
(I1
tp2841
g12
I00
S'uW\xaa\x01+\xcbx@'
p2842
tp2843
bag2
(g3
(I0
tp2844
g5
tp2845
Rp2846
(I1
(I1
tp2847
g12
I00
S'\xdb\xae\t\x16\xad\xd4x@'
p2848
tp2849
bag2
(g3
(I0
tp2850
g5
tp2851
Rp2852
(I1
(I1
tp2853
g12
I00
S'\xf5u\x07%\x1c\xdbx@'
p2854
tp2855
bag2
(g3
(I0
tp2856
g5
tp2857
Rp2858
(I1
(I1
tp2859
g12
I00
S']@c\xf9\xf9\xe5x@'
p2860
tp2861
bag2
(g3
(I0
tp2862
g5
tp2863
Rp2864
(I1
(I1
tp2865
g12
I00
S'M\xd1\xae\xdb\xd2\xf4x@'
p2866
tp2867
bag2
(g3
(I0
tp2868
g5
tp2869
Rp2870
(I1
(I1
tp2871
g12
I00
S't6&]>\x00y@'
p2872
tp2873
bag2
(g3
(I0
tp2874
g5
tp2875
Rp2876
(I1
(I1
tp2877
g12
I00
S'\xdc\xc1\x8cM5\x08y@'
p2878
tp2879
bag2
(g3
(I0
tp2880
g5
tp2881
Rp2882
(I1
(I1
tp2883
g12
I00
S'?{\x16\x1b\x94\x14y@'
p2884
tp2885
bag2
(g3
(I0
tp2886
g5
tp2887
Rp2888
(I1
(I1
tp2889
g12
I00
S'\xfe\xd4-\xc0?\x1dy@'
p2890
tp2891
bag2
(g3
(I0
tp2892
g5
tp2893
Rp2894
(I1
(I1
tp2895
g12
I00
S'\xf8}\xd7\xdaa*y@'
p2896
tp2897
bag2
(g3
(I0
tp2898
g5
tp2899
Rp2900
(I1
(I1
tp2901
g12
I00
S'\xd7\t\xcc\xe8\xa43y@'
p2902
tp2903
bag2
(g3
(I0
tp2904
g5
tp2905
Rp2906
(I1
(I1
tp2907
g12
I00
S'\xb2\xbf\x8d\xa0iAy@'
p2908
tp2909
bag2
(g3
(I0
tp2910
g5
tp2911
Rp2912
(I1
(I1
tp2913
g12
I00
S'\xc0\xd5\xc6fCKy@'
p2914
tp2915
bag2
(g3
(I0
tp2916
g5
tp2917
Rp2918
(I1
(I1
tp2919
g12
I00
S';m\xbc\t\x8cYy@'
p2920
tp2921
bag2
(g3
(I0
tp2922
g5
tp2923
Rp2924
(I1
(I1
tp2925
g12
I00
S'\xeent\xd5\xedcy@'
p2926
tp2927
bag2
(g3
(I0
tp2928
g5
tp2929
Rp2930
(I1
(I1
tp2931
g12
I00
S'\x02\xd7\xe5\xbehjy@'
p2932
tp2933
bag2
(g3
(I0
tp2934
g5
tp2935
Rp2936
(I1
(I1
tp2937
g12
I00
S'h\x7f\xde\xa9\x8cuy@'
p2938
tp2939
bag2
(g3
(I0
tp2940
g5
tp2941
Rp2942
(I1
(I1
tp2943
g12
I00
S'D\x9f\xca\x8e\x0c}y@'
p2944
tp2945
bag2
(g3
(I0
tp2946
g5
tp2947
Rp2948
(I1
(I1
tp2949
g12
I00
S'\x84\xb7\xb7~\xd9\x80y@'
p2950
tp2951
bag2
(g3
(I0
tp2952
g5
tp2953
Rp2954
(I1
(I1
tp2955
g12
I00
S'\x9a)\xc9\x0e+\x81y@'
p2956
tp2957
bag2
(g3
(I0
tp2958
g5
tp2959
Rp2960
(I1
(I1
tp2961
g12
I00
S'\x1aD\x08J\xe7\x85y@'
p2962
tp2963
bag2
(g3
(I0
tp2964
g5
tp2965
Rp2966
(I1
(I1
tp2967
g12
I00
S'v9z\xba\x9a\x8ey@'
p2968
tp2969
bag2
(g3
(I0
tp2970
g5
tp2971
Rp2972
(I1
(I1
tp2973
g12
I00
S'\x04q,\x16\xee\x9ay@'
p2974
tp2975
bag2
(g3
(I0
tp2976
g5
tp2977
Rp2978
(I1
(I1
tp2979
g12
I00
S'l\xeby\x9f\x85\xaby@'
p2980
tp2981
bag2
(g3
(I0
tp2982
g5
tp2983
Rp2984
(I1
(I1
tp2985
g12
I00
S'U\xbe\xb7JX\xbfy@'
p2986
tp2987
bag2
(g3
(I0
tp2988
g5
tp2989
Rp2990
(I1
(I1
tp2991
g12
I00
S'\xe5\xc8\x04i;\xcfy@'
p2992
tp2993
bag2
(g3
(I0
tp2994
g5
tp2995
Rp2996
(I1
(I1
tp2997
g12
I00
S'\t\xf2\x8f\\^\xe3y@'
p2998
tp2999
bag2
(g3
(I0
tp3000
g5
tp3001
Rp3002
(I1
(I1
tp3003
g12
I00
S'\xd9\x1c\x92\xc2\x07\xf3y@'
p3004
tp3005
bag2
(g3
(I0
tp3006
g5
tp3007
Rp3008
(I1
(I1
tp3009
g12
I00
S'I\x07w\x9d\xf8\xfey@'
p3010
tp3011
bag2
(g3
(I0
tp3012
g5
tp3013
Rp3014
(I1
(I1
tp3015
g12
I00
S"'/\xc9\x9b$\x07z@"
p3016
tp3017
bag2
(g3
(I0
tp3018
g5
tp3019
Rp3020
(I1
(I1
tp3021
g12
I00
S'\xce\xe1\x04F\xe7\nz@'
p3022
tp3023
bag2
(g3
(I0
tp3024
g5
tp3025
Rp3026
(I1
(I1
tp3027
g12
I00
S' \x87\xa68\x8a\x13z@'
p3028
tp3029
bag2
(g3
(I0
tp3030
g5
tp3031
Rp3032
(I1
(I1
tp3033
g12
I00
S'\xbb\xdd\xb7\xb9M\x18z@'
p3034
tp3035
bag2
(g3
(I0
tp3036
g5
tp3037
Rp3038
(I1
(I1
tp3039
g12
I00
S'\xefV\xd0o\xba\x18z@'
p3040
tp3041
bag2
(g3
(I0
tp3042
g5
tp3043
Rp3044
(I1
(I1
tp3045
g12
I00
S'\x86B\xef\x14d\x1ez@'
p3046
tp3047
bag2
(g3
(I0
tp3048
g5
tp3049
Rp3050
(I1
(I1
tp3051
g12
I00
S'\xd1%\xaf\x7f\xdb(z@'
p3052
tp3053
bag2
(g3
(I0
tp3054
g5
tp3055
Rp3056
(I1
(I1
tp3057
g12
I00
S'EL\x9f\xdf[7z@'
p3058
tp3059
bag2
(g3
(I0
tp3060
g5
tp3061
Rp3062
(I1
(I1
tp3063
g12
I00
S'\x1a\xac\xf1\x10`Az@'
p3064
tp3065
bag2
(g3
(I0
tp3066
g5
tp3067
Rp3068
(I1
(I1
tp3069
g12
I00
S'&\xd8\x95\xbc\xe3Fz@'
p3070
tp3071
bag2
(g3
(I0
tp3072
g5
tp3073
Rp3074
(I1
(I1
tp3075
g12
I00
S'n\r\xa1\x9b\xd2Gz@'
p3076
tp3077
bag2
(g3
(I0
tp3078
g5
tp3079
Rp3080
(I1
(I1
tp3081
g12
I00
S'n\xb2\xc6$\tMz@'
p3082
tp3083
bag2
(g3
(I0
tp3084
g5
tp3085
Rp3086
(I1
(I1
tp3087
g12
I00
S'\x8e\x00\xece2Vz@'
p3088
tp3089
bag2
(g3
(I0
tp3090
g5
tp3091
Rp3092
(I1
(I1
tp3093
g12
I00
S'\xa6\xaf\x0c\x98\xe5bz@'
p3094
tp3095
bag2
(g3
(I0
tp3096
g5
tp3097
Rp3098
(I1
(I1
tp3099
g12
I00
S'\x0cv\xda8?jz@'
p3100
tp3101
bag2
(g3
(I0
tp3102
g5
tp3103
Rp3104
(I1
(I1
tp3105
g12
I00
S'o\x8c\xc4\xcb\xdftz@'
p3106
tp3107
bag2
(g3
(I0
tp3108
g5
tp3109
Rp3110
(I1
(I1
tp3111
g12
I00
S'\x8e\xc6\xe7{\xd5\x83z@'
p3112
tp3113
bag2
(g3
(I0
tp3114
g5
tp3115
Rp3116
(I1
(I1
tp3117
g12
I00
S'$JQs\x1c\x97z@'
p3118
tp3119
bag2
(g3
(I0
tp3120
g5
tp3121
Rp3122
(I1
(I1
tp3123
g12
I00
S'&\xcc+\xf8!\xa5z@'
p3124
tp3125
bag2
(g3
(I0
tp3126
g5
tp3127
Rp3128
(I1
(I1
tp3129
g12
I00
S'\xf8\xc8\x18\x8e\x0e\xafz@'
p3130
tp3131
bag2
(g3
(I0
tp3132
g5
tp3133
Rp3134
(I1
(I1
tp3135
g12
I00
S'\xa7\xe9\x1bh\xd8\xb4z@'
p3136
tp3137
bag2
(g3
(I0
tp3138
g5
tp3139
Rp3140
(I1
(I1
tp3141
g12
I00
S'u\x84s\xa9\xdc\xbez@'
p3142
tp3143
bag2
(g3
(I0
tp3144
g5
tp3145
Rp3146
(I1
(I1
tp3147
g12
I00
S'.\x94Wp\xae\xccz@'
p3148
tp3149
bag2
(g3
(I0
tp3150
g5
tp3151
Rp3152
(I1
(I1
tp3153
g12
I00
S'\xabe\xb3\xe3\x0b\xd5z@'
p3154
tp3155
bag2
(g3
(I0
tp3156
g5
tp3157
Rp3158
(I1
(I1
tp3159
g12
I00
S'\xb84\xcf\xcf\xb2\xe0z@'
p3160
tp3161
bag2
(g3
(I0
tp3162
g5
tp3163
Rp3164
(I1
(I1
tp3165
g12
I00
S'!`\xc0\xd1.\xefz@'
p3166
tp3167
bag2
(g3
(I0
tp3168
g5
tp3169
Rp3170
(I1
(I1
tp3171
g12
I00
S'\x1d\x82U\xd1\x07\x00{@'
p3172
tp3173
bag2
(g3
(I0
tp3174
g5
tp3175
Rp3176
(I1
(I1
tp3177
g12
I00
S'1\x06\x84\xc6\xd6\x14{@'
p3178
tp3179
bag2
(g3
(I0
tp3180
g5
tp3181
Rp3182
(I1
(I1
tp3183
g12
I00
S'\xaf\xad\x8d\x1fK%{@'
p3184
tp3185
bag2
(g3
(I0
tp3186
g5
tp3187
Rp3188
(I1
(I1
tp3189
g12
I00
S'\x80\x8dkuh1{@'
p3190
tp3191
bag2
(g3
(I0
tp3192
g5
tp3193
Rp3194
(I1
(I1
tp3195
g12
I00
S'\x97\x1e\xa93C9{@'
p3196
tp3197
bag2
(g3
(I0
tp3198
g5
tp3199
Rp3200
(I1
(I1
tp3201
g12
I00
S'\x1d|\x06\x17\xd5<{@'
p3202
tp3203
bag2
(g3
(I0
tp3204
g5
tp3205
Rp3206
(I1
(I1
tp3207
g12
I00
S'\x1d6\xda\x05\xc7E{@'
p3208
tp3209
bag2
(g3
(I0
tp3210
g5
tp3211
Rp3212
(I1
(I1
tp3213
g12
I00
S"z'b=tJ{@"
p3214
tp3215
bag2
(g3
(I0
tp3216
g5
tp3217
Rp3218
(I1
(I1
tp3219
g12
I00
S'\xf0\x92\x0f|\xd9J{@'
p3220
tp3221
bag2
(g3
(I0
tp3222
g5
tp3223
Rp3224
(I1
(I1
tp3225
g12
I00
S'<\xf3n\xf15F{@'
p3226
tp3227
bag2
(g3
(I0
tp3228
g5
tp3229
Rp3230
(I1
(I1
tp3231
g12
I00
S'\xa1\xa1\xb6h~<{@'
p3232
tp3233
bag2
(g3
(I0
tp3234
g5
tp3235
Rp3236
(I1
(I1
tp3237
g12
I00
S'\x18%.\x9a\xab-{@'
p3238
tp3239
bag2
(g3
(I0
tp3240
g5
tp3241
Rp3242
(I1
(I1
tp3243
g12
I00
S"'g,\xd7e#{@"
p3244
tp3245
bag2
(g3
(I0
tp3246
g5
tp3247
Rp3248
(I1
(I1
tp3249
g12
I00
S'\x06)\x12\xa2L\x1d{@'
p3250
tp3251
bag2
(g3
(I0
tp3252
g5
tp3253
Rp3254
(I1
(I1
tp3255
g12
I00
S'\x1a\xd3Y\xc0\x1c\x1b{@'
p3256
tp3257
bag2
(g3
(I0
tp3258
g5
tp3259
Rp3260
(I1
(I1
tp3261
g12
I00
S'\x04\xbeY\xf6o\x1c{@'
p3262
tp3263
bag2
(g3
(I0
tp3264
g5
tp3265
Rp3266
(I1
(I1
tp3267
g12
I00
S'M\xc1\x06\xd0\xe8 {@'
p3268
tp3269
bag2
(g3
(I0
tp3270
g5
tp3271
Rp3272
(I1
(I1
tp3273
g12
I00
S'\x85:\xca\xa5+({@'
p3274
tp3275
bag2
(g3
(I0
tp3276
g5
tp3277
Rp3278
(I1
(I1
tp3279
g12
I00
S'\xc0\x92\x85\xe0\xf01{@'
p3280
tp3281
bag2
(g3
(I0
tp3282
g5
tp3283
Rp3284
(I1
(I1
tp3285
g12
I00
S'\x93%\x96}\x01>{@'
p3286
tp3287
bag2
(g3
(I0
tp3288
g5
tp3289
Rp3290
(I1
(I1
tp3291
g12
I00
S'\xf2\x0e,6.L{@'
p3292
tp3293
bag2
(g3
(I0
tp3294
g5
tp3295
Rp3296
(I1
(I1
tp3297
g12
I00
S"\xce\xc1'[J\\{@"
p3298
tp3299
bag2
(g3
(I0
tp3300
g5
tp3301
Rp3302
(I1
(I1
tp3303
g12
I00
S'\xcc\xfe}\xef*n{@'
p3304
tp3305
bag2
(g3
(I0
tp3306
g5
tp3307
Rp3308
(I1
(I1
tp3309
g12
I00
S'h\x9e\xdd\x1f\xa8\x81{@'
p3310
tp3311
bag2
(g3
(I0
tp3312
g5
tp3313
Rp3314
(I1
(I1
tp3315
g12
I00
S'T\xae\xbc6\x97\x96{@'
p3316
tp3317
bag2
(g3
(I0
tp3318
g5
tp3319
Rp3320
(I1
(I1
tp3321
g12
I00
S'M\x01Af\xc0\xac{@'
p3322
tp3323
bag2
(g3
(I0
tp3324
g5
tp3325
Rp3326
(I1
(I1
tp3327
g12
I00
S'_\x1f\xf9\xf94\xc5{@'
p3328
tp3329
bag2
(g3
(I0
tp3330
g5
tp3331
Rp3332
(I1
(I1
tp3333
g12
I00
S'\xaa;\x94\xc3\x1a\xdf{@'
p3334
tp3335
bag2
(g3
(I0
tp3336
g5
tp3337
Rp3338
(I1
(I1
tp3339
g12
I00
S'}E\xed\xd04\xf8{@'
p3340
tp3341
bag2
(g3
(I0
tp3342
g5
tp3343
Rp3344
(I1
(I1
tp3345
g12
I00
S'l\t\xa0\xb3I\x0b|@'
p3346
tp3347
bag2
(g3
(I0
tp3348
g5
tp3349
Rp3350
(I1
(I1
tp3351
g12
I00
S'tZ\xdbS\x99 |@'
p3352
tp3353
bag2
(g3
(I0
tp3354
g5
tp3355
Rp3356
(I1
(I1
tp3357
g12
I00
S'\xb4\xa9\x01(\xf3/|@'
p3358
tp3359
bag2
(g3
(I0
tp3360
g5
tp3361
Rp3362
(I1
(I1
tp3363
g12
I00
S'U\xbe\n\t\x84A|@'
p3364
tp3365
bag2
(g3
(I0
tp3366
g5
tp3367
Rp3368
(I1
(I1
tp3369
g12
I00
S'\n\xc9H\xd8\x01U|@'
p3370
tp3371
bag2
(g3
(I0
tp3372
g5
tp3373
Rp3374
(I1
(I1
tp3375
g12
I00
S'"$\xb9\xff\x0fj|@'
p3376
tp3377
bag2
(g3
(I0
tp3378
g5
tp3379
Rp3380
(I1
(I1
tp3381
g12
I00
S'\xd7mx\x14\xd6x|@'
p3382
tp3383
bag2
(g3
(I0
tp3384
g5
tp3385
Rp3386
(I1
(I1
tp3387
g12
I00
S'\xd2D\xfb\xe5\x98\x89|@'
p3388
tp3389
bag2
(g3
(I0
tp3390
g5
tp3391
Rp3392
(I1
(I1
tp3393
g12
I00
S'l\xa2\xd3U\x86\x9e|@'
p3394
tp3395
bag2
(g3
(I0
tp3396
g5
tp3397
Rp3398
(I1
(I1
tp3399
g12
I00
S'\xc0W\xcdX;\xaf|@'
p3400
tp3401
bag2
(g3
(I0
tp3402
g5
tp3403
Rp3404
(I1
(I1
tp3405
g12
I00
S')\x19\xee\xa1\x9e\xbb|@'
p3406
tp3407
bag2
(g3
(I0
tp3408
g5
tp3409
Rp3410
(I1
(I1
tp3411
g12
I00
S'N=\xd5\x92\xbd\xc3|@'
p3412
tp3413
bag2
(g3
(I0
tp3414
g5
tp3415
Rp3416
(I1
(I1
tp3417
g12
I00
S'\xee\x15%\xb4\x96\xc7|@'
p3418
tp3419
bag2
(g3
(I0
tp3420
g5
tp3421
Rp3422
(I1
(I1
tp3423
g12
I00
S':G\x0e\x7f\x7f\xd0|@'
p3424
tp3425
bag2
(g3
(I0
tp3426
g5
tp3427
Rp3428
(I1
(I1
tp3429
g12
I00
S'd\x85b\xc6\x1d\xd5|@'
p3430
tp3431
bag2
(g3
(I0
tp3432
g5
tp3433
Rp3434
(I1
(I1
tp3435
g12
I00
S'\xbez1N\x94\xd5|@'
p3436
tp3437
bag2
(g3
(I0
tp3438
g5
tp3439
Rp3440
(I1
(I1
tp3441
g12
I00
S'k\xf2\x88\x81\xc9\xd1|@'
p3442
tp3443
bag2
(g3
(I0
tp3444
g5
tp3445
Rp3446
(I1
(I1
tp3447
g12
I00
S'\x00\xf2\xd5X\xd3\xc9|@'
p3448
tp3449
bag2
(g3
(I0
tp3450
g5
tp3451
Rp3452
(I1
(I1
tp3453
g12
I00
S'\x00\xe5\x94\xad\xac\xbd|@'
p3454
tp3455
bag2
(g3
(I0
tp3456
g5
tp3457
Rp3458
(I1
(I1
tp3459
g12
I00
S'\xf8Z3\xe1\x18\xac|@'
p3460
tp3461
bag2
(g3
(I0
tp3462
g5
tp3463
Rp3464
(I1
(I1
tp3465
g12
I00
S'\xf6<\x0c\xab!\x95|@'
p3466
tp3467
bag2
(g3
(I0
tp3468
g5
tp3469
Rp3470
(I1
(I1
tp3471
g12
I00
S'8\xa87\xbf\xcbx|@'
p3472
tp3473
bag2
(g3
(I0
tp3474
g5
tp3475
Rp3476
(I1
(I1
tp3477
g12
I00
S'\x07\xec\xe5\xaa\x18`|@'
p3478
tp3479
bag2
(g3
(I0
tp3480
g5
tp3481
Rp3482
(I1
(I1
tp3483
g12
I00
S'\x1f\x93\xd9\xe9\xf9J|@'
p3484
tp3485
bag2
(g3
(I0
tp3486
g5
tp3487
Rp3488
(I1
(I1
tp3489
g12
I00
S'\xe8\x926\xf8a9|@'
p3490
tp3491
bag2
(g3
(I0
tp3492
g5
tp3493
Rp3494
(I1
(I1
tp3495
g12
I00
S'\x87\xc2\xe7HD+|@'
p3496
tp3497
bag2
(g3
(I0
tp3498
g5
tp3499
Rp3500
(I1
(I1
tp3501
g12
I00
S'\xca.\xe9\xf7x |@'
p3502
tp3503
bag2
(g3
(I0
tp3504
g5
tp3505
Rp3506
(I1
(I1
tp3507
g12
I00
S'p\xa4\x04\xdb\xdb\x18|@'
p3508
tp3509
bag2
(g3
(I0
tp3510
g5
tp3511
Rp3512
(I1
(I1
tp3513
g12
I00
S'\xda\xb2\x9b\xa02\x14|@'
p3514
tp3515
bag2
(g3
(I0
tp3516
g5
tp3517
Rp3518
(I1
(I1
tp3519
g12
I00
S'\xba\xe2\x07IE\x12|@'
p3520
tp3521
bag2
(g3
(I0
tp3522
g5
tp3523
Rp3524
(I1
(I1
tp3525
g12
I00
S'$\xbfh?\xcf\x12|@'
p3526
tp3527
bag2
(g3
(I0
tp3528
g5
tp3529
Rp3530
(I1
(I1
tp3531
g12
I00
S'\xa4p\xe5+A\x17|@'
p3532
tp3533
bag2
(g3
(I0
tp3534
g5
tp3535
Rp3536
(I1
(I1
tp3537
g12
I00
S"\xc9Q\x9c'J\x1f|@"
p3538
tp3539
bag2
(g3
(I0
tp3540
g5
tp3541
Rp3542
(I1
(I1
tp3543
g12
I00
S'\x9e\x87\x11\xf9\xc5)|@'
p3544
tp3545
bag2
(g3
(I0
tp3546
g5
tp3547
Rp3548
(I1
(I1
tp3549
g12
I00
S'\xe3\xa1J\xe9\xcc5|@'
p3550
tp3551
bag2
(g3
(I0
tp3552
g5
tp3553
Rp3554
(I1
(I1
tp3555
g12
I00
S'\xda;\xcc\xea\xeeB|@'
p3556
tp3557
bag2
(g3
(I0
tp3558
g5
tp3559
Rp3560
(I1
(I1
tp3561
g12
I00
S'\x9b|\x14\xa3DO|@'
p3562
tp3563
bag2
(g3
(I0
tp3564
g5
tp3565
Rp3566
(I1
(I1
tp3567
g12
I00
S'\xe2&\xea?\r[|@'
p3568
tp3569
bag2
(g3
(I0
tp3570
g5
tp3571
Rp3572
(I1
(I1
tp3573
g12
I00
S'6uB4nf|@'
p3574
tp3575
bag2
(g3
(I0
tp3576
g5
tp3577
Rp3578
(I1
(I1
tp3579
g12
I00
S'\xe7\x89\xe4\xcd\x85q|@'
p3580
tp3581
bag2
(g3
(I0
tp3582
g5
tp3583
Rp3584
(I1
(I1
tp3585
g12
I00
S'\xa5\x10\xce%N||@'
p3586
tp3587
bag2
(g3
(I0
tp3588
g5
tp3589
Rp3590
(I1
(I1
tp3591
g12
I00
S'\x9cL\x02\xe3\xe2\x86|@'
p3592
tp3593
bag2
(g3
(I0
tp3594
g5
tp3595
Rp3596
(I1
(I1
tp3597
g12
I00
S'z\x80\x18sL\x91|@'
p3598
tp3599
bag2
(g3
(I0
tp3600
g5
tp3601
Rp3602
(I1
(I1
tp3603
g12
I00
S'\x92\x19\xa9\xfe\xa2\x9b|@'
p3604
tp3605
bag2
(g3
(I0
tp3606
g5
tp3607
Rp3608
(I1
(I1
tp3609
g12
I00
S'\x1e\x95\xc4R\xf4\xa5|@'
p3610
tp3611
bag2
(g3
(I0
tp3612
g5
tp3613
Rp3614
(I1
(I1
tp3615
g12
I00
S'\x940V\x9d<\xb0|@'
p3616
tp3617
bag2
(g3
(I0
tp3618
g5
tp3619
Rp3620
(I1
(I1
tp3621
g12
I00
S'\x07f\xd5_r\xba|@'
p3622
tp3623
bag2
(g3
(I0
tp3624
g5
tp3625
Rp3626
(I1
(I1
tp3627
g12
I00
S'\xde\xf1O\x19\x87\xc4|@'
p3628
tp3629
bag2
(g3
(I0
tp3630
g5
tp3631
Rp3632
(I1
(I1
tp3633
g12
I00
S'\x939=fp\xce|@'
p3634
tp3635
bag2
(g3
(I0
tp3636
g5
tp3637
Rp3638
(I1
(I1
tp3639
g12
I00
S'\xaa\xd1\xc5\xfc\x1f\xd8|@'
p3640
tp3641
bag2
(g3
(I0
tp3642
g5
tp3643
Rp3644
(I1
(I1
tp3645
g12
I00
S'6\xff\xa8h\x8d\xe1|@'
p3646
tp3647
bag2
(g3
(I0
tp3648
g5
tp3649
Rp3650
(I1
(I1
tp3651
g12
I00
S'\x8e\x04\xca\xcf\xae\xea|@'
p3652
tp3653
bag2
(g3
(I0
tp3654
g5
tp3655
Rp3656
(I1
(I1
tp3657
g12
I00
S'\xd6\xacxh{\xf3|@'
p3658
tp3659
bag2
(g3
(I0
tp3660
g5
tp3661
Rp3662
(I1
(I1
tp3663
g12
I00
S"\x05\x05'M\xed\xfb|@"
p3664
tp3665
bag2
(g3
(I0
tp3666
g5
tp3667
Rp3668
(I1
(I1
tp3669
g12
I00
S'\xb8j\xcff\xff\x03}@'
p3670
tp3671
bag2
(g3
(I0
tp3672
g5
tp3673
Rp3674
(I1
(I1
tp3675
g12
I00
S'\x83\xb4h\xd5\xab\x0b}@'
p3676
tp3677
bag2
(g3
(I0
tp3678
g5
tp3679
Rp3680
(I1
(I1
tp3681
g12
I00
S'\xf5\x9b\xe6\xf2\xee\x12}@'
p3682
tp3683
bag2
(g3
(I0
tp3684
g5
tp3685
Rp3686
(I1
(I1
tp3687
g12
I00
S"u)\xcc'\xc6\x19}@"
p3688
tp3689
bag2
(g3
(I0
tp3690
g5
tp3691
Rp3692
(I1
(I1
tp3693
g12
I00
S'S\xff\xe58- }@'
p3694
tp3695
bag2
(g3
(I0
tp3696
g5
tp3697
Rp3698
(I1
(I1
tp3699
g12
I00
S'\xe3G\xfa\xdf &}@'
p3700
tp3701
bag2
(g3
(I0
tp3702
g5
tp3703
Rp3704
(I1
(I1
tp3705
g12
I00
S'\xf8\xad\xae\xdb\xa0+}@'
p3706
tp3707
bag2
(g3
(I0
tp3708
g5
tp3709
Rp3710
(I1
(I1
tp3711
g12
I00
S'\x01\xf8\xeb\x9c\xaa0}@'
p3712
tp3713
bag2
(g3
(I0
tp3714
g5
tp3715
Rp3716
(I1
(I1
tp3717
g12
I00
S'v\xc3s\xbd\xa17}@'
p3718
tp3719
bag2
(g3
(I0
tp3720
g5
tp3721
Rp3722
(I1
(I1
tp3723
g12
I00
S'\x90_\x0c?\x16@}@'
p3724
tp3725
bag2
(g3
(I0
tp3726
g5
tp3727
Rp3728
(I1
(I1
tp3729
g12
I00
S'\xaf5:\x9a\xa7I}@'
p3730
tp3731
bag2
(g3
(I0
tp3732
g5
tp3733
Rp3734
(I1
(I1
tp3735
g12
I00
S'\x95\x018K\x12T}@'
p3736
tp3737
bag2
(g3
(I0
tp3738
g5
tp3739
Rp3740
(I1
(I1
tp3741
g12
I00
S'-\xac0U\xdb^}@'
p3742
tp3743
bag2
(g3
(I0
tp3744
g5
tp3745
Rp3746
(I1
(I1
tp3747
g12
I00
S'\xbc\xad]\xaf\xdfi}@'
p3748
tp3749
bag2
(g3
(I0
tp3750
g5
tp3751
Rp3752
(I1
(I1
tp3753
g12
I00
S'\x1c\xd3\xbb\x08\x1du}@'
p3754
tp3755
bag2
(g3
(I0
tp3756
g5
tp3757
Rp3758
(I1
(I1
tp3759
g12
I00
S'\xc7\x8fu\x81!}}@'
p3760
tp3761
bag2
(g3
(I0
tp3762
g5
tp3763
Rp3764
(I1
(I1
tp3765
g12
I00
S'^\xbe\tf\x98\x82}@'
p3766
tp3767
baa.