(lp0
(lp1
cnumpy.core.multiarray
_reconstruct
p2
(cnumpy
ndarray
p3
(I0
tp4
S'b'
p5
tp6
Rp7
(I1
(I1
tp8
cnumpy
dtype
p9
(S'f8'
p10
I0
I1
tp11
Rp12
(I3
S'<'
p13
NNNI-1
I-1
I0
tp14
bI00
S'\x00\x00\x00\x00\x00\xc4\x90@'
p15
tp16
bag2
(g3
(I0
tp17
g5
tp18
Rp19
(I1
(I1
tp20
g12
I00
S'\xb8\xd7\xc7\xac\xad\xb5\x90@'
p21
tp22
bag2
(g3
(I0
tp23
g5
tp24
Rp25
(I1
(I1
tp26
g12
I00
S'\x08gmR\xdf\x84\x90@'
p27
tp28
bag2
(g3
(I0
tp29
g5
tp30
Rp31
(I1
(I1
tp32
g12
I00
S'\xec\xba\xa1\xfc\xdc/\x90@'
p33
tp34
bag2
(g3
(I0
tp35
g5
tp36
Rp37
(I1
(I1
tp38
g12
I00
S'\xf7VW\xe0\x9c{\x8f@'
p39
tp40
bag2
(g3
(I0
tp41
g5
tp42
Rp43
(I1
(I1
tp44
g12
I00
S'\xee\xf0\xca\x15\xd4q\x8e@'
p45
tp46
bag2
(g3
(I0
tp47
g5
tp48
Rp49
(I1
(I1
tp50
g12
I00
S'j1\xf9\x1fwV\x8d@'
p51
tp52
bag2
(g3
(I0
tp53
g5
tp54
Rp55
(I1
(I1
tp56
g12
I00
S'H\xb4\xe9\x847:\x8c@'
p57
tp58
bag2
(g3
(I0
tp59
g5
tp60
Rp61
(I1
(I1
tp62
g12
I00
S'\x0e\xfc\xec\xd9^)\x8b@'
p63
tp64
bag2
(g3
(I0
tp65
g5
tp66
Rp67
(I1
(I1
tp68
g12
I00
S'N\x8a\x1f\xf1\xf0+\x8a@'
p69
tp70
bag2
(g3
(I0
tp71
g5
tp72
Rp73
(I1
(I1
tp74
g12
I00
S'!\x867\xb9XF\x89@'
p75
tp76
bag2
(g3
(I0
tp77
g5
tp78
Rp79
(I1
(I1
tp80
g12
I00
S'\xea\x93X/Bz\x88@'
p81
tp82
bag2
(g3
(I0
tp83
g5
tp84
Rp85
(I1
(I1
tp86
g12
I00
S'\xdd\xbb\xe7Om\xc7\x87@'
p87
tp88
bag2
(g3
(I0
tp89
g5
tp90
Rp91
(I1
(I1
tp92
g12
I00
S':K\xc0/a,\x87@'
p93
tp94
bag2
(g3
(I0
tp95
g5
tp96
Rp97
(I1
(I1
tp98
g12
I00
S'\xfc6\x9e\x14\xf7\xa6\x86@'
p99
tp100
bag2
(g3
(I0
tp101
g5
tp102
Rp103
(I1
(I1
tp104
g12
I00
S'\x0c\xe3K\xb5\xbe4\x86@'
p105
tp106
bag2
(g3
(I0
tp107
g5
tp108
Rp109
(I1
(I1
tp110
g12
I00
S'\x98\xd43EA\xd3\x85@'
p111
tp112
bag2
(g3
(I0
tp113
g5
tp114
Rp115
(I1
(I1
tp116
g12
I00
S'n\x13\x9ap*\x80\x85@'
p117
tp118
bag2
(g3
(I0
tp119
g5
tp120
Rp121
(I1
(I1
tp122
g12
I00
S'{\xb5\x8fD^9\x85@'
p123
tp124
bag2
(g3
(I0
tp125
g5
tp126
Rp127
(I1
(I1
tp128
g12
I00
S'\x8eV\xca\x03\x02\xfd\x84@'
p129
tp130
baI626
aa(lp131
g2
(g3
(I0
tp132
g5
tp133
Rp134
(I1
(I1
tp135
g12
I00
S'\x00\x00\x00\x00\x00\xf4u@'
p136
tp137
bag2
(g3
(I0
tp138
g5
tp139
Rp140
(I1
(I1
tp141
g12
I00
S'\xae@\x17\xea\xc3\xd3u@'
p142
tp143
bag2
(g3
(I0
tp144
g5
tp145
Rp146
(I1
(I1
tp147
g12
I00
S'T\xcc\xca\x10\xe6\xd5u@'
p148
tp149
bag2
(g3
(I0
tp150
g5
tp151
Rp152
(I1
(I1
tp153
g12
I00
S'\xd03Vai\x11v@'
p154
tp155
bag2
(g3
(I0
tp156
g5
tp157
Rp158
(I1
(I1
tp159
g12
I00
S'.b\x07_\x93\x85v@'
p160
tp161
bag2
(g3
(I0
tp162
g5
tp163
Rp164
(I1
(I1
tp165
g12
I00
S'\x0f\x9c\xf2\xc2\x8a&w@'
p166
tp167
bag2
(g3
(I0
tp168
g5
tp169
Rp170
(I1
(I1
tp171
g12
I00
S'\x13|k\x8e\xe1\xe4w@'
p172
tp173
bag2
(g3
(I0
tp174
g5
tp175
Rp176
(I1
(I1
tp177
g12
I00
S'&\xc7z@\xb9\xb1x@'
p178
tp179
bag2
(g3
(I0
tp180
g5
tp181
Rp182
(I1
(I1
tp183
g12
I00
S'\x8b\x1bZ\xe1\xb9\x80y@'
p184
tp185
bag2
(g3
(I0
tp186
g5
tp187
Rp188
(I1
(I1
tp189
g12
I00
S'\x13Q\xf6L\xb6Hz@'
p190
tp191
bag2
(g3
(I0
tp192
g5
tp193
Rp194
(I1
(I1
tp195
g12
I00
S'\xdc\xfc\xa08\x92\x03{@'
p196
tp197
bag2
(g3
(I0
tp198
g5
tp199
Rp200
(I1
(I1
tp201
g12
I00
S'\x84\xdf\x04{\xcb\xad{@'
p202
tp203
bag2
(g3
(I0
tp204
g5
tp205
Rp206
(I1
(I1
tp207
g12
I00
S'R\xc8\xe6Y\xe3E|@'
p208
tp209
bag2
(g3
(I0
tp210
g5
tp211
Rp212
(I1
(I1
tp213
g12
I00
S'\xc2\xa8\xe2\xc1\xca\xcb|@'
p214
tp215
bag2
(g3
(I0
tp216
g5
tp217
Rp218
(I1
(I1
tp219
g12
I00
S'\xa6\x10\xd4\xdab@}@'
p220
tp221
bag2
(g3
(I0
tp222
g5
tp223
Rp224
(I1
(I1
tp225
g12
I00
S'\xa1l\xf8Y\x18\xa5}@'
p226
tp227
bag2
(g3
(I0
tp228
g5
tp229
Rp230
(I1
(I1
tp231
g12
I00
S'\x1e\xc9\x9f~\x99\xfb}@'
p232
tp233
bag2
(g3
(I0
tp234
g5
tp235
Rp236
(I1
(I1
tp237
g12
I00
S'\x87\xc5A[\xa3E~@'
p238
tp239
bag2
(g3
(I0
tp240
g5
tp241
Rp242
(I1
(I1
tp243
g12
I00
S' p\x8f\xc8\xe1\x84~@'
p244
tp245
bag2
(g3
(I0
tp246
g5
tp247
Rp248
(I1
(I1
tp249
g12
I00
S'\x1d\xeaSM\xdd\xba~@'
p250
tp251
baI512
aa.