(lp0
(lp1
cnumpy.core.multiarray
_reconstruct
p2
(cnumpy
ndarray
p3
(I0
tp4
S'b'
p5
tp6
Rp7
(I1
(I1
tp8
cnumpy
dtype
p9
(S'f8'
p10
I0
I1
tp11
Rp12
(I3
S'<'
p13
NNNI-1
I-1
I0
tp14
bI00
S'\x00\x00\x00\x00\x00\xc4\x90@'
p15
tp16
bag2
(g3
(I0
tp17
g5
tp18
Rp19
(I1
(I1
tp20
g12
I00
S'\xb9w\xf3j\xb4\xb5\x90@'
p21
tp22
bag2
(g3
(I0
tp23
g5
tp24
Rp25
(I1
(I1
tp26
g12
I00
S',\x8c\x1c)\xbc\x87\x90@'
p27
tp28
bag2
(g3
(I0
tp29
g5
tp30
Rp31
(I1
(I1
tp32
g12
I00
S'\x0c\x9e2\x1d\x079\x90@'
p33
tp34
bag2
(g3
(I0
tp35
g5
tp36
Rp37
(I1
(I1
tp38
g12
I00
S'_MD\xc1\x98\xa0\x8f@'
p39
tp40
bag2
(g3
(I0
tp41
g5
tp42
Rp43
(I1
(I1
tp44
g12
I00
S'\xff\xaf\xfe9\xbd\xad\x8e@'
p45
tp46
bag2
(g3
(I0
tp47
g5
tp48
Rp49
(I1
(I1
tp50
g12
I00
S'O\xab$r\xa5\xab\x8d@'
p51
tp52
bag2
(g3
(I0
tp53
g5
tp54
Rp55
(I1
(I1
tp56
g12
I00
S'\x02h\xc1uQ\xa9\x8c@'
p57
tp58
bag2
(g3
(I0
tp59
g5
tp60
Rp61
(I1
(I1
tp62
g12
I00
S'W\xb4IV\xbd\xb1\x8b@'
p63
tp64
bag2
(g3
(I0
tp65
g5
tp66
Rp67
(I1
(I1
tp68
g12
I00
S'\xb1\xba\xa1\xb9\x08\xcc\x8a@'
p69
tp70
bag2
(g3
(I0
tp71
g5
tp72
Rp73
(I1
(I1
tp74
g12
I00
S'\x1aktc\x17\xfc\x89@'
p75
tp76
bag2
(g3
(I0
tp77
g5
tp78
Rp79
(I1
(I1
tp80
g12
I00
S'\xbe@/\xaeWC\x89@'
p81
tp82
bag2
(g3
(I0
tp83
g5
tp84
Rp85
(I1
(I1
tp86
g12
I00
S'8\x88\x04\x16\x81\xa1\x88@'
p87
tp88
bag2
(g3
(I0
tp89
g5
tp90
Rp91
(I1
(I1
tp92
g12
I00
S',\x02\xaf65\x15\x88@'
p93
tp94
bag2
(g3
(I0
tp95
g5
tp96
Rp97
(I1
(I1
tp98
g12
I00
S'$\xcck`|\x9c\x87@'
p99
tp100
bag2
(g3
(I0
tp101
g5
tp102
Rp103
(I1
(I1
tp104
g12
I00
S'\x07*\x7f\x1a\x1f5\x87@'
p105
tp106
bag2
(g3
(I0
tp107
g5
tp108
Rp109
(I1
(I1
tp110
g12
I00
S'z\x1c\x0f\xcf\xe1\xdc\x86@'
p111
tp112
bag2
(g3
(I0
tp113
g5
tp114
Rp115
(I1
(I1
tp116
g12
I00
S'\x85\x1d\x86 \xa9\x91\x86@'
p117
tp118
bag2
(g3
(I0
tp119
g5
tp120
Rp121
(I1
(I1
tp122
g12
I00
S'2\xe7B5\x8dQ\x86@'
p123
tp124
bag2
(g3
(I0
tp125
g5
tp126
Rp127
(I1
(I1
tp128
g12
I00
S'\xf7\xf4V^\xe1\x1a\x86@'
p129
tp130
baI666
aa(lp131
g2
(g3
(I0
tp132
g5
tp133
Rp134
(I1
(I1
tp135
g12
I00
S'\x00\x00\x00\x00\x00\xf4u@'
p136
tp137
bag2
(g3
(I0
tp138
g5
tp139
Rp140
(I1
(I1
tp141
g12
I00
S'\xca\xad\x0e\xea\xc3\xd3u@'
p142
tp143
bag2
(g3
(I0
tp144
g5
tp145
Rp146
(I1
(I1
tp147
g12
I00
S'bU\xdc\xe5#\xe2u@'
p148
tp149
bag2
(g3
(I0
tp150
g5
tp151
Rp152
(I1
(I1
tp153
g12
I00
S'\xc0\xc2\\\x1f\x069v@'
p154
tp155
bag2
(g3
(I0
tp156
g5
tp157
Rp158
(I1
(I1
tp159
g12
I00
S'\xea\xd9/J\xc6\xd5v@'
p160
tp161
bag2
(g3
(I0
tp162
g5
tp163
Rp164
(I1
(I1
tp165
g12
I00
S'\x92f\x8c7\xac\xa8w@'
p166
tp167
bag2
(g3
(I0
tp168
g5
tp169
Rp170
(I1
(I1
tp171
g12
I00
S'UB\xa9C\x19\x9ex@'
p172
tp173
bag2
(g3
(I0
tp174
g5
tp175
Rp176
(I1
(I1
tp177
g12
I00
S'\xe8\x04\xc3/\x82\xa3y@'
p178
tp179
bag2
(g3
(I0
tp180
g5
tp181
Rp182
(I1
(I1
tp183
g12
I00
S'\x8dc\x0c!\xbb\xa9z@'
p184
tp185
bag2
(g3
(I0
tp186
g5
tp187
Rp188
(I1
(I1
tp189
g12
I00
S'2\x07W\xa7\xa6\xa5{@'
p190
tp191
bag2
(g3
(I0
tp192
g5
tp193
Rp194
(I1
(I1
tp195
g12
I00
S'\xect\xc3\xb0\x00\x90|@'
p196
tp197
bag2
(g3
(I0
tp198
g5
tp199
Rp200
(I1
(I1
tp201
g12
I00
S'\xd9`\xef\xc8\xbdd}@'
p202
tp203
bag2
(g3
(I0
tp204
g5
tp205
Rp206
(I1
(I1
tp207
g12
I00
S'\x82F\xf3\x9dH"~@'
p208
tp209
bag2
(g3
(I0
tp210
g5
tp211
Rp212
(I1
(I1
tp213
g12
I00
S'g\r\xbfq\xc7\xc8~@'
p214
tp215
bag2
(g3
(I0
tp216
g5
tp217
Rp218
(I1
(I1
tp219
g12
I00
S'\xe75\xc3\x9c}Y\x7f@'
p220
tp221
bag2
(g3
(I0
tp222
g5
tp223
Rp224
(I1
(I1
tp225
g12
I00
S'\x15\x14\xe4\xd8O\xd6\x7f@'
p226
tp227
bag2
(g3
(I0
tp228
g5
tp229
Rp230
(I1
(I1
tp231
g12
I00
S'\xd2L+0\xb5 \x80@'
p232
tp233
bag2
(g3
(I0
tp234
g5
tp235
Rp236
(I1
(I1
tp237
g12
I00
S'\xc3\x0c\x8f\x11\x82N\x80@'
p238
tp239
bag2
(g3
(I0
tp240
g5
tp241
Rp242
(I1
(I1
tp243
g12
I00
S'X\xc6\xf0\x7f\x9cu\x80@'
p244
tp245
bag2
(g3
(I0
tp246
g5
tp247
Rp248
(I1
(I1
tp249
g12
I00
S'\xf3h0\x80\xfa\x96\x80@'
p250
tp251
baI556
aa.